
C:\Users\mathiasc\AppData\Local\Temp\arduino_build_312787/Soldering-Station.ino.elf:     file format elf32-avr


Disassembly of section .text:

00000000 <__vectors>:
__vectors():
../../../../crt1/gcrt1.S:61
       0:	0c 94 92 00 	jmp	0x124	; 0x124 <__ctors_end>
../../../../crt1/gcrt1.S:67
       4:	0c 94 ba 00 	jmp	0x174	; 0x174 <__bad_interrupt>
../../../../crt1/gcrt1.S:68
       8:	0c 94 ba 00 	jmp	0x174	; 0x174 <__bad_interrupt>
../../../../crt1/gcrt1.S:69
       c:	0c 94 ba 00 	jmp	0x174	; 0x174 <__bad_interrupt>
../../../../crt1/gcrt1.S:70
      10:	0c 94 ba 00 	jmp	0x174	; 0x174 <__bad_interrupt>
../../../../crt1/gcrt1.S:71
      14:	0c 94 ba 00 	jmp	0x174	; 0x174 <__bad_interrupt>
../../../../crt1/gcrt1.S:72
      18:	0c 94 ba 00 	jmp	0x174	; 0x174 <__bad_interrupt>
../../../../crt1/gcrt1.S:73
      1c:	0c 94 ba 00 	jmp	0x174	; 0x174 <__bad_interrupt>
../../../../crt1/gcrt1.S:74
      20:	0c 94 ba 00 	jmp	0x174	; 0x174 <__bad_interrupt>
../../../../crt1/gcrt1.S:75
      24:	0c 94 ba 00 	jmp	0x174	; 0x174 <__bad_interrupt>
../../../../crt1/gcrt1.S:76
      28:	0c 94 ba 00 	jmp	0x174	; 0x174 <__bad_interrupt>
../../../../crt1/gcrt1.S:77
      2c:	0c 94 ba 00 	jmp	0x174	; 0x174 <__bad_interrupt>
../../../../crt1/gcrt1.S:78
      30:	0c 94 ba 00 	jmp	0x174	; 0x174 <__bad_interrupt>
../../../../crt1/gcrt1.S:79
      34:	0c 94 ba 00 	jmp	0x174	; 0x174 <__bad_interrupt>
../../../../crt1/gcrt1.S:80
      38:	0c 94 ba 00 	jmp	0x174	; 0x174 <__bad_interrupt>
../../../../crt1/gcrt1.S:81
      3c:	0c 94 ba 00 	jmp	0x174	; 0x174 <__bad_interrupt>
../../../../crt1/gcrt1.S:82
      40:	0c 94 ba 00 	jmp	0x174	; 0x174 <__bad_interrupt>
../../../../crt1/gcrt1.S:83
      44:	0c 94 3e 0f 	jmp	0x1e7c	; 0x1e7c <__vector_17>
../../../../crt1/gcrt1.S:84
      48:	0c 94 18 0f 	jmp	0x1e30	; 0x1e30 <__vector_18>
../../../../crt1/gcrt1.S:85
      4c:	0c 94 ba 00 	jmp	0x174	; 0x174 <__bad_interrupt>
../../../../crt1/gcrt1.S:86
      50:	0c 94 ba 00 	jmp	0x174	; 0x174 <__bad_interrupt>
../../../../crt1/gcrt1.S:87
      54:	0c 94 ba 00 	jmp	0x174	; 0x174 <__bad_interrupt>
../../../../crt1/gcrt1.S:88
      58:	0c 94 ba 00 	jmp	0x174	; 0x174 <__bad_interrupt>
../../../../crt1/gcrt1.S:89
      5c:	0c 94 ba 00 	jmp	0x174	; 0x174 <__bad_interrupt>
../../../../crt1/gcrt1.S:90
      60:	0c 94 ba 00 	jmp	0x174	; 0x174 <__bad_interrupt>
../../../../crt1/gcrt1.S:91
      64:	0c 94 6c 0f 	jmp	0x1ed8	; 0x1ed8 <__vector_25>
../../../../crt1/gcrt1.S:92
      68:	0c 94 ba 00 	jmp	0x174	; 0x174 <__bad_interrupt>
../../../../crt1/gcrt1.S:93
      6c:	0c 94 ba 00 	jmp	0x174	; 0x174 <__bad_interrupt>
../../../../crt1/gcrt1.S:94
      70:	0c 94 ba 00 	jmp	0x174	; 0x174 <__bad_interrupt>
../../../../crt1/gcrt1.S:95
      74:	0c 94 ba 00 	jmp	0x174	; 0x174 <__bad_interrupt>
../../../../crt1/gcrt1.S:96
      78:	0c 94 ba 00 	jmp	0x174	; 0x174 <__bad_interrupt>
../../../../crt1/gcrt1.S:97
      7c:	0c 94 ba 00 	jmp	0x174	; 0x174 <__bad_interrupt>
../../../../crt1/gcrt1.S:98
      80:	0c 94 ba 00 	jmp	0x174	; 0x174 <__bad_interrupt>
../../../../crt1/gcrt1.S:99
      84:	0c 94 ba 00 	jmp	0x174	; 0x174 <__bad_interrupt>
../../../../crt1/gcrt1.S:100
      88:	0c 94 ba 00 	jmp	0x174	; 0x174 <__bad_interrupt>
../../../../crt1/gcrt1.S:101
      8c:	0c 94 ba 00 	jmp	0x174	; 0x174 <__bad_interrupt>
../../../../crt1/gcrt1.S:102
      90:	0c 94 94 0f 	jmp	0x1f28	; 0x1f28 <__vector_36>
../../../../crt1/gcrt1.S:103
      94:	0c 94 ba 00 	jmp	0x174	; 0x174 <__bad_interrupt>
../../../../crt1/gcrt1.S:104
      98:	0c 94 ba 00 	jmp	0x174	; 0x174 <__bad_interrupt>
../../../../crt1/gcrt1.S:105
      9c:	0c 94 ba 00 	jmp	0x174	; 0x174 <__bad_interrupt>

000000a0 <__trampolines_end>:
__trampolines_start():
      a0:	00 5e       	subi	r16, 0xE0	; 224
      a2:	bc e2       	ldi	r27, 0x2C	; 44
      a4:	61 3f       	cpi	r22, 0xF1	; 241
      a6:	dd 83       	std	Y+5, r29	; 0x05
      a8:	c2 9c       	mul	r12, r2
      aa:	7e 20       	and	r7, r14
      ac:	a3 fd       	sbrc	r26, 3
      ae:	1f 41       	sbci	r17, 0x1F	; 31
      b0:	00 9d       	mul	r16, r0
      b2:	23 be       	out	0x33, r2	; 51
      b4:	46 db       	rcall	.-2420   	; 0xfffff742 <__eeprom_end+0xff7ef742>
      b6:	65 f8       	bld	r6, 5
      b8:	8c 11       	cpse	r24, r12
      ba:	af 32       	cpi	r26, 0x2F	; 47
      bc:	ca 57       	subi	r28, 0x7A	; 122
      be:	e9 74       	andi	r30, 0x49	; 73

000000c0 <_ZZ23SerialConsoleParseInputvE3__c__13_>:
      c0:	57 52 54 00                                         WRT.

000000c4 <_ZZ23SerialConsoleParseInputvE3__c__12_>:
      c4:	48 4b 4f 00                                         HKO.

000000c8 <_ZZ23SerialConsoleParseInputvE3__c__11_>:
      c8:	4a 42 43 00                                         JBC.

000000cc <_ZZ23SerialConsoleParseInputvE3__c__10_>:
      cc:	4f 46 46 00                                         OFF.

000000d0 <SerialConsoleParseInput()::__c>:
      d0:	4f 4e 00                                            ON.

000000d3 <SerialConsoleParseInput()::__c>:
      d3:	69 72 6f 6e 74 79 70 65 00                          irontype.

000000dc <SerialConsoleParseInput()::__c>:
      dc:	65 72 72 6f 72 00                                   error.

000000e2 <SerialConsoleParseInput()::__c>:
      e2:	6f 6e 65 77 69 72 65 74 65 6d 70 00                 onewiretemp.

000000ee <SerialConsoleParseInput()::__c>:
      ee:	6f 6e 63 68 69 70 74 65 6d 70 00                    onchiptemp.

000000f9 <SerialConsoleParseInput()::__c>:
      f9:	74 65 6d 70 65 72 61 74 75 72 65 00                 temperature.

00000105 <SerialConsoleParseInput()::__c>:
     105:	73 65 74 70 6f 69 6e 74 00                          setpoint.

0000010e <SerialConsoleParseInput()::__c>:
     10e:	63 6c 65 61 72 00                                   clear.

00000114 <SerialConsoleParseInput()::__c>:
     114:	68 65 6c 70 00                                      help.

00000119 <SerialConsoleParseInput()::__c>:
     119:	67 65 74 00                                         get.

0000011d <SerialConsoleParseInput()::__c>:
     11d:	73 65 74 00 00                                      set..

00000122 <__ctors_start>:
__ctors_start():
     122:	ff 0f       	add	r31, r31

00000124 <__ctors_end>:
__dtors_end():
../../../../crt1/gcrt1.S:230
     124:	11 24       	eor	r1, r1
../../../../crt1/gcrt1.S:231
     126:	1f be       	out	0x3f, r1	; 63
../../../../crt1/gcrt1.S:232
     128:	cf ef       	ldi	r28, 0xFF	; 255
../../../../crt1/gcrt1.S:234
     12a:	cd bf       	out	0x3d, r28	; 61
../../../../crt1/gcrt1.S:236
     12c:	df e3       	ldi	r29, 0x3F	; 63
../../../../crt1/gcrt1.S:237
     12e:	de bf       	out	0x3e, r29	; 62

00000130 <__do_copy_data>:
__do_copy_data():
/home/jenkins-mingw32/workspace/avr-gcc-staging/label/Ubuntu14.04x64-mingw32/gcc-build/avr/avrxmega3/libgcc/../../../../gcc/libgcc/config/avr/lib1funcs.S:2409
     130:	18 e2       	ldi	r17, 0x28	; 40
/home/jenkins-mingw32/workspace/avr-gcc-staging/label/Ubuntu14.04x64-mingw32/gcc-build/avr/avrxmega3/libgcc/../../../../gcc/libgcc/config/avr/lib1funcs.S:2410
     132:	a0 e0       	ldi	r26, 0x00	; 0
/home/jenkins-mingw32/workspace/avr-gcc-staging/label/Ubuntu14.04x64-mingw32/gcc-build/avr/avrxmega3/libgcc/../../../../gcc/libgcc/config/avr/lib1funcs.S:2411
     134:	b8 e2       	ldi	r27, 0x28	; 40
/home/jenkins-mingw32/workspace/avr-gcc-staging/label/Ubuntu14.04x64-mingw32/gcc-build/avr/avrxmega3/libgcc/../../../../gcc/libgcc/config/avr/lib1funcs.S:2412
     136:	e1 e5       	ldi	r30, 0x51	; 81
/home/jenkins-mingw32/workspace/avr-gcc-staging/label/Ubuntu14.04x64-mingw32/gcc-build/avr/avrxmega3/libgcc/../../../../gcc/libgcc/config/avr/lib1funcs.S:2413
     138:	fd e3       	ldi	r31, 0x3D	; 61
/home/jenkins-mingw32/workspace/avr-gcc-staging/label/Ubuntu14.04x64-mingw32/gcc-build/avr/avrxmega3/libgcc/../../../../gcc/libgcc/config/avr/lib1funcs.S:2414
     13a:	02 c0       	rjmp	.+4      	; 0x140 <__do_copy_data+0x10>
/home/jenkins-mingw32/workspace/avr-gcc-staging/label/Ubuntu14.04x64-mingw32/gcc-build/avr/avrxmega3/libgcc/../../../../gcc/libgcc/config/avr/lib1funcs.S:2417
     13c:	05 90       	lpm	r0, Z+
/home/jenkins-mingw32/workspace/avr-gcc-staging/label/Ubuntu14.04x64-mingw32/gcc-build/avr/avrxmega3/libgcc/../../../../gcc/libgcc/config/avr/lib1funcs.S:2422
     13e:	0d 92       	st	X+, r0
/home/jenkins-mingw32/workspace/avr-gcc-staging/label/Ubuntu14.04x64-mingw32/gcc-build/avr/avrxmega3/libgcc/../../../../gcc/libgcc/config/avr/lib1funcs.S:2424
     140:	a4 32       	cpi	r26, 0x24	; 36
/home/jenkins-mingw32/workspace/avr-gcc-staging/label/Ubuntu14.04x64-mingw32/gcc-build/avr/avrxmega3/libgcc/../../../../gcc/libgcc/config/avr/lib1funcs.S:2425
     142:	b1 07       	cpc	r27, r17
/home/jenkins-mingw32/workspace/avr-gcc-staging/label/Ubuntu14.04x64-mingw32/gcc-build/avr/avrxmega3/libgcc/../../../../gcc/libgcc/config/avr/lib1funcs.S:2426
     144:	d9 f7       	brne	.-10     	; 0x13c <__do_copy_data+0xc>

00000146 <__do_clear_bss>:
__do_clear_bss():
/home/jenkins-mingw32/workspace/avr-gcc-staging/label/Ubuntu14.04x64-mingw32/gcc-build/avr/avrxmega3/libgcc/../../../../gcc/libgcc/config/avr/lib1funcs.S:2441
     146:	29 e2       	ldi	r18, 0x29	; 41
/home/jenkins-mingw32/workspace/avr-gcc-staging/label/Ubuntu14.04x64-mingw32/gcc-build/avr/avrxmega3/libgcc/../../../../gcc/libgcc/config/avr/lib1funcs.S:2442
     148:	a4 e2       	ldi	r26, 0x24	; 36
/home/jenkins-mingw32/workspace/avr-gcc-staging/label/Ubuntu14.04x64-mingw32/gcc-build/avr/avrxmega3/libgcc/../../../../gcc/libgcc/config/avr/lib1funcs.S:2443
     14a:	b8 e2       	ldi	r27, 0x28	; 40
/home/jenkins-mingw32/workspace/avr-gcc-staging/label/Ubuntu14.04x64-mingw32/gcc-build/avr/avrxmega3/libgcc/../../../../gcc/libgcc/config/avr/lib1funcs.S:2444
     14c:	01 c0       	rjmp	.+2      	; 0x150 <.do_clear_bss_start>

0000014e <.do_clear_bss_loop>:
/home/jenkins-mingw32/workspace/avr-gcc-staging/label/Ubuntu14.04x64-mingw32/gcc-build/avr/avrxmega3/libgcc/../../../../gcc/libgcc/config/avr/lib1funcs.S:2446
     14e:	1d 92       	st	X+, r1

00000150 <.do_clear_bss_start>:
/home/jenkins-mingw32/workspace/avr-gcc-staging/label/Ubuntu14.04x64-mingw32/gcc-build/avr/avrxmega3/libgcc/../../../../gcc/libgcc/config/avr/lib1funcs.S:2448
     150:	a8 37       	cpi	r26, 0x78	; 120
/home/jenkins-mingw32/workspace/avr-gcc-staging/label/Ubuntu14.04x64-mingw32/gcc-build/avr/avrxmega3/libgcc/../../../../gcc/libgcc/config/avr/lib1funcs.S:2449
     152:	b2 07       	cpc	r27, r18
/home/jenkins-mingw32/workspace/avr-gcc-staging/label/Ubuntu14.04x64-mingw32/gcc-build/avr/avrxmega3/libgcc/../../../../gcc/libgcc/config/avr/lib1funcs.S:2450
     154:	e1 f7       	brne	.-8      	; 0x14e <.do_clear_bss_loop>

00000156 <__do_global_ctors>:
__do_global_ctors():
/home/jenkins-mingw32/workspace/avr-gcc-staging/label/Ubuntu14.04x64-mingw32/gcc-build/avr/avrxmega3/libgcc/../../../../gcc/libgcc/config/avr/lib1funcs.S:2466
     156:	10 e0       	ldi	r17, 0x00	; 0
/home/jenkins-mingw32/workspace/avr-gcc-staging/label/Ubuntu14.04x64-mingw32/gcc-build/avr/avrxmega3/libgcc/../../../../gcc/libgcc/config/avr/lib1funcs.S:2467
     158:	c2 e9       	ldi	r28, 0x92	; 146
/home/jenkins-mingw32/workspace/avr-gcc-staging/label/Ubuntu14.04x64-mingw32/gcc-build/avr/avrxmega3/libgcc/../../../../gcc/libgcc/config/avr/lib1funcs.S:2468
     15a:	d0 e0       	ldi	r29, 0x00	; 0
/home/jenkins-mingw32/workspace/avr-gcc-staging/label/Ubuntu14.04x64-mingw32/gcc-build/avr/avrxmega3/libgcc/../../../../gcc/libgcc/config/avr/lib1funcs.S:2472
     15c:	04 c0       	rjmp	.+8      	; 0x166 <__do_global_ctors+0x10>
/home/jenkins-mingw32/workspace/avr-gcc-staging/label/Ubuntu14.04x64-mingw32/gcc-build/avr/avrxmega3/libgcc/../../../../gcc/libgcc/config/avr/lib1funcs.S:2474
     15e:	21 97       	sbiw	r28, 0x01	; 1
/home/jenkins-mingw32/workspace/avr-gcc-staging/label/Ubuntu14.04x64-mingw32/gcc-build/avr/avrxmega3/libgcc/../../../../gcc/libgcc/config/avr/lib1funcs.S:2480
     160:	fe 01       	movw	r30, r28
/home/jenkins-mingw32/workspace/avr-gcc-staging/label/Ubuntu14.04x64-mingw32/gcc-build/avr/avrxmega3/libgcc/../../../../gcc/libgcc/config/avr/lib1funcs.S:2481
     162:	0e 94 63 1b 	call	0x36c6	; 0x36c6 <__tablejump2__>
/home/jenkins-mingw32/workspace/avr-gcc-staging/label/Ubuntu14.04x64-mingw32/gcc-build/avr/avrxmega3/libgcc/../../../../gcc/libgcc/config/avr/lib1funcs.S:2483
     166:	c1 39       	cpi	r28, 0x91	; 145
/home/jenkins-mingw32/workspace/avr-gcc-staging/label/Ubuntu14.04x64-mingw32/gcc-build/avr/avrxmega3/libgcc/../../../../gcc/libgcc/config/avr/lib1funcs.S:2484
     168:	d1 07       	cpc	r29, r17
/home/jenkins-mingw32/workspace/avr-gcc-staging/label/Ubuntu14.04x64-mingw32/gcc-build/avr/avrxmega3/libgcc/../../../../gcc/libgcc/config/avr/lib1funcs.S:2489
     16a:	c9 f7       	brne	.-14     	; 0x15e <__do_global_ctors+0x8>
../../../../crt1/gcrt1.S:314
     16c:	0e 94 6d 10 	call	0x20da	; 0x20da <main>
../../../../crt1/gcrt1.S:315
     170:	0c 94 a6 1b 	jmp	0x374c	; 0x374c <_exit>

00000174 <__bad_interrupt>:
__vector_38():
../../../../crt1/gcrt1.S:209
     174:	0c 94 00 00 	jmp	0	; 0x0 <__vectors>

00000178 <TEMP_190409::GetOnchipTempKelvin() [clone .constprop.45]>:
_ZN11TEMP_19040919GetOnchipTempKelvinEv.constprop.45():
C:\Users\mathiasc\AppData\Local\Temp\arduino_build_312787\sketch/TEMP_190409.cpp:155
    return GetOnchipTempKelvin();
  }
}

int16_t TEMP_190409::GetOnchipTempKelvin(){
   uint8_t RegTempCTRLC = ADC0.CTRLC;
     178:	e0 91 02 06 	lds	r30, 0x0602	; 0x800602 <__TEXT_REGION_LENGTH__+0x7f4602>
C:\Users\mathiasc\AppData\Local\Temp\arduino_build_312787\sketch/TEMP_190409.cpp:156
   uint8_t RegTempCTRLD = ADC0.CTRLD;
     17c:	70 91 03 06 	lds	r23, 0x0603	; 0x800603 <__TEXT_REGION_LENGTH__+0x7f4603>
C:\Users\mathiasc\AppData\Local\Temp\arduino_build_312787\sketch/TEMP_190409.cpp:157
   uint8_t RegTempSAMPLECTRL = ADC0.SAMPCTRL; 
     180:	60 91 05 06 	lds	r22, 0x0605	; 0x800605 <__TEXT_REGION_LENGTH__+0x7f4605>
C:\Users\mathiasc\AppData\Local\Temp\arduino_build_312787\sketch/TEMP_190409.cpp:158
   uint8_t RegTempMUXPOS = ADC0.MUXPOS;
     184:	50 91 06 06 	lds	r21, 0x0606	; 0x800606 <__TEXT_REGION_LENGTH__+0x7f4606>
C:\Users\mathiasc\AppData\Local\Temp\arduino_build_312787\sketch/TEMP_190409.cpp:160

   uint8_t RegTempVREFCrtA =  VREF.CTRLA;
     188:	40 91 a0 00 	lds	r20, 0x00A0	; 0x8000a0 <__TEXT_REGION_LENGTH__+0x7f40a0>
C:\Users\mathiasc\AppData\Local\Temp\arduino_build_312787\sketch/TEMP_190409.cpp:161
   uint8_t RegTempVREFCrtB =  VREF.CTRLB;
     18c:	30 91 a1 00 	lds	r19, 0x00A1	; 0x8000a1 <__TEXT_REGION_LENGTH__+0x7f40a1>
C:\Users\mathiasc\AppData\Local\Temp\arduino_build_312787\sketch/TEMP_190409.cpp:163
 
   VREF.CTRLA = 0x10;
     190:	80 e1       	ldi	r24, 0x10	; 16
     192:	80 93 a0 00 	sts	0x00A0, r24	; 0x8000a0 <__TEXT_REGION_LENGTH__+0x7f40a0>
C:\Users\mathiasc\AppData\Local\Temp\arduino_build_312787\sketch/TEMP_190409.cpp:164
   VREF.CTRLB = 0x02;
     196:	82 e0       	ldi	r24, 0x02	; 2
     198:	80 93 a1 00 	sts	0x00A1, r24	; 0x8000a1 <__TEXT_REGION_LENGTH__+0x7f40a1>
C:\Users\mathiasc\AppData\Local\Temp\arduino_build_312787\sketch/TEMP_190409.cpp:166

   ADC0.CTRLC = 0x40 | 0x00 | 0x04;
     19c:	84 e4       	ldi	r24, 0x44	; 68
     19e:	80 93 02 06 	sts	0x0602, r24	; 0x800602 <__TEXT_REGION_LENGTH__+0x7f4602>
C:\Users\mathiasc\AppData\Local\Temp\arduino_build_312787\sketch/TEMP_190409.cpp:167
   ADC0.CTRLD = ADC0.CTRLD | 0x40 ; //32us * 0.625MHz = 20 , setting 32
     1a2:	80 91 03 06 	lds	r24, 0x0603	; 0x800603 <__TEXT_REGION_LENGTH__+0x7f4603>
     1a6:	80 64       	ori	r24, 0x40	; 64
     1a8:	80 93 03 06 	sts	0x0603, r24	; 0x800603 <__TEXT_REGION_LENGTH__+0x7f4603>
C:\Users\mathiasc\AppData\Local\Temp\arduino_build_312787\sketch/TEMP_190409.cpp:168
   ADC0.SAMPCTRL = 24;
     1ac:	88 e1       	ldi	r24, 0x18	; 24
     1ae:	80 93 05 06 	sts	0x0605, r24	; 0x800605 <__TEXT_REGION_LENGTH__+0x7f4605>
C:\Users\mathiasc\AppData\Local\Temp\arduino_build_312787\sketch/TEMP_190409.cpp:169
   ADC0.MUXPOS = 0x1E;
     1b2:	8e e1       	ldi	r24, 0x1E	; 30
     1b4:	80 93 06 06 	sts	0x0606, r24	; 0x800606 <__TEXT_REGION_LENGTH__+0x7f4606>
C:\Users\mathiasc\AppData\Local\Temp\arduino_build_312787\sketch/TEMP_190409.cpp:172

   /* Start conversion */
	ADC0.COMMAND = ADC_STCONV_bm;
     1b8:	81 e0       	ldi	r24, 0x01	; 1
     1ba:	80 93 08 06 	sts	0x0608, r24	; 0x800608 <__TEXT_REGION_LENGTH__+0x7f4608>
C:\Users\mathiasc\AppData\Local\Temp\arduino_build_312787\sketch/TEMP_190409.cpp:175

	/* Wait for result ready */
	while(!(ADC0.INTFLAGS & ADC_RESRDY_bm));
     1be:	80 91 0b 06 	lds	r24, 0x060B	; 0x80060b <__TEXT_REGION_LENGTH__+0x7f460b>
     1c2:	80 ff       	sbrs	r24, 0
     1c4:	fc cf       	rjmp	.-8      	; 0x1be <TEMP_190409::GetOnchipTempKelvin() [clone .constprop.45]+0x46>
C:\Users\mathiasc\AppData\Local\Temp\arduino_build_312787\sketch/TEMP_190409.cpp:178

	/* Save state */
	uint8_t status = SREG;
     1c6:	8f b7       	in	r24, 0x3f	; 63
C:\Users\mathiasc\AppData\Local\Temp\arduino_build_312787\sketch/TEMP_190409.cpp:179
	cli();
     1c8:	f8 94       	cli
C:\Users\mathiasc\AppData\Local\Temp\arduino_build_312787\sketch/TEMP_190409.cpp:182
   uint8_t low, high;
	/* Read result */
	low = ADC0.RESL;
     1ca:	90 91 10 06 	lds	r25, 0x0610	; 0x800610 <__TEXT_REGION_LENGTH__+0x7f4610>
C:\Users\mathiasc\AppData\Local\Temp\arduino_build_312787\sketch/TEMP_190409.cpp:183
	high = ADC0.RESH;
     1ce:	20 91 11 06 	lds	r18, 0x0611	; 0x800611 <__TEXT_REGION_LENGTH__+0x7f4611>
C:\Users\mathiasc\AppData\Local\Temp\arduino_build_312787\sketch/TEMP_190409.cpp:186

	/* Restore state */
	SREG = status;
     1d2:	8f bf       	out	0x3f, r24	; 63
C:\Users\mathiasc\AppData\Local\Temp\arduino_build_312787\sketch/TEMP_190409.cpp:188

   ADC0.CTRLC = RegTempCTRLC;
     1d4:	e0 93 02 06 	sts	0x0602, r30	; 0x800602 <__TEXT_REGION_LENGTH__+0x7f4602>
C:\Users\mathiasc\AppData\Local\Temp\arduino_build_312787\sketch/TEMP_190409.cpp:189
   ADC0.CTRLD = RegTempCTRLD;
     1d8:	70 93 03 06 	sts	0x0603, r23	; 0x800603 <__TEXT_REGION_LENGTH__+0x7f4603>
C:\Users\mathiasc\AppData\Local\Temp\arduino_build_312787\sketch/TEMP_190409.cpp:190
   ADC0.SAMPCTRL = RegTempSAMPLECTRL;
     1dc:	60 93 05 06 	sts	0x0605, r22	; 0x800605 <__TEXT_REGION_LENGTH__+0x7f4605>
C:\Users\mathiasc\AppData\Local\Temp\arduino_build_312787\sketch/TEMP_190409.cpp:191
   ADC0.MUXPOS = RegTempMUXPOS;
     1e0:	50 93 06 06 	sts	0x0606, r21	; 0x800606 <__TEXT_REGION_LENGTH__+0x7f4606>
C:\Users\mathiasc\AppData\Local\Temp\arduino_build_312787\sketch/TEMP_190409.cpp:193

    VREF.CTRLA = RegTempVREFCrtA;
     1e4:	40 93 a0 00 	sts	0x00A0, r20	; 0x8000a0 <__TEXT_REGION_LENGTH__+0x7f40a0>
C:\Users\mathiasc\AppData\Local\Temp\arduino_build_312787\sketch/TEMP_190409.cpp:194
    VREF.CTRLB = RegTempVREFCrtB;
     1e8:	30 93 a1 00 	sts	0x00A1, r19	; 0x8000a1 <__TEXT_REGION_LENGTH__+0x7f40a1>
C:\Users\mathiasc\AppData\Local\Temp\arduino_build_312787\sketch/TEMP_190409.cpp:196
   
   int8_t sigrow_offset = SIGROW.TEMPSENSE1; // Read signed value from signature row
     1ec:	80 91 21 11 	lds	r24, 0x1121	; 0x801121 <__TEXT_REGION_LENGTH__+0x7f5121>
C:\Users\mathiasc\AppData\Local\Temp\arduino_build_312787\sketch/TEMP_190409.cpp:197
   uint8_t sigrow_gain = SIGROW.TEMPSENSE0;  // Read unsigned value from signature row
     1f0:	a0 91 20 11 	lds	r26, 0x1120	; 0x801120 <__TEXT_REGION_LENGTH__+0x7f5120>
C:\Users\mathiasc\AppData\Local\Temp\arduino_build_312787\sketch/TEMP_190409.cpp:198
   uint16_t adc_reading = (high << 8) | low; // ADC conversion result with 1.1 V internal reference 
     1f4:	32 2f       	mov	r19, r18
     1f6:	29 2f       	mov	r18, r25
C:\Users\mathiasc\AppData\Local\Temp\arduino_build_312787\sketch/TEMP_190409.cpp:199
   uint32_t temp = adc_reading - sigrow_offset;temp *= sigrow_gain; // Result might overflow 16 bit variable (10bit+8bit)
     1f8:	28 1b       	sub	r18, r24
     1fa:	31 09       	sbc	r19, r1
     1fc:	87 fd       	sbrc	r24, 7
     1fe:	33 95       	inc	r19
     200:	b0 e0       	ldi	r27, 0x00	; 0
     202:	0e 94 69 1b 	call	0x36d2	; 0x36d2 <__umulhisi3>
C:\Users\mathiasc\AppData\Local\Temp\arduino_build_312787\sketch/TEMP_190409.cpp:200
   temp += 0x80; // Add 1/2 to get correct rounding on division below
     206:	dc 01       	movw	r26, r24
     208:	cb 01       	movw	r24, r22
     20a:	80 58       	subi	r24, 0x80	; 128
     20c:	9f 4f       	sbci	r25, 0xFF	; 255
     20e:	af 4f       	sbci	r26, 0xFF	; 255
     210:	bf 4f       	sbci	r27, 0xFF	; 255
C:\Users\mathiasc\AppData\Local\Temp\arduino_build_312787\sketch/TEMP_190409.cpp:201
   temp >>= 8; // Divide result to get Kelvin
     212:	89 2f       	mov	r24, r25
     214:	9a 2f       	mov	r25, r26
     216:	ab 2f       	mov	r26, r27
     218:	bb 27       	eor	r27, r27
C:\Users\mathiasc\AppData\Local\Temp\arduino_build_312787\sketch/TEMP_190409.cpp:206
   uint16_t temperature_in_K = temp;
   return temperature_in_K;
   //The value deliverd is about 7 degree about surrounding ....
   
}
     21a:	08 95       	ret

0000021c <OneWire::reset_search() [clone .constprop.43]>:
_ZN7OneWire12reset_searchEv.constprop.43():
C:\Users\mathiasc\Documents\Arduino\libraries\OneWire/OneWire.cpp:330
// You do not need to do it for the first search, though you could.
//
void OneWire::reset_search()
{
  // reset the search state
  LastDiscrepancy = 0;
     21c:	ec e4       	ldi	r30, 0x4C	; 76
     21e:	f9 e2       	ldi	r31, 0x29	; 41
     220:	13 86       	std	Z+11, r1	; 0x0b
C:\Users\mathiasc\Documents\Arduino\libraries\OneWire/OneWire.cpp:331
  LastDeviceFlag = false;
     222:	15 86       	std	Z+13, r1	; 0x0d
C:\Users\mathiasc\Documents\Arduino\libraries\OneWire/OneWire.cpp:332
  LastFamilyDiscrepancy = 0;
     224:	14 86       	std	Z+12, r1	; 0x0c
C:\Users\mathiasc\Documents\Arduino\libraries\OneWire/OneWire.cpp:334
  for(int i = 7; ; i--) {
    ROM_NO[i] = 0;
     226:	12 86       	std	Z+10, r1	; 0x0a
     228:	11 86       	std	Z+9, r1	; 0x09
     22a:	10 86       	std	Z+8, r1	; 0x08
     22c:	17 82       	std	Z+7, r1	; 0x07
     22e:	16 82       	std	Z+6, r1	; 0x06
     230:	15 82       	std	Z+5, r1	; 0x05
     232:	14 82       	std	Z+4, r1	; 0x04
     234:	13 82       	std	Z+3, r1	; 0x03
C:\Users\mathiasc\Documents\Arduino\libraries\OneWire/OneWire.cpp:337
    if ( i == 0) break;
  }
}
     236:	08 95       	ret

00000238 <FE_190409::display_dim(bool)>:
_ZN9FE_19040914display_invertEb():
C:\Users\mathiasc\AppData\Local\Temp\arduino_build_312787\sketch/frontend_190408.cpp:128
 Output:      None
 Discription: inverts the display
**********************************************************************************************************/
void FE_190409::display_invert( bool invert ) {
    //Not used for this Hardware
}
     238:	08 95       	ret

0000023a <PWM_190409::On(unsigned int)>:
_ZN10PWM_1904092OnEj():
C:\Users\mathiasc\AppData\Local\Temp\arduino_build_312787\sketch/PWM_190409.cpp:13
 Input:       uint16_t value
 Output:      None
 Discription: Sets the PWM to the given value, is the value is zero, this turns the PWM off
**********************************************************************************************************/
void PWM_190409::On( uint16_t value ){
    if(value ==0)
     23a:	61 15       	cp	r22, r1
     23c:	71 05       	cpc	r23, r1
     23e:	39 f4       	brne	.+14     	; 0x24e <PWM_190409::On(unsigned int)+0x14>
C:\Users\mathiasc\AppData\Local\Temp\arduino_build_312787\sketch/PWM_190409.cpp:15
    {
      Off();
     240:	dc 01       	movw	r26, r24
     242:	ed 91       	ld	r30, X+
     244:	fc 91       	ld	r31, X
     246:	02 80       	ldd	r0, Z+2	; 0x02
     248:	f3 81       	ldd	r31, Z+3	; 0x03
     24a:	e0 2d       	mov	r30, r0
     24c:	09 94       	ijmp
     24e:	61 15       	cp	r22, r1
     250:	b8 e0       	ldi	r27, 0x08	; 8
     252:	7b 07       	cpc	r23, r27
     254:	10 f0       	brcs	.+4      	; 0x25a <PWM_190409::On(unsigned int)+0x20>
     256:	6f ef       	ldi	r22, 0xFF	; 255
     258:	77 e0       	ldi	r23, 0x07	; 7
C:\Users\mathiasc\AppData\Local\Temp\arduino_build_312787\sketch/PWM_190409.cpp:22
    } else {
    
      if(value >= 0x800 ){
        value = 0x07FF;
      }
      TCA0.SINGLE.CMP0BUF = value&0x07FF; //Clip value to 11Bit
     25a:	60 93 38 0a 	sts	0x0A38, r22	; 0x800a38 <__TEXT_REGION_LENGTH__+0x7f4a38>
     25e:	70 93 39 0a 	sts	0x0A39, r23	; 0x800a39 <__TEXT_REGION_LENGTH__+0x7f4a39>
C:\Users\mathiasc\AppData\Local\Temp\arduino_build_312787\sketch/PWM_190409.cpp:25
     
    }
}
     262:	08 95       	ret

00000264 <PWM_190409::Off()>:
_ZN10PWM_1904093OffEv():
C:\Users\mathiasc\AppData\Local\Temp\arduino_build_312787\sketch/PWM_190409.cpp:38
 Discription: Turns the PWM off
**********************************************************************************************************/
void PWM_190409::Off( void ) {

  //Disable PWM
  TCA0.SINGLE.CMP0BUF=0;
     264:	10 92 38 0a 	sts	0x0A38, r1	; 0x800a38 <__TEXT_REGION_LENGTH__+0x7f4a38>
     268:	10 92 39 0a 	sts	0x0A39, r1	; 0x800a39 <__TEXT_REGION_LENGTH__+0x7f4a39>
C:\Users\mathiasc\AppData\Local\Temp\arduino_build_312787\sketch/PWM_190409.cpp:40

}  
     26c:	08 95       	ret

0000026e <Print::write(unsigned char const*, unsigned int)>:
_ZN5Print5writeEPKhj():
C:\Users\mathiasc\AppData\Local\Arduino15\packages\MegaCoreX\hardware\megaavr\1.0.4\cores\coreX-corefiles\api/Print.cpp:30

// Public Methods //////////////////////////////////////////////////////////////

/* default implementation: may be overridden */
size_t Print::write(const uint8_t *buffer, size_t size)
{
     26e:	af 92       	push	r10
     270:	bf 92       	push	r11
     272:	cf 92       	push	r12
     274:	df 92       	push	r13
     276:	ef 92       	push	r14
     278:	ff 92       	push	r15
     27a:	0f 93       	push	r16
     27c:	1f 93       	push	r17
     27e:	cf 93       	push	r28
     280:	df 93       	push	r29
     282:	6c 01       	movw	r12, r24
     284:	7b 01       	movw	r14, r22
     286:	8b 01       	movw	r16, r22
     288:	04 0f       	add	r16, r20
     28a:	15 1f       	adc	r17, r21
     28c:	eb 01       	movw	r28, r22
     28e:	5e 01       	movw	r10, r28
     290:	ae 18       	sub	r10, r14
     292:	bf 08       	sbc	r11, r15
C:\Users\mathiasc\AppData\Local\Arduino15\packages\MegaCoreX\hardware\megaavr\1.0.4\cores\coreX-corefiles\api/Print.cpp:32
  size_t n = 0;
  while (size--)
     294:	c0 17       	cp	r28, r16
     296:	d1 07       	cpc	r29, r17
     298:	59 f0       	breq	.+22     	; 0x2b0 <Print::write(unsigned char const*, unsigned int)+0x42>
C:\Users\mathiasc\AppData\Local\Arduino15\packages\MegaCoreX\hardware\megaavr\1.0.4\cores\coreX-corefiles\api/Print.cpp:34
  {
    if (write(*buffer++))
     29a:	69 91       	ld	r22, Y+
     29c:	d6 01       	movw	r26, r12
     29e:	ed 91       	ld	r30, X+
     2a0:	fc 91       	ld	r31, X
     2a2:	01 90       	ld	r0, Z+
     2a4:	f0 81       	ld	r31, Z
     2a6:	e0 2d       	mov	r30, r0
     2a8:	c6 01       	movw	r24, r12
     2aa:	09 95       	icall
     2ac:	89 2b       	or	r24, r25
     2ae:	79 f7       	brne	.-34     	; 0x28e <Print::write(unsigned char const*, unsigned int)+0x20>
C:\Users\mathiasc\AppData\Local\Arduino15\packages\MegaCoreX\hardware\megaavr\1.0.4\cores\coreX-corefiles\api/Print.cpp:40
      n++;
    else
      break;
  }
  return n;
}
     2b0:	c5 01       	movw	r24, r10
     2b2:	df 91       	pop	r29
     2b4:	cf 91       	pop	r28
     2b6:	1f 91       	pop	r17
     2b8:	0f 91       	pop	r16
     2ba:	ff 90       	pop	r15
     2bc:	ef 90       	pop	r14
     2be:	df 90       	pop	r13
     2c0:	cf 90       	pop	r12
     2c2:	bf 90       	pop	r11
     2c4:	af 90       	pop	r10
     2c6:	08 95       	ret

000002c8 <UartClass::availableForWrite()>:
_ZN9UartClass17availableForWriteEv():
C:\Users\mathiasc\AppData\Local\Arduino15\packages\MegaCoreX\hardware\megaavr\1.0.4\cores\coreX-corefiles/UART.cpp:295
  tx_buffer_index_t head;
  tx_buffer_index_t tail;

  TX_BUFFER_ATOMIC
  {
    head = _tx_buffer_head;
     2c8:	fc 01       	movw	r30, r24
     2ca:	50 8d       	ldd	r21, Z+24	; 0x18
C:\Users\mathiasc\AppData\Local\Arduino15\packages\MegaCoreX\hardware\megaavr\1.0.4\cores\coreX-corefiles/UART.cpp:296
    tail = _tx_buffer_tail;
     2cc:	41 8d       	ldd	r20, Z+25	; 0x19
     2ce:	25 2f       	mov	r18, r21
     2d0:	30 e0       	ldi	r19, 0x00	; 0
     2d2:	84 2f       	mov	r24, r20
     2d4:	90 e0       	ldi	r25, 0x00	; 0
C:\Users\mathiasc\AppData\Local\Arduino15\packages\MegaCoreX\hardware\megaavr\1.0.4\cores\coreX-corefiles/UART.cpp:298
  }
  if (head >= tail) return SERIAL_TX_BUFFER_SIZE - 1 - head + tail;
     2d6:	82 1b       	sub	r24, r18
     2d8:	93 0b       	sbc	r25, r19
     2da:	54 17       	cp	r21, r20
     2dc:	10 f0       	brcs	.+4      	; 0x2e2 <UartClass::availableForWrite()+0x1a>
     2de:	cf 96       	adiw	r24, 0x3f	; 63
     2e0:	08 95       	ret
C:\Users\mathiasc\AppData\Local\Arduino15\packages\MegaCoreX\hardware\megaavr\1.0.4\cores\coreX-corefiles/UART.cpp:299
  return tail - head - 1;
     2e2:	01 97       	sbiw	r24, 0x01	; 1
C:\Users\mathiasc\AppData\Local\Arduino15\packages\MegaCoreX\hardware\megaavr\1.0.4\cores\coreX-corefiles/UART.cpp:300
}
     2e4:	08 95       	ret

000002e6 <UartClass::read()>:
_ZN9UartClass4readEv():
C:\Users\mathiasc\AppData\Local\Arduino15\packages\MegaCoreX\hardware\megaavr\1.0.4\cores\coreX-corefiles/UART.cpp:274
    return _rx_buffer[_rx_buffer_tail];
  }
}

int UartClass::read(void)
{
     2e6:	fc 01       	movw	r30, r24
C:\Users\mathiasc\AppData\Local\Arduino15\packages\MegaCoreX\hardware\megaavr\1.0.4\cores\coreX-corefiles/UART.cpp:276
  // if the head isn't ahead of the tail, we don't have any characters
  if (_rx_buffer_head == _rx_buffer_tail)
     2e8:	96 89       	ldd	r25, Z+22	; 0x16
     2ea:	87 89       	ldd	r24, Z+23	; 0x17
     2ec:	98 17       	cp	r25, r24
     2ee:	61 f0       	breq	.+24     	; 0x308 <UartClass::read()+0x22>
C:\Users\mathiasc\AppData\Local\Arduino15\packages\MegaCoreX\hardware\megaavr\1.0.4\cores\coreX-corefiles/UART.cpp:282
  {
    return -1;
  }
  else
  {
    unsigned char c = _rx_buffer[_rx_buffer_tail];
     2f0:	a7 89       	ldd	r26, Z+23	; 0x17
     2f2:	ae 0f       	add	r26, r30
     2f4:	bf 2f       	mov	r27, r31
     2f6:	b1 1d       	adc	r27, r1
     2f8:	5d 96       	adiw	r26, 0x1d	; 29
     2fa:	8c 91       	ld	r24, X
C:\Users\mathiasc\AppData\Local\Arduino15\packages\MegaCoreX\hardware\megaavr\1.0.4\cores\coreX-corefiles/UART.cpp:283
    _rx_buffer_tail = (rx_buffer_index_t)(_rx_buffer_tail + 1) % SERIAL_RX_BUFFER_SIZE;
     2fc:	97 89       	ldd	r25, Z+23	; 0x17
     2fe:	9f 5f       	subi	r25, 0xFF	; 255
     300:	9f 73       	andi	r25, 0x3F	; 63
     302:	97 8b       	std	Z+23, r25	; 0x17
C:\Users\mathiasc\AppData\Local\Arduino15\packages\MegaCoreX\hardware\megaavr\1.0.4\cores\coreX-corefiles/UART.cpp:284
    return c;
     304:	90 e0       	ldi	r25, 0x00	; 0
     306:	08 95       	ret
C:\Users\mathiasc\AppData\Local\Arduino15\packages\MegaCoreX\hardware\megaavr\1.0.4\cores\coreX-corefiles/UART.cpp:278
int UartClass::read(void)
{
  // if the head isn't ahead of the tail, we don't have any characters
  if (_rx_buffer_head == _rx_buffer_tail)
  {
    return -1;
     308:	8f ef       	ldi	r24, 0xFF	; 255
     30a:	9f ef       	ldi	r25, 0xFF	; 255
C:\Users\mathiasc\AppData\Local\Arduino15\packages\MegaCoreX\hardware\megaavr\1.0.4\cores\coreX-corefiles/UART.cpp:286
  {
    unsigned char c = _rx_buffer[_rx_buffer_tail];
    _rx_buffer_tail = (rx_buffer_index_t)(_rx_buffer_tail + 1) % SERIAL_RX_BUFFER_SIZE;
    return c;
  }
}
     30c:	08 95       	ret

0000030e <UartClass::peek()>:
_ZN9UartClass4peekEv():
C:\Users\mathiasc\AppData\Local\Arduino15\packages\MegaCoreX\hardware\megaavr\1.0.4\cores\coreX-corefiles/UART.cpp:262
{
  return ((unsigned int)(SERIAL_RX_BUFFER_SIZE + _rx_buffer_head - _rx_buffer_tail)) % SERIAL_RX_BUFFER_SIZE;
}

int UartClass::peek(void)
{
     30e:	fc 01       	movw	r30, r24
C:\Users\mathiasc\AppData\Local\Arduino15\packages\MegaCoreX\hardware\megaavr\1.0.4\cores\coreX-corefiles/UART.cpp:263
  if (_rx_buffer_head == _rx_buffer_tail)
     310:	96 89       	ldd	r25, Z+22	; 0x16
     312:	87 89       	ldd	r24, Z+23	; 0x17
     314:	98 17       	cp	r25, r24
     316:	31 f0       	breq	.+12     	; 0x324 <UartClass::peek()+0x16>
C:\Users\mathiasc\AppData\Local\Arduino15\packages\MegaCoreX\hardware\megaavr\1.0.4\cores\coreX-corefiles/UART.cpp:269
  {
    return -1;
  }
  else
  {
    return _rx_buffer[_rx_buffer_tail];
     318:	87 89       	ldd	r24, Z+23	; 0x17
     31a:	e8 0f       	add	r30, r24
     31c:	f1 1d       	adc	r31, r1
     31e:	85 8d       	ldd	r24, Z+29	; 0x1d
     320:	90 e0       	ldi	r25, 0x00	; 0
     322:	08 95       	ret
C:\Users\mathiasc\AppData\Local\Arduino15\packages\MegaCoreX\hardware\megaavr\1.0.4\cores\coreX-corefiles/UART.cpp:265

int UartClass::peek(void)
{
  if (_rx_buffer_head == _rx_buffer_tail)
  {
    return -1;
     324:	8f ef       	ldi	r24, 0xFF	; 255
     326:	9f ef       	ldi	r25, 0xFF	; 255
C:\Users\mathiasc\AppData\Local\Arduino15\packages\MegaCoreX\hardware\megaavr\1.0.4\cores\coreX-corefiles/UART.cpp:271
  }
  else
  {
    return _rx_buffer[_rx_buffer_tail];
  }
}
     328:	08 95       	ret

0000032a <UartClass::available()>:
_ZN9UartClass9availableEv():
C:\Users\mathiasc\AppData\Local\Arduino15\packages\MegaCoreX\hardware\megaavr\1.0.4\cores\coreX-corefiles/UART.cpp:257
  // Note: Does not change output pins
  _written = false;
}

int UartClass::available(void)
{
     32a:	fc 01       	movw	r30, r24
C:\Users\mathiasc\AppData\Local\Arduino15\packages\MegaCoreX\hardware\megaavr\1.0.4\cores\coreX-corefiles/UART.cpp:258
  return ((unsigned int)(SERIAL_RX_BUFFER_SIZE + _rx_buffer_head - _rx_buffer_tail)) % SERIAL_RX_BUFFER_SIZE;
     32c:	96 89       	ldd	r25, Z+22	; 0x16
     32e:	27 89       	ldd	r18, Z+23	; 0x17
     330:	89 2f       	mov	r24, r25
     332:	90 e0       	ldi	r25, 0x00	; 0
     334:	80 5c       	subi	r24, 0xC0	; 192
     336:	9f 4f       	sbci	r25, 0xFF	; 255
     338:	82 1b       	sub	r24, r18
     33a:	91 09       	sbc	r25, r1
C:\Users\mathiasc\AppData\Local\Arduino15\packages\MegaCoreX\hardware\megaavr\1.0.4\cores\coreX-corefiles/UART.cpp:259
}
     33c:	8f 73       	andi	r24, 0x3F	; 63
     33e:	99 27       	eor	r25, r25
     340:	08 95       	ret

00000342 <Serial0_available()>:
_Z17Serial0_availablev():
C:\Users\mathiasc\AppData\Local\Arduino15\packages\MegaCoreX\hardware\megaavr\1.0.4\cores\coreX-corefiles/UART0.cpp:65

// Function that can be weakly referenced by serialEventRun to prevent
// pulling in this file if it's not otherwise used.
bool Serial0_available()
{
  return Serial.available();
     342:	87 ea       	ldi	r24, 0xA7	; 167
     344:	98 e2       	ldi	r25, 0x28	; 40
     346:	0e 94 95 01 	call	0x32a	; 0x32a <UartClass::available()>
     34a:	21 e0       	ldi	r18, 0x01	; 1
     34c:	89 2b       	or	r24, r25
     34e:	09 f4       	brne	.+2      	; 0x352 <Serial0_available()+0x10>
     350:	20 e0       	ldi	r18, 0x00	; 0
C:\Users\mathiasc\AppData\Local\Arduino15\packages\MegaCoreX\hardware\megaavr\1.0.4\cores\coreX-corefiles/UART0.cpp:66
}
     352:	82 2f       	mov	r24, r18
     354:	08 95       	ret

00000356 <UartClass::end()>:
_ZN9UartClass3endEv():
C:\Users\mathiasc\AppData\Local\Arduino15\packages\MegaCoreX\hardware\megaavr\1.0.4\cores\coreX-corefiles/UART.cpp:240
  // Restore SREG content
  SREG = oldSREG;
}

void UartClass::end()
{
     356:	cf 93       	push	r28
     358:	df 93       	push	r29
     35a:	ec 01       	movw	r28, r24
C:\Users\mathiasc\AppData\Local\Arduino15\packages\MegaCoreX\hardware\megaavr\1.0.4\cores\coreX-corefiles/UART.cpp:242
  // wait for transmission of outgoing data
  flush();
     35c:	e8 81       	ld	r30, Y
     35e:	f9 81       	ldd	r31, Y+1	; 0x01
     360:	06 80       	ldd	r0, Z+6	; 0x06
     362:	f7 81       	ldd	r31, Z+7	; 0x07
     364:	e0 2d       	mov	r30, r0
     366:	09 95       	icall
C:\Users\mathiasc\AppData\Local\Arduino15\packages\MegaCoreX\hardware\megaavr\1.0.4\cores\coreX-corefiles/UART.cpp:246

  // Disable receiver and transmitter as well as the RX complete and
  // data register empty interrupts.
  (*_hwserial_module).CTRLB &= ~(USART_RXEN_bm | USART_TXEN_bm);
     368:	ec 85       	ldd	r30, Y+12	; 0x0c
     36a:	fd 85       	ldd	r31, Y+13	; 0x0d
     36c:	86 81       	ldd	r24, Z+6	; 0x06
     36e:	8f 73       	andi	r24, 0x3F	; 63
     370:	86 83       	std	Z+6, r24	; 0x06
C:\Users\mathiasc\AppData\Local\Arduino15\packages\MegaCoreX\hardware\megaavr\1.0.4\cores\coreX-corefiles/UART.cpp:247
  (*_hwserial_module).CTRLA &= ~(USART_RXCIE_bm | USART_DREIE_bm);
     372:	ec 85       	ldd	r30, Y+12	; 0x0c
     374:	fd 85       	ldd	r31, Y+13	; 0x0d
     376:	85 81       	ldd	r24, Z+5	; 0x05
     378:	8f 75       	andi	r24, 0x5F	; 95
     37a:	85 83       	std	Z+5, r24	; 0x05
C:\Users\mathiasc\AppData\Local\Arduino15\packages\MegaCoreX\hardware\megaavr\1.0.4\cores\coreX-corefiles/UART.cpp:250

  // clear any received data
  _rx_buffer_head = _rx_buffer_tail;
     37c:	8f 89       	ldd	r24, Y+23	; 0x17
     37e:	8e 8b       	std	Y+22, r24	; 0x16
C:\Users\mathiasc\AppData\Local\Arduino15\packages\MegaCoreX\hardware\megaavr\1.0.4\cores\coreX-corefiles/UART.cpp:253

  // Note: Does not change output pins
  _written = false;
     380:	1d 8a       	std	Y+21, r1	; 0x15
C:\Users\mathiasc\AppData\Local\Arduino15\packages\MegaCoreX\hardware\megaavr\1.0.4\cores\coreX-corefiles/UART.cpp:254
}
     382:	df 91       	pop	r29
     384:	cf 91       	pop	r28
     386:	08 95       	ret

00000388 <UartClass::swap(unsigned char)>:
_ZN9UartClass4swapEh():
C:\Users\mathiasc\AppData\Local\Arduino15\packages\MegaCoreX\hardware\megaavr\1.0.4\cores\coreX-corefiles/UART.cpp:161
  _pin_set = 0; // Default to standard
  return false;
}

bool UartClass::swap(uint8_t state)
{
     388:	fc 01       	movw	r30, r24
C:\Users\mathiasc\AppData\Local\Arduino15\packages\MegaCoreX\hardware\megaavr\1.0.4\cores\coreX-corefiles/UART.cpp:162
  if (state == 1) // Use alternative pin position
     38a:	61 30       	cpi	r22, 0x01	; 1
     38c:	19 f4       	brne	.+6      	; 0x394 <UartClass::swap(unsigned char)+0xc>
C:\Users\mathiasc\AppData\Local\Arduino15\packages\MegaCoreX\hardware\megaavr\1.0.4\cores\coreX-corefiles/UART.cpp:164
  {
    _pin_set = state;
     38e:	64 8b       	std	Z+20, r22	; 0x14
C:\Users\mathiasc\AppData\Local\Arduino15\packages\MegaCoreX\hardware\megaavr\1.0.4\cores\coreX-corefiles/UART.cpp:170
    return true;
  }
  else if (state == 0) // Use default pin position
  {
    _pin_set = 0;
    return true;
     390:	81 e0       	ldi	r24, 0x01	; 1
     392:	08 95       	ret
C:\Users\mathiasc\AppData\Local\Arduino15\packages\MegaCoreX\hardware\megaavr\1.0.4\cores\coreX-corefiles/UART.cpp:169
    _pin_set = state;
    return true;
  }
  else if (state == 0) // Use default pin position
  {
    _pin_set = 0;
     394:	14 8a       	std	Z+20, r1	; 0x14
C:\Users\mathiasc\AppData\Local\Arduino15\packages\MegaCoreX\hardware\megaavr\1.0.4\cores\coreX-corefiles/UART.cpp:167
  if (state == 1) // Use alternative pin position
  {
    _pin_set = state;
    return true;
  }
  else if (state == 0) // Use default pin position
     396:	66 23       	and	r22, r22
     398:	d9 f3       	breq	.-10     	; 0x390 <UartClass::swap(unsigned char)+0x8>
C:\Users\mathiasc\AppData\Local\Arduino15\packages\MegaCoreX\hardware\megaavr\1.0.4\cores\coreX-corefiles/UART.cpp:175
    return true;
  }
  else // Invalid swap value. Use default position
  {
    _pin_set = 0;
    return false;
     39a:	80 e0       	ldi	r24, 0x00	; 0
C:\Users\mathiasc\AppData\Local\Arduino15\packages\MegaCoreX\hardware\megaavr\1.0.4\cores\coreX-corefiles/UART.cpp:177
  }
}
     39c:	08 95       	ret

0000039e <UartClass::pins(unsigned char, unsigned char)>:
_ZN9UartClass4pinsEhh():
C:\Users\mathiasc\AppData\Local\Arduino15\packages\MegaCoreX\hardware\megaavr\1.0.4\cores\coreX-corefiles/UART.cpp:147

// Public Methods //////////////////////////////////////////////////////////////

// Invoke this function before 'begin' to define the pins used
bool UartClass::pins(uint8_t tx, uint8_t rx)
{
     39e:	dc 01       	movw	r26, r24
C:\Users\mathiasc\AppData\Local\Arduino15\packages\MegaCoreX\hardware\megaavr\1.0.4\cores\coreX-corefiles/UART.cpp:148
  for (_pin_set = 0; _pin_set < SERIAL_PIN_SETS; ++_pin_set)
     3a0:	54 96       	adiw	r26, 0x14	; 20
     3a2:	1c 92       	st	X, r1
     3a4:	54 97       	sbiw	r26, 0x14	; 20
     3a6:	54 96       	adiw	r26, 0x14	; 20
     3a8:	8c 91       	ld	r24, X
     3aa:	54 97       	sbiw	r26, 0x14	; 20
     3ac:	82 30       	cpi	r24, 0x02	; 2
     3ae:	a0 f4       	brcc	.+40     	; 0x3d8 <UartClass::pins(unsigned char, unsigned char)+0x3a>
C:\Users\mathiasc\AppData\Local\Arduino15\packages\MegaCoreX\hardware\megaavr\1.0.4\cores\coreX-corefiles/UART.cpp:150
  {
    if (tx == _hw_set[_pin_set].tx_pin && rx == _hw_set[_pin_set].rx_pin)
     3b0:	28 2f       	mov	r18, r24
     3b2:	30 e0       	ldi	r19, 0x00	; 0
     3b4:	f9 01       	movw	r30, r18
     3b6:	ee 0f       	add	r30, r30
     3b8:	ff 1f       	adc	r31, r31
     3ba:	e2 0f       	add	r30, r18
     3bc:	f3 1f       	adc	r31, r19
     3be:	ea 0f       	add	r30, r26
     3c0:	fb 1f       	adc	r31, r27
     3c2:	97 85       	ldd	r25, Z+15	; 0x0f
     3c4:	96 13       	cpse	r25, r22
     3c6:	03 c0       	rjmp	.+6      	; 0x3ce <UartClass::pins(unsigned char, unsigned char)+0x30>
     3c8:	96 85       	ldd	r25, Z+14	; 0x0e
     3ca:	94 17       	cp	r25, r20
     3cc:	49 f0       	breq	.+18     	; 0x3e0 <UartClass::pins(unsigned char, unsigned char)+0x42>
C:\Users\mathiasc\AppData\Local\Arduino15\packages\MegaCoreX\hardware\megaavr\1.0.4\cores\coreX-corefiles/UART.cpp:148
// Public Methods //////////////////////////////////////////////////////////////

// Invoke this function before 'begin' to define the pins used
bool UartClass::pins(uint8_t tx, uint8_t rx)
{
  for (_pin_set = 0; _pin_set < SERIAL_PIN_SETS; ++_pin_set)
     3ce:	8f 5f       	subi	r24, 0xFF	; 255
     3d0:	54 96       	adiw	r26, 0x14	; 20
     3d2:	8c 93       	st	X, r24
     3d4:	54 97       	sbiw	r26, 0x14	; 20
     3d6:	e7 cf       	rjmp	.-50     	; 0x3a6 <UartClass::pins(unsigned char, unsigned char)+0x8>
C:\Users\mathiasc\AppData\Local\Arduino15\packages\MegaCoreX\hardware\megaavr\1.0.4\cores\coreX-corefiles/UART.cpp:156
    {
      // We are good, this set of pins is supported
      return true;
    }
  }
  _pin_set = 0; // Default to standard
     3d8:	54 96       	adiw	r26, 0x14	; 20
     3da:	1c 92       	st	X, r1
C:\Users\mathiasc\AppData\Local\Arduino15\packages\MegaCoreX\hardware\megaavr\1.0.4\cores\coreX-corefiles/UART.cpp:157
  return false;
     3dc:	80 e0       	ldi	r24, 0x00	; 0
     3de:	08 95       	ret
C:\Users\mathiasc\AppData\Local\Arduino15\packages\MegaCoreX\hardware\megaavr\1.0.4\cores\coreX-corefiles/UART.cpp:153
  for (_pin_set = 0; _pin_set < SERIAL_PIN_SETS; ++_pin_set)
  {
    if (tx == _hw_set[_pin_set].tx_pin && rx == _hw_set[_pin_set].rx_pin)
    {
      // We are good, this set of pins is supported
      return true;
     3e0:	81 e0       	ldi	r24, 0x01	; 1
C:\Users\mathiasc\AppData\Local\Arduino15\packages\MegaCoreX\hardware\megaavr\1.0.4\cores\coreX-corefiles/UART.cpp:158
    }
  }
  _pin_set = 0; // Default to standard
  return false;
}
     3e2:	08 95       	ret

000003e4 <UartClass::_tx_data_empty_irq()>:
_ZN9UartClass18_tx_data_empty_irqEv():
C:\Users\mathiasc\AppData\Local\Arduino15\packages\MegaCoreX\hardware\megaavr\1.0.4\cores\coreX-corefiles/UART.cpp:89
#endif

// Actual interrupt handlers //////////////////////////////////////////////////////////////

void UartClass::_tx_data_empty_irq(void)
{
     3e4:	cf 93       	push	r28
     3e6:	df 93       	push	r29
     3e8:	fc 01       	movw	r30, r24
C:\Users\mathiasc\AppData\Local\Arduino15\packages\MegaCoreX\hardware\megaavr\1.0.4\cores\coreX-corefiles/UART.cpp:91
  // Check if tx buffer already empty.
  if (_tx_buffer_head == _tx_buffer_tail)
     3ea:	90 8d       	ldd	r25, Z+24	; 0x18
     3ec:	81 8d       	ldd	r24, Z+25	; 0x19
     3ee:	c4 85       	ldd	r28, Z+12	; 0x0c
     3f0:	d5 85       	ldd	r29, Z+13	; 0x0d
     3f2:	98 13       	cpse	r25, r24
     3f4:	06 c0       	rjmp	.+12     	; 0x402 <__LOCK_REGION_LENGTH__+0x2>
C:\Users\mathiasc\AppData\Local\Arduino15\packages\MegaCoreX\hardware\megaavr\1.0.4\cores\coreX-corefiles/UART.cpp:94
  {
    // Buffer empty, so disable "data register empty" interrupt
    (*_hwserial_module).CTRLA &= (~USART_DREIE_bm);
     3f6:	8d 81       	ldd	r24, Y+5	; 0x05
     3f8:	8f 7d       	andi	r24, 0xDF	; 223
     3fa:	8d 83       	std	Y+5, r24	; 0x05
C:\Users\mathiasc\AppData\Local\Arduino15\packages\MegaCoreX\hardware\megaavr\1.0.4\cores\coreX-corefiles/UART.cpp:122
    {
      CPUINT.LVL1VEC = _prev_lvl1_interrupt_vect;
      _hwserial_dre_interrupt_elevated = 0;
    }
  }
}
     3fc:	df 91       	pop	r29
     3fe:	cf 91       	pop	r28
     400:	08 95       	ret
C:\Users\mathiasc\AppData\Local\Arduino15\packages\MegaCoreX\hardware\megaavr\1.0.4\cores\coreX-corefiles/UART.cpp:100
    return;
  }

  // There must be more data in the output
  // buffer. Send the next byte
  unsigned char c = _tx_buffer[_tx_buffer_tail];
     402:	a1 8d       	ldd	r26, Z+25	; 0x19
     404:	ae 0f       	add	r26, r30
     406:	bf 2f       	mov	r27, r31
     408:	b1 1d       	adc	r27, r1
     40a:	a3 5a       	subi	r26, 0xA3	; 163
     40c:	bf 4f       	sbci	r27, 0xFF	; 255
     40e:	2c 91       	ld	r18, X
C:\Users\mathiasc\AppData\Local\Arduino15\packages\MegaCoreX\hardware\megaavr\1.0.4\cores\coreX-corefiles/UART.cpp:101
  _tx_buffer_tail = (_tx_buffer_tail + 1) % SERIAL_TX_BUFFER_SIZE;
     410:	81 8d       	ldd	r24, Z+25	; 0x19
     412:	90 e0       	ldi	r25, 0x00	; 0
     414:	01 96       	adiw	r24, 0x01	; 1
     416:	8f 73       	andi	r24, 0x3F	; 63
     418:	99 27       	eor	r25, r25
     41a:	81 8f       	std	Z+25, r24	; 0x19
C:\Users\mathiasc\AppData\Local\Arduino15\packages\MegaCoreX\hardware\megaavr\1.0.4\cores\coreX-corefiles/UART.cpp:106

  // clear the TXCIF flag -- "can be cleared by writing a one to its bit
  // location". This makes sure flush() won't return until the bytes
  // actually got written
  (*_hwserial_module).STATUS = USART_TXCIF_bm;
     41c:	80 e4       	ldi	r24, 0x40	; 64
     41e:	8c 83       	std	Y+4, r24	; 0x04
C:\Users\mathiasc\AppData\Local\Arduino15\packages\MegaCoreX\hardware\megaavr\1.0.4\cores\coreX-corefiles/UART.cpp:108

  (*_hwserial_module).TXDATAL = c;
     420:	a4 85       	ldd	r26, Z+12	; 0x0c
     422:	b5 85       	ldd	r27, Z+13	; 0x0d
     424:	12 96       	adiw	r26, 0x02	; 2
     426:	2c 93       	st	X, r18
C:\Users\mathiasc\AppData\Local\Arduino15\packages\MegaCoreX\hardware\megaavr\1.0.4\cores\coreX-corefiles/UART.cpp:110

  if (_tx_buffer_head == _tx_buffer_tail)
     428:	90 8d       	ldd	r25, Z+24	; 0x18
     42a:	81 8d       	ldd	r24, Z+25	; 0x19
     42c:	98 13       	cpse	r25, r24
     42e:	e6 cf       	rjmp	.-52     	; 0x3fc <UartClass::_tx_data_empty_irq()+0x18>
C:\Users\mathiasc\AppData\Local\Arduino15\packages\MegaCoreX\hardware\megaavr\1.0.4\cores\coreX-corefiles/UART.cpp:113
  {
    // Buffer empty, so disable "data register empty" interrupt
    (*_hwserial_module).CTRLA &= (~USART_DREIE_bm);
     430:	a4 85       	ldd	r26, Z+12	; 0x0c
     432:	b5 85       	ldd	r27, Z+13	; 0x0d
     434:	15 96       	adiw	r26, 0x05	; 5
     436:	8c 91       	ld	r24, X
     438:	15 97       	sbiw	r26, 0x05	; 5
     43a:	8f 7d       	andi	r24, 0xDF	; 223
     43c:	15 96       	adiw	r26, 0x05	; 5
     43e:	8c 93       	st	X, r24
C:\Users\mathiasc\AppData\Local\Arduino15\packages\MegaCoreX\hardware\megaavr\1.0.4\cores\coreX-corefiles/UART.cpp:116

    //Take the DRE interrupt back no normal priority level if it has been elevated
    if (_hwserial_dre_interrupt_elevated)
     440:	83 8d       	ldd	r24, Z+27	; 0x1b
     442:	88 23       	and	r24, r24
     444:	d9 f2       	breq	.-74     	; 0x3fc <UartClass::_tx_data_empty_irq()+0x18>
C:\Users\mathiasc\AppData\Local\Arduino15\packages\MegaCoreX\hardware\megaavr\1.0.4\cores\coreX-corefiles/UART.cpp:118
    {
      CPUINT.LVL1VEC = _prev_lvl1_interrupt_vect;
     446:	84 8d       	ldd	r24, Z+28	; 0x1c
     448:	80 93 13 01 	sts	0x0113, r24	; 0x800113 <__TEXT_REGION_LENGTH__+0x7f4113>
C:\Users\mathiasc\AppData\Local\Arduino15\packages\MegaCoreX\hardware\megaavr\1.0.4\cores\coreX-corefiles/UART.cpp:119
      _hwserial_dre_interrupt_elevated = 0;
     44c:	13 8e       	std	Z+27, r1	; 0x1b
     44e:	d6 cf       	rjmp	.-84     	; 0x3fc <UartClass::_tx_data_empty_irq()+0x18>

00000450 <UartClass::_poll_tx_data_empty()>:
_ZN9UartClass19_poll_tx_data_emptyEv():
C:\Users\mathiasc\AppData\Local\Arduino15\packages\MegaCoreX\hardware\megaavr\1.0.4\cores\coreX-corefiles/UART.cpp:126
  }
}

// To invoke data empty "interrupt" via a call, use this method
void UartClass::_poll_tx_data_empty(void)
{
     450:	dc 01       	movw	r26, r24
     452:	1c 96       	adiw	r26, 0x0c	; 12
     454:	ed 91       	ld	r30, X+
     456:	fc 91       	ld	r31, X
C:\Users\mathiasc\AppData\Local\Arduino15\packages\MegaCoreX\hardware\megaavr\1.0.4\cores\coreX-corefiles/UART.cpp:127
  if ((!(SREG & CPU_I_bm)) || (!((*_hwserial_module).CTRLA & USART_DREIE_bm)))
     458:	0f b6       	in	r0, 0x3f	; 63
     45a:	07 fe       	sbrs	r0, 7
     45c:	03 c0       	rjmp	.+6      	; 0x464 <UartClass::_poll_tx_data_empty()+0x14>
     45e:	25 81       	ldd	r18, Z+5	; 0x05
     460:	25 fd       	sbrc	r18, 5
     462:	04 c0       	rjmp	.+8      	; 0x46c <UartClass::_poll_tx_data_empty()+0x1c>
C:\Users\mathiasc\AppData\Local\Arduino15\packages\MegaCoreX\hardware\megaavr\1.0.4\cores\coreX-corefiles/UART.cpp:135
    // so we'll have to poll the "data register empty" flag ourselves.
    // If it is set, pretend an interrupt has happened and call the handler
    // to free up space for us.

    // Invoke interrupt handler only if conditions data register is empty
    if ((*_hwserial_module).STATUS & USART_DREIF_bm)
     464:	24 81       	ldd	r18, Z+4	; 0x04
     466:	25 fd       	sbrc	r18, 5
C:\Users\mathiasc\AppData\Local\Arduino15\packages\MegaCoreX\hardware\megaavr\1.0.4\cores\coreX-corefiles/UART.cpp:137
    {
      _tx_data_empty_irq();
     468:	0c 94 f2 01 	jmp	0x3e4	; 0x3e4 <UartClass::_tx_data_empty_irq()>
C:\Users\mathiasc\AppData\Local\Arduino15\packages\MegaCoreX\hardware\megaavr\1.0.4\cores\coreX-corefiles/UART.cpp:141
    }
  }
  // In case interrupts are enabled, the interrupt routine will be invoked by itself
}
     46c:	08 95       	ret

0000046e <UartClass::write(unsigned char)>:
_ZN9UartClass5writeEh():
C:\Users\mathiasc\AppData\Local\Arduino15\packages\MegaCoreX\hardware\megaavr\1.0.4\cores\coreX-corefiles/UART.cpp:336
  // If we get here, nothing is queued anymore (DREIE is disabled) and
  // the hardware finished transmission (TXCIF is set).
}

size_t UartClass::write(uint8_t c)
{
     46e:	ef 92       	push	r14
     470:	ff 92       	push	r15
     472:	0f 93       	push	r16
     474:	1f 93       	push	r17
     476:	cf 93       	push	r28
     478:	df 93       	push	r29
     47a:	ec 01       	movw	r28, r24
C:\Users\mathiasc\AppData\Local\Arduino15\packages\MegaCoreX\hardware\megaavr\1.0.4\cores\coreX-corefiles/UART.cpp:337
  _written = true;
     47c:	81 e0       	ldi	r24, 0x01	; 1
     47e:	8d 8b       	std	Y+21, r24	; 0x15
C:\Users\mathiasc\AppData\Local\Arduino15\packages\MegaCoreX\hardware\megaavr\1.0.4\cores\coreX-corefiles/UART.cpp:343

  // If the buffer and the data register is empty, just write the byte
  // to the data register and be done. This shortcut helps
  // significantly improve the effective data rate at high (>
  // 500kbit/s) bit rates, where interrupt overhead becomes a slowdown.
  if ((_tx_buffer_head == _tx_buffer_tail) && ((*_hwserial_module).STATUS & USART_DREIF_bm))
     480:	98 8d       	ldd	r25, Y+24	; 0x18
     482:	89 8d       	ldd	r24, Y+25	; 0x19
     484:	98 13       	cpse	r25, r24
     486:	1c c0       	rjmp	.+56     	; 0x4c0 <UartClass::write(unsigned char)+0x52>
     488:	ac 85       	ldd	r26, Y+12	; 0x0c
     48a:	bd 85       	ldd	r27, Y+13	; 0x0d
     48c:	14 96       	adiw	r26, 0x04	; 4
     48e:	8c 91       	ld	r24, X
     490:	14 97       	sbiw	r26, 0x04	; 4
     492:	85 ff       	sbrs	r24, 5
     494:	15 c0       	rjmp	.+42     	; 0x4c0 <UartClass::write(unsigned char)+0x52>
C:\Users\mathiasc\AppData\Local\Arduino15\packages\MegaCoreX\hardware\megaavr\1.0.4\cores\coreX-corefiles/UART.cpp:345
  {
    (*_hwserial_module).TXDATAL = c;
     496:	12 96       	adiw	r26, 0x02	; 2
     498:	6c 93       	st	X, r22
C:\Users\mathiasc\AppData\Local\Arduino15\packages\MegaCoreX\hardware\megaavr\1.0.4\cores\coreX-corefiles/UART.cpp:346
    (*_hwserial_module).STATUS = USART_TXCIF_bm;
     49a:	ac 85       	ldd	r26, Y+12	; 0x0c
     49c:	bd 85       	ldd	r27, Y+13	; 0x0d
     49e:	80 e4       	ldi	r24, 0x40	; 64
     4a0:	14 96       	adiw	r26, 0x04	; 4
     4a2:	8c 93       	st	X, r24
C:\Users\mathiasc\AppData\Local\Arduino15\packages\MegaCoreX\hardware\megaavr\1.0.4\cores\coreX-corefiles/UART.cpp:350

    // Make sure data register empty interrupt is disabled to avoid
    // that the interrupt handler is called in this situation
    (*_hwserial_module).CTRLA &= (~USART_DREIE_bm);
     4a4:	ec 85       	ldd	r30, Y+12	; 0x0c
     4a6:	fd 85       	ldd	r31, Y+13	; 0x0d
     4a8:	85 81       	ldd	r24, Z+5	; 0x05
     4aa:	8f 7d       	andi	r24, 0xDF	; 223
C:\Users\mathiasc\AppData\Local\Arduino15\packages\MegaCoreX\hardware\megaavr\1.0.4\cores\coreX-corefiles/UART.cpp:380

  _tx_buffer[_tx_buffer_head] = c;
  _tx_buffer_head = i;

  // Enable data "register empty interrupt"
  (*_hwserial_module).CTRLA |= USART_DREIE_bm;
     4ac:	85 83       	std	Z+5, r24	; 0x05
C:\Users\mathiasc\AppData\Local\Arduino15\packages\MegaCoreX\hardware\megaavr\1.0.4\cores\coreX-corefiles/UART.cpp:383

  return 1;
}
     4ae:	81 e0       	ldi	r24, 0x01	; 1
     4b0:	90 e0       	ldi	r25, 0x00	; 0
     4b2:	df 91       	pop	r29
     4b4:	cf 91       	pop	r28
     4b6:	1f 91       	pop	r17
     4b8:	0f 91       	pop	r16
     4ba:	ff 90       	pop	r15
     4bc:	ef 90       	pop	r14
     4be:	08 95       	ret
C:\Users\mathiasc\AppData\Local\Arduino15\packages\MegaCoreX\hardware\megaavr\1.0.4\cores\coreX-corefiles/UART.cpp:357
    return 1;
  }

  //Check if we are inside an ISR already (could be from by a source other than UART),
  // in which case the UART ISRs will be blocked.
  if (CPUINT.STATUS & CPUINT_LVL0EX_bm)
     4c0:	80 91 11 01 	lds	r24, 0x0111	; 0x800111 <__TEXT_REGION_LENGTH__+0x7f4111>
     4c4:	80 ff       	sbrs	r24, 0
     4c6:	08 c0       	rjmp	.+16     	; 0x4d8 <UartClass::write(unsigned char)+0x6a>
C:\Users\mathiasc\AppData\Local\Arduino15\packages\MegaCoreX\hardware\megaavr\1.0.4\cores\coreX-corefiles/UART.cpp:361
  {
    //Elevate the priority level of the Data Register Empty Interrupt vector
    //and copy whatever vector number that might be in the register already.
    _prev_lvl1_interrupt_vect = CPUINT.LVL1VEC;
     4c8:	80 91 13 01 	lds	r24, 0x0113	; 0x800113 <__TEXT_REGION_LENGTH__+0x7f4113>
     4cc:	8c 8f       	std	Y+28, r24	; 0x1c
C:\Users\mathiasc\AppData\Local\Arduino15\packages\MegaCoreX\hardware\megaavr\1.0.4\cores\coreX-corefiles/UART.cpp:362
    CPUINT.LVL1VEC = _hwserial_dre_interrupt_vect_num;
     4ce:	8a 8d       	ldd	r24, Y+26	; 0x1a
     4d0:	80 93 13 01 	sts	0x0113, r24	; 0x800113 <__TEXT_REGION_LENGTH__+0x7f4113>
C:\Users\mathiasc\AppData\Local\Arduino15\packages\MegaCoreX\hardware\megaavr\1.0.4\cores\coreX-corefiles/UART.cpp:364

    _hwserial_dre_interrupt_elevated = 1;
     4d4:	81 e0       	ldi	r24, 0x01	; 1
     4d6:	8b 8f       	std	Y+27, r24	; 0x1b
     4d8:	f6 2e       	mov	r15, r22
C:\Users\mathiasc\AppData\Local\Arduino15\packages\MegaCoreX\hardware\megaavr\1.0.4\cores\coreX-corefiles/UART.cpp:367
  }

  tx_buffer_index_t i = (_tx_buffer_head + 1) % SERIAL_TX_BUFFER_SIZE;
     4da:	08 8d       	ldd	r16, Y+24	; 0x18
     4dc:	10 e0       	ldi	r17, 0x00	; 0
     4de:	0f 5f       	subi	r16, 0xFF	; 255
     4e0:	1f 4f       	sbci	r17, 0xFF	; 255
     4e2:	0f 73       	andi	r16, 0x3F	; 63
     4e4:	11 27       	eor	r17, r17
     4e6:	e0 2e       	mov	r14, r16
C:\Users\mathiasc\AppData\Local\Arduino15\packages\MegaCoreX\hardware\megaavr\1.0.4\cores\coreX-corefiles/UART.cpp:371

  //If the output buffer is full, there's nothing for it other than to
  //wait for the interrupt handler to empty it a bit (or emulate interrupts)
  while (i == _tx_buffer_tail)
     4e8:	89 8d       	ldd	r24, Y+25	; 0x19
     4ea:	8e 11       	cpse	r24, r14
     4ec:	04 c0       	rjmp	.+8      	; 0x4f6 <UartClass::write(unsigned char)+0x88>
C:\Users\mathiasc\AppData\Local\Arduino15\packages\MegaCoreX\hardware\megaavr\1.0.4\cores\coreX-corefiles/UART.cpp:373
  {
    _poll_tx_data_empty();
     4ee:	ce 01       	movw	r24, r28
     4f0:	0e 94 28 02 	call	0x450	; 0x450 <UartClass::_poll_tx_data_empty()>
     4f4:	f9 cf       	rjmp	.-14     	; 0x4e8 <UartClass::write(unsigned char)+0x7a>
C:\Users\mathiasc\AppData\Local\Arduino15\packages\MegaCoreX\hardware\megaavr\1.0.4\cores\coreX-corefiles/UART.cpp:376
  }

  _tx_buffer[_tx_buffer_head] = c;
     4f6:	e8 8d       	ldd	r30, Y+24	; 0x18
     4f8:	ec 0f       	add	r30, r28
     4fa:	fd 2f       	mov	r31, r29
     4fc:	f1 1d       	adc	r31, r1
     4fe:	e3 5a       	subi	r30, 0xA3	; 163
     500:	ff 4f       	sbci	r31, 0xFF	; 255
     502:	f0 82       	st	Z, r15
C:\Users\mathiasc\AppData\Local\Arduino15\packages\MegaCoreX\hardware\megaavr\1.0.4\cores\coreX-corefiles/UART.cpp:377
  _tx_buffer_head = i;
     504:	08 8f       	std	Y+24, r16	; 0x18
C:\Users\mathiasc\AppData\Local\Arduino15\packages\MegaCoreX\hardware\megaavr\1.0.4\cores\coreX-corefiles/UART.cpp:380

  // Enable data "register empty interrupt"
  (*_hwserial_module).CTRLA |= USART_DREIE_bm;
     506:	ec 85       	ldd	r30, Y+12	; 0x0c
     508:	fd 85       	ldd	r31, Y+13	; 0x0d
     50a:	85 81       	ldd	r24, Z+5	; 0x05
     50c:	80 62       	ori	r24, 0x20	; 32
     50e:	ce cf       	rjmp	.-100    	; 0x4ac <UartClass::write(unsigned char)+0x3e>

00000510 <UartClass::flush()>:
_ZN9UartClass5flushEv():
C:\Users\mathiasc\AppData\Local\Arduino15\packages\MegaCoreX\hardware\megaavr\1.0.4\cores\coreX-corefiles/UART.cpp:303
  if (head >= tail) return SERIAL_TX_BUFFER_SIZE - 1 - head + tail;
  return tail - head - 1;
}

void UartClass::flush()
{
     510:	cf 93       	push	r28
     512:	df 93       	push	r29
C:\Users\mathiasc\AppData\Local\Arduino15\packages\MegaCoreX\hardware\megaavr\1.0.4\cores\coreX-corefiles/UART.cpp:307
  // If we have never written a byte, no need to flush. This special
  // case is needed since there is no way to force the TXCIF (transmit
  // complete) bit to 1 during initialization
  if (!_written)
     514:	fc 01       	movw	r30, r24
     516:	25 89       	ldd	r18, Z+21	; 0x15
     518:	22 23       	and	r18, r18
     51a:	c9 f0       	breq	.+50     	; 0x54e <UartClass::flush()+0x3e>
     51c:	ec 01       	movw	r28, r24
C:\Users\mathiasc\AppData\Local\Arduino15\packages\MegaCoreX\hardware\megaavr\1.0.4\cores\coreX-corefiles/UART.cpp:314
    return;
  }

  //Check if we are inside an ISR already (e.g. connected to a different peripheral then UART), in which case the UART ISRs will not be called.
  //Temporarily elevate the DRE interrupt to allow it to run.
  if (CPUINT.STATUS & CPUINT_LVL0EX_bm)
     51e:	80 91 11 01 	lds	r24, 0x0111	; 0x800111 <__TEXT_REGION_LENGTH__+0x7f4111>
     522:	80 ff       	sbrs	r24, 0
     524:	08 c0       	rjmp	.+16     	; 0x536 <UartClass::flush()+0x26>
C:\Users\mathiasc\AppData\Local\Arduino15\packages\MegaCoreX\hardware\megaavr\1.0.4\cores\coreX-corefiles/UART.cpp:318
  {
    //Elevate the priority level of the Data Register Empty Interrupt vector
    //and copy whatever vector number that might be in the register already.
    _prev_lvl1_interrupt_vect = CPUINT.LVL1VEC;
     526:	80 91 13 01 	lds	r24, 0x0113	; 0x800113 <__TEXT_REGION_LENGTH__+0x7f4113>
     52a:	84 8f       	std	Z+28, r24	; 0x1c
C:\Users\mathiasc\AppData\Local\Arduino15\packages\MegaCoreX\hardware\megaavr\1.0.4\cores\coreX-corefiles/UART.cpp:319
    CPUINT.LVL1VEC = _hwserial_dre_interrupt_vect_num;
     52c:	82 8d       	ldd	r24, Z+26	; 0x1a
     52e:	80 93 13 01 	sts	0x0113, r24	; 0x800113 <__TEXT_REGION_LENGTH__+0x7f4113>
C:\Users\mathiasc\AppData\Local\Arduino15\packages\MegaCoreX\hardware\megaavr\1.0.4\cores\coreX-corefiles/UART.cpp:321

    _hwserial_dre_interrupt_elevated = 1;
     532:	81 e0       	ldi	r24, 0x01	; 1
     534:	83 8f       	std	Z+27, r24	; 0x1b
C:\Users\mathiasc\AppData\Local\Arduino15\packages\MegaCoreX\hardware\megaavr\1.0.4\cores\coreX-corefiles/UART.cpp:325
  }

  // Spin until the data-register-empty-interrupt is disabled and TX complete interrupt flag is raised
  while (((*_hwserial_module).CTRLA & USART_DREIE_bm) || (!((*_hwserial_module).STATUS & USART_TXCIF_bm)))
     536:	ec 85       	ldd	r30, Y+12	; 0x0c
     538:	fd 85       	ldd	r31, Y+13	; 0x0d
     53a:	85 81       	ldd	r24, Z+5	; 0x05
     53c:	85 fd       	sbrc	r24, 5
     53e:	03 c0       	rjmp	.+6      	; 0x546 <UartClass::flush()+0x36>
     540:	84 81       	ldd	r24, Z+4	; 0x04
     542:	86 fd       	sbrc	r24, 6
     544:	04 c0       	rjmp	.+8      	; 0x54e <UartClass::flush()+0x3e>
C:\Users\mathiasc\AppData\Local\Arduino15\packages\MegaCoreX\hardware\megaavr\1.0.4\cores\coreX-corefiles/UART.cpp:329
  {
    // If interrupts are globally disabled or the and DR empty interrupt is disabled,
    // poll the "data register empty" interrupt flag to prevent deadlock
    _poll_tx_data_empty();
     546:	ce 01       	movw	r24, r28
     548:	0e 94 28 02 	call	0x450	; 0x450 <UartClass::_poll_tx_data_empty()>
     54c:	f4 cf       	rjmp	.-24     	; 0x536 <UartClass::flush()+0x26>
C:\Users\mathiasc\AppData\Local\Arduino15\packages\MegaCoreX\hardware\megaavr\1.0.4\cores\coreX-corefiles/UART.cpp:333
  }
  // If we get here, nothing is queued anymore (DREIE is disabled) and
  // the hardware finished transmission (TXCIF is set).
}
     54e:	df 91       	pop	r29
     550:	cf 91       	pop	r28
     552:	08 95       	ret

00000554 <serialEventRun()>:
_Z14serialEventRunv():
C:\Users\mathiasc\AppData\Local\Arduino15\packages\MegaCoreX\hardware\megaavr\1.0.4\cores\coreX-corefiles/UART.cpp:66
#endif

void serialEventRun(void)
{
#if defined(HAVE_HWSERIAL0)
  if (Serial0_available && serialEvent && Serial0_available()) serialEvent();
     554:	80 e0       	ldi	r24, 0x00	; 0
     556:	90 e0       	ldi	r25, 0x00	; 0
     558:	89 2b       	or	r24, r25
     55a:	29 f0       	breq	.+10     	; 0x566 <serialEventRun()+0x12>
     55c:	0e 94 a1 01 	call	0x342	; 0x342 <Serial0_available()>
     560:	81 11       	cpse	r24, r1
     562:	0e 94 00 00 	call	0	; 0x0 <__vectors>
C:\Users\mathiasc\AppData\Local\Arduino15\packages\MegaCoreX\hardware\megaavr\1.0.4\cores\coreX-corefiles/UART.cpp:69
#endif
#if defined(HAVE_HWSERIAL1)
  if (Serial1_available && serialEvent1 && Serial1_available()) serialEvent1();
     566:	80 e0       	ldi	r24, 0x00	; 0
     568:	90 e0       	ldi	r25, 0x00	; 0
     56a:	89 2b       	or	r24, r25
     56c:	49 f0       	breq	.+18     	; 0x580 <serialEventRun()+0x2c>
     56e:	80 e0       	ldi	r24, 0x00	; 0
     570:	90 e0       	ldi	r25, 0x00	; 0
     572:	89 2b       	or	r24, r25
     574:	29 f0       	breq	.+10     	; 0x580 <serialEventRun()+0x2c>
     576:	0e 94 00 00 	call	0	; 0x0 <__vectors>
     57a:	81 11       	cpse	r24, r1
     57c:	0e 94 00 00 	call	0	; 0x0 <__vectors>
C:\Users\mathiasc\AppData\Local\Arduino15\packages\MegaCoreX\hardware\megaavr\1.0.4\cores\coreX-corefiles/UART.cpp:72
#endif
#if defined(HAVE_HWSERIAL2)
  if (Serial2_available && serialEvent2 && Serial2_available()) serialEvent2();
     580:	80 e0       	ldi	r24, 0x00	; 0
     582:	90 e0       	ldi	r25, 0x00	; 0
     584:	89 2b       	or	r24, r25
     586:	49 f0       	breq	.+18     	; 0x59a <serialEventRun()+0x46>
     588:	80 e0       	ldi	r24, 0x00	; 0
     58a:	90 e0       	ldi	r25, 0x00	; 0
     58c:	89 2b       	or	r24, r25
     58e:	29 f0       	breq	.+10     	; 0x59a <serialEventRun()+0x46>
     590:	0e 94 00 00 	call	0	; 0x0 <__vectors>
     594:	81 11       	cpse	r24, r1
     596:	0e 94 00 00 	call	0	; 0x0 <__vectors>
C:\Users\mathiasc\AppData\Local\Arduino15\packages\MegaCoreX\hardware\megaavr\1.0.4\cores\coreX-corefiles/UART.cpp:75
#endif
#if defined(HAVE_HWSERIAL3)
  if (Serial3_available && serialEvent3 && Serial3_available()) serialEvent3();
     59a:	80 e0       	ldi	r24, 0x00	; 0
     59c:	90 e0       	ldi	r25, 0x00	; 0
     59e:	89 2b       	or	r24, r25
     5a0:	49 f0       	breq	.+18     	; 0x5b4 <serialEventRun()+0x60>
     5a2:	80 e0       	ldi	r24, 0x00	; 0
     5a4:	90 e0       	ldi	r25, 0x00	; 0
     5a6:	89 2b       	or	r24, r25
     5a8:	29 f0       	breq	.+10     	; 0x5b4 <serialEventRun()+0x60>
     5aa:	0e 94 00 00 	call	0	; 0x0 <__vectors>
     5ae:	81 11       	cpse	r24, r1
     5b0:	0c 94 00 00 	jmp	0	; 0x0 <__vectors>
C:\Users\mathiasc\AppData\Local\Arduino15\packages\MegaCoreX\hardware\megaavr\1.0.4\cores\coreX-corefiles/UART.cpp:77
#endif
}
     5b4:	08 95       	ret

000005b6 <UartClass::operator bool()>:
_ZN9UartClasscvbEv():
C:\Users\mathiasc\AppData\Local\Arduino15\packages\MegaCoreX\hardware\megaavr\1.0.4\cores\coreX-corefiles/UART.h:174
    inline size_t write(unsigned long n) { return write((uint8_t)n); }
    inline size_t write(long n) { return write((uint8_t)n); }
    inline size_t write(unsigned int n) { return write((uint8_t)n); }
    inline size_t write(int n) { return write((uint8_t)n); }
    using Print::write; // pull in write(str) and write(buf, size) from Print
    explicit operator bool() { return true; }
     5b6:	81 e0       	ldi	r24, 0x01	; 1
     5b8:	08 95       	ret

000005ba <pinMode.part.1>:
pinMode.part.1():
C:\Users\mathiasc\AppData\Local\Arduino15\packages\MegaCoreX\hardware\megaavr\1.0.4\cores\coreX-corefiles/wiring_digital.c:29

#define ARDUINO_MAIN
#include "wiring_private.h"
#include "pins_arduino.h"

void pinMode(uint8_t pin, uint8_t mode)
     5ba:	cf 93       	push	r28
     5bc:	df 93       	push	r29
C:\Users\mathiasc\AppData\Local\Arduino15\packages\MegaCoreX\hardware\megaavr\1.0.4\cores\coreX-corefiles/wiring_digital.c:31
{
  uint8_t bit_mask = digitalPinToBitMask(pin);
     5be:	90 e0       	ldi	r25, 0x00	; 0
     5c0:	fc 01       	movw	r30, r24
     5c2:	ee 59       	subi	r30, 0x9E	; 158
     5c4:	f7 48       	sbci	r31, 0x87	; 135
     5c6:	20 81       	ld	r18, Z
C:\Users\mathiasc\AppData\Local\Arduino15\packages\MegaCoreX\hardware\megaavr\1.0.4\cores\coreX-corefiles/wiring_digital.c:33

  if ((bit_mask == NOT_A_PIN) || (mode > INPUT_PULLUP))
     5c8:	2f 3f       	cpi	r18, 0xFF	; 255
     5ca:	69 f0       	breq	.+26     	; 0x5e6 <pinMode.part.1+0x2c>
C:\Users\mathiasc\AppData\Local\Arduino15\packages\MegaCoreX\hardware\megaavr\1.0.4\cores\coreX-corefiles/wiring_digital.c:36
    return;

  PORT_t *port = digitalPinToPortStruct(pin);
     5cc:	fc 01       	movw	r30, r24
     5ce:	e7 5c       	subi	r30, 0xC7	; 199
     5d0:	f7 48       	sbci	r31, 0x87	; 135
     5d2:	a0 81       	ld	r26, Z
     5d4:	30 e2       	ldi	r19, 0x20	; 32
     5d6:	a3 9f       	mul	r26, r19
     5d8:	d0 01       	movw	r26, r0
     5da:	11 24       	eor	r1, r1
     5dc:	bc 5f       	subi	r27, 0xFC	; 252
C:\Users\mathiasc\AppData\Local\Arduino15\packages\MegaCoreX\hardware\megaavr\1.0.4\cores\coreX-corefiles/wiring_digital.c:40
  if (port == NULL)
    return;

  if (mode == OUTPUT)
     5de:	61 30       	cpi	r22, 0x01	; 1
     5e0:	29 f4       	brne	.+10     	; 0x5ec <pinMode.part.1+0x32>
C:\Users\mathiasc\AppData\Local\Arduino15\packages\MegaCoreX\hardware\megaavr\1.0.4\cores\coreX-corefiles/wiring_digital.c:43
  {
    /* Configure direction as output */
    port->DIRSET = bit_mask;
     5e2:	11 96       	adiw	r26, 0x01	; 1
     5e4:	2c 93       	st	X, r18
C:\Users\mathiasc\AppData\Local\Arduino15\packages\MegaCoreX\hardware\megaavr\1.0.4\cores\coreX-corefiles/wiring_digital.c:75
    }

    /* Restore state */
    SREG = status;
  }
}
     5e6:	df 91       	pop	r29
     5e8:	cf 91       	pop	r28
     5ea:	08 95       	ret
C:\Users\mathiasc\AppData\Local\Arduino15\packages\MegaCoreX\hardware\megaavr\1.0.4\cores\coreX-corefiles/wiring_digital.c:48
    port->DIRSET = bit_mask;
  }
  else
  { /* mode == INPUT or INPUT_PULLUP */

    uint8_t bit_pos = digitalPinToBitPosition(pin);
     5ec:	87 58       	subi	r24, 0x87	; 135
     5ee:	98 48       	sbci	r25, 0x88	; 136
     5f0:	ec 01       	movw	r28, r24
     5f2:	e8 81       	ld	r30, Y
C:\Users\mathiasc\AppData\Local\Arduino15\packages\MegaCoreX\hardware\megaavr\1.0.4\cores\coreX-corefiles/wiring_digital.c:50
    /* Calculate where pin control register is */
    volatile uint8_t *pin_ctrl_reg = getPINnCTRLregister(port, bit_pos);
     5f4:	ef 3f       	cpi	r30, 0xFF	; 255
     5f6:	81 f0       	breq	.+32     	; 0x618 <pinMode.part.1+0x5e>
     5f8:	cd 01       	movw	r24, r26
     5fa:	40 96       	adiw	r24, 0x10	; 16
     5fc:	e8 0f       	add	r30, r24
     5fe:	f9 2f       	mov	r31, r25
     600:	f1 1d       	adc	r31, r1
C:\Users\mathiasc\AppData\Local\Arduino15\packages\MegaCoreX\hardware\megaavr\1.0.4\cores\coreX-corefiles/wiring_digital.c:53

    /* Save state */
    uint8_t status = SREG;
     602:	9f b7       	in	r25, 0x3f	; 63
C:\Users\mathiasc\AppData\Local\Arduino15\packages\MegaCoreX\hardware\megaavr\1.0.4\cores\coreX-corefiles/wiring_digital.c:54
    cli();
     604:	f8 94       	cli
C:\Users\mathiasc\AppData\Local\Arduino15\packages\MegaCoreX\hardware\megaavr\1.0.4\cores\coreX-corefiles/wiring_digital.c:57

    /* Configure direction as input */
    port->DIRCLR = bit_mask;
     606:	12 96       	adiw	r26, 0x02	; 2
     608:	2c 93       	st	X, r18
C:\Users\mathiasc\AppData\Local\Arduino15\packages\MegaCoreX\hardware\megaavr\1.0.4\cores\coreX-corefiles/wiring_digital.c:63

    /* Configure pull-up resistor */
    if (mode == INPUT_PULLUP)
    {
      /* Enable pull-up */
      *pin_ctrl_reg |= PORT_PULLUPEN_bm;
     60a:	80 81       	ld	r24, Z
C:\Users\mathiasc\AppData\Local\Arduino15\packages\MegaCoreX\hardware\megaavr\1.0.4\cores\coreX-corefiles/wiring_digital.c:60

    /* Configure direction as input */
    port->DIRCLR = bit_mask;

    /* Configure pull-up resistor */
    if (mode == INPUT_PULLUP)
     60c:	62 30       	cpi	r22, 0x02	; 2
     60e:	39 f4       	brne	.+14     	; 0x61e <pinMode.part.1+0x64>
C:\Users\mathiasc\AppData\Local\Arduino15\packages\MegaCoreX\hardware\megaavr\1.0.4\cores\coreX-corefiles/wiring_digital.c:63
    {
      /* Enable pull-up */
      *pin_ctrl_reg |= PORT_PULLUPEN_bm;
     610:	88 60       	ori	r24, 0x08	; 8
C:\Users\mathiasc\AppData\Local\Arduino15\packages\MegaCoreX\hardware\megaavr\1.0.4\cores\coreX-corefiles/wiring_digital.c:69
    }
    else
    { /* mode == INPUT (no pullup) */

      /* Disable pull-up */
      *pin_ctrl_reg &= ~(PORT_PULLUPEN_bm);
     612:	80 83       	st	Z, r24
C:\Users\mathiasc\AppData\Local\Arduino15\packages\MegaCoreX\hardware\megaavr\1.0.4\cores\coreX-corefiles/wiring_digital.c:73
    }

    /* Restore state */
    SREG = status;
     614:	9f bf       	out	0x3f, r25	; 63
     616:	e7 cf       	rjmp	.-50     	; 0x5e6 <pinMode.part.1+0x2c>
C:\Users\mathiasc\AppData\Local\Arduino15\packages\MegaCoreX\hardware\megaavr\1.0.4\cores\coreX-corefiles/wiring_digital.c:50
  else
  { /* mode == INPUT or INPUT_PULLUP */

    uint8_t bit_pos = digitalPinToBitPosition(pin);
    /* Calculate where pin control register is */
    volatile uint8_t *pin_ctrl_reg = getPINnCTRLregister(port, bit_pos);
     618:	f0 e0       	ldi	r31, 0x00	; 0
     61a:	e0 e0       	ldi	r30, 0x00	; 0
     61c:	f2 cf       	rjmp	.-28     	; 0x602 <pinMode.part.1+0x48>
C:\Users\mathiasc\AppData\Local\Arduino15\packages\MegaCoreX\hardware\megaavr\1.0.4\cores\coreX-corefiles/wiring_digital.c:69
    }
    else
    { /* mode == INPUT (no pullup) */

      /* Disable pull-up */
      *pin_ctrl_reg &= ~(PORT_PULLUPEN_bm);
     61e:	87 7f       	andi	r24, 0xF7	; 247
     620:	f8 cf       	rjmp	.-16     	; 0x612 <pinMode.part.1+0x58>

00000622 <pinMode>:
pinMode():
C:\Users\mathiasc\AppData\Local\Arduino15\packages\MegaCoreX\hardware\megaavr\1.0.4\cores\coreX-corefiles/wiring_digital.c:31
#include "wiring_private.h"
#include "pins_arduino.h"

void pinMode(uint8_t pin, uint8_t mode)
{
  uint8_t bit_mask = digitalPinToBitMask(pin);
     622:	89 32       	cpi	r24, 0x29	; 41
     624:	10 f4       	brcc	.+4      	; 0x62a <pinMode+0x8>
     626:	0c 94 dd 02 	jmp	0x5ba	; 0x5ba <pinMode.part.1>
C:\Users\mathiasc\AppData\Local\Arduino15\packages\MegaCoreX\hardware\megaavr\1.0.4\cores\coreX-corefiles/wiring_digital.c:75
    }

    /* Restore state */
    SREG = status;
  }
}
     62a:	08 95       	ret

0000062c <turnOffPWM.part.0>:
turnOffPWM.part.0():
C:\Users\mathiasc\AppData\Local\Arduino15\packages\MegaCoreX\hardware\megaavr\1.0.4\cores\coreX-corefiles/wiring_digital.c:97
static void turnOffPWM(uint8_t pin)
{
  /* Actually turn off compare channel, not the timer */

  /* Get pin's timer */
  uint8_t timer = digitalPinToTimer(pin);
     62c:	90 e0       	ldi	r25, 0x00	; 0
     62e:	fc 01       	movw	r30, r24
     630:	e0 5b       	subi	r30, 0xB0	; 176
     632:	f8 48       	sbci	r31, 0x88	; 136
     634:	e0 81       	ld	r30, Z
C:\Users\mathiasc\AppData\Local\Arduino15\packages\MegaCoreX\hardware\megaavr\1.0.4\cores\coreX-corefiles/wiring_digital.c:98
  if (timer == NOT_ON_TIMER)
     636:	ee 23       	and	r30, r30
     638:	19 f1       	breq	.+70     	; 0x680 <turnOffPWM.part.0+0x54>
C:\Users\mathiasc\AppData\Local\Arduino15\packages\MegaCoreX\hardware\megaavr\1.0.4\cores\coreX-corefiles/wiring_digital.c:104
    return;

  uint8_t bit_pos;
  TCB_t *timerB;

  switch (timer)
     63a:	e1 30       	cpi	r30, 0x01	; 1
     63c:	21 f0       	breq	.+8      	; 0x646 <turnOffPWM.part.0+0x1a>
     63e:	00 f1       	brcs	.+64     	; 0x680 <turnOffPWM.part.0+0x54>
     640:	e6 30       	cpi	r30, 0x06	; 6
     642:	a8 f0       	brcs	.+42     	; 0x66e <turnOffPWM.part.0+0x42>
     644:	08 95       	ret
C:\Users\mathiasc\AppData\Local\Arduino15\packages\MegaCoreX\hardware\megaavr\1.0.4\cores\coreX-corefiles/wiring_digital.c:109
  {
    /* TCA0 */
    case TIMERA0:
      /* Bit position will give output channel */
      bit_pos = digitalPinToBitPosition(pin);
     646:	87 58       	subi	r24, 0x87	; 135
     648:	98 48       	sbci	r25, 0x88	; 136
     64a:	fc 01       	movw	r30, r24
     64c:	20 81       	ld	r18, Z
C:\Users\mathiasc\AppData\Local\Arduino15\packages\MegaCoreX\hardware\megaavr\1.0.4\cores\coreX-corefiles/wiring_digital.c:112

      /* Disable corresponding channel */
      if (bit_pos >= 3) ++bit_pos; /* Upper 3 bits are shifted by 1 */
     64e:	23 30       	cpi	r18, 0x03	; 3
     650:	08 f0       	brcs	.+2      	; 0x654 <turnOffPWM.part.0+0x28>
     652:	2f 5f       	subi	r18, 0xFF	; 255
C:\Users\mathiasc\AppData\Local\Arduino15\packages\MegaCoreX\hardware\megaavr\1.0.4\cores\coreX-corefiles/wiring_digital.c:113
      TCA0.SPLIT.CTRLB &= ~(1 << (TCA_SPLIT_LCMP0EN_bp + bit_pos));
     654:	30 91 01 0a 	lds	r19, 0x0A01	; 0x800a01 <__TEXT_REGION_LENGTH__+0x7f4a01>
     658:	81 e0       	ldi	r24, 0x01	; 1
     65a:	90 e0       	ldi	r25, 0x00	; 0
     65c:	01 c0       	rjmp	.+2      	; 0x660 <turnOffPWM.part.0+0x34>
     65e:	88 0f       	add	r24, r24
     660:	2a 95       	dec	r18
     662:	ea f7       	brpl	.-6      	; 0x65e <turnOffPWM.part.0+0x32>
     664:	80 95       	com	r24
     666:	83 23       	and	r24, r19
     668:	80 93 01 0a 	sts	0x0A01, r24	; 0x800a01 <__TEXT_REGION_LENGTH__+0x7f4a01>
     66c:	08 95       	ret
C:\Users\mathiasc\AppData\Local\Arduino15\packages\MegaCoreX\hardware\megaavr\1.0.4\cores\coreX-corefiles/wiring_digital.c:123
    case TIMERB0:
    case TIMERB1:
    case TIMERB2:
    case TIMERB3:

      timerB = (TCB_t *)&TCB0 + (timer - TIMERB0);
     66e:	80 e1       	ldi	r24, 0x10	; 16
     670:	e8 9f       	mul	r30, r24
     672:	f0 01       	movw	r30, r0
     674:	11 24       	eor	r1, r1
     676:	e0 5a       	subi	r30, 0xA0	; 160
     678:	f5 4f       	sbci	r31, 0xF5	; 245
C:\Users\mathiasc\AppData\Local\Arduino15\packages\MegaCoreX\hardware\megaavr\1.0.4\cores\coreX-corefiles/wiring_digital.c:126

      /* Disable TCB compare channel */
      timerB->CTRLB &= ~(TCB_CCMPEN_bm);
     67a:	81 81       	ldd	r24, Z+1	; 0x01
     67c:	8f 7e       	andi	r24, 0xEF	; 239
     67e:	81 83       	std	Z+1, r24	; 0x01
C:\Users\mathiasc\AppData\Local\Arduino15\packages\MegaCoreX\hardware\megaavr\1.0.4\cores\coreX-corefiles/wiring_digital.c:132

      break;
    default:
      break;
  }
}
     680:	08 95       	ret

00000682 <digitalWrite.part.2>:
digitalWrite.part.2():
C:\Users\mathiasc\AppData\Local\Arduino15\packages\MegaCoreX\hardware\megaavr\1.0.4\cores\coreX-corefiles/wiring_digital.c:134

void digitalWrite(uint8_t pin, uint8_t val)
     682:	0f 93       	push	r16
     684:	1f 93       	push	r17
     686:	cf 93       	push	r28
     688:	df 93       	push	r29
C:\Users\mathiasc\AppData\Local\Arduino15\packages\MegaCoreX\hardware\megaavr\1.0.4\cores\coreX-corefiles/wiring_digital.c:137
{
  /* Get bit mask for pin */
  uint8_t bit_mask = digitalPinToBitMask(pin);
     68a:	c8 2f       	mov	r28, r24
     68c:	d0 e0       	ldi	r29, 0x00	; 0
     68e:	fe 01       	movw	r30, r28
     690:	ee 59       	subi	r30, 0x9E	; 158
     692:	f7 48       	sbci	r31, 0x87	; 135
     694:	00 81       	ld	r16, Z
C:\Users\mathiasc\AppData\Local\Arduino15\packages\MegaCoreX\hardware\megaavr\1.0.4\cores\coreX-corefiles/wiring_digital.c:138
  if (bit_mask == NOT_A_PIN)
     696:	0f 3f       	cpi	r16, 0xFF	; 255
     698:	a1 f0       	breq	.+40     	; 0x6c2 <digitalWrite.part.2+0x40>
     69a:	16 2f       	mov	r17, r22
turnOffPWM():
C:\Users\mathiasc\AppData\Local\Arduino15\packages\MegaCoreX\hardware\megaavr\1.0.4\cores\coreX-corefiles/wiring_digital.c:97
static void turnOffPWM(uint8_t pin)
{
  /* Actually turn off compare channel, not the timer */

  /* Get pin's timer */
  uint8_t timer = digitalPinToTimer(pin);
     69c:	89 32       	cpi	r24, 0x29	; 41
     69e:	10 f4       	brcc	.+4      	; 0x6a4 <digitalWrite.part.2+0x22>
     6a0:	0e 94 16 03 	call	0x62c	; 0x62c <turnOffPWM.part.0>
digitalWrite.part.2():
C:\Users\mathiasc\AppData\Local\Arduino15\packages\MegaCoreX\hardware\megaavr\1.0.4\cores\coreX-corefiles/wiring_digital.c:150
  turnOffPWM(pin);

  /* Assuming the direction is already output !! */

  /* Get port */
  PORT_t *port = digitalPinToPortStruct(pin);
     6a4:	fe 01       	movw	r30, r28
     6a6:	e7 5c       	subi	r30, 0xC7	; 199
     6a8:	f7 48       	sbci	r31, 0x87	; 135
     6aa:	e0 81       	ld	r30, Z
     6ac:	80 e2       	ldi	r24, 0x20	; 32
     6ae:	e8 9f       	mul	r30, r24
     6b0:	f0 01       	movw	r30, r0
     6b2:	11 24       	eor	r1, r1
     6b4:	fc 5f       	subi	r31, 0xFC	; 252
C:\Users\mathiasc\AppData\Local\Arduino15\packages\MegaCoreX\hardware\megaavr\1.0.4\cores\coreX-corefiles/wiring_digital.c:153

  /* Output direction */
  if (port->DIR & bit_mask)
     6b6:	80 81       	ld	r24, Z
     6b8:	80 23       	and	r24, r16
     6ba:	51 f0       	breq	.+20     	; 0x6d0 <digitalWrite.part.2+0x4e>
C:\Users\mathiasc\AppData\Local\Arduino15\packages\MegaCoreX\hardware\megaavr\1.0.4\cores\coreX-corefiles/wiring_digital.c:156
  {
    /* Set output to value */
    if (val == LOW)
     6bc:	11 11       	cpse	r17, r1
     6be:	06 c0       	rjmp	.+12     	; 0x6cc <digitalWrite.part.2+0x4a>
C:\Users\mathiasc\AppData\Local\Arduino15\packages\MegaCoreX\hardware\megaavr\1.0.4\cores\coreX-corefiles/wiring_digital.c:158
    { /* If LOW */
      port->OUTCLR = bit_mask;
     6c0:	06 83       	std	Z+6, r16	; 0x06
C:\Users\mathiasc\AppData\Local\Arduino15\packages\MegaCoreX\hardware\megaavr\1.0.4\cores\coreX-corefiles/wiring_digital.c:203
    }

    /* Restore system status */
    SREG = status;
  }
}
     6c2:	df 91       	pop	r29
     6c4:	cf 91       	pop	r28
     6c6:	1f 91       	pop	r17
     6c8:	0f 91       	pop	r16
     6ca:	08 95       	ret
C:\Users\mathiasc\AppData\Local\Arduino15\packages\MegaCoreX\hardware\megaavr\1.0.4\cores\coreX-corefiles/wiring_digital.c:167
      port->OUTTGL = bit_mask;
      /* If HIGH OR  > TOGGLE  */
    }
    else
    {
      port->OUTSET = bit_mask;
     6cc:	05 83       	std	Z+5, r16	; 0x05
     6ce:	f9 cf       	rjmp	.-14     	; 0x6c2 <digitalWrite.part.2+0x40>
C:\Users\mathiasc\AppData\Local\Arduino15\packages\MegaCoreX\hardware\megaavr\1.0.4\cores\coreX-corefiles/wiring_digital.c:180
    pull up is enabled if this function is called.
    Should we purposely implement this side effect?
    */

    /* Get bit position for getting pin ctrl reg */
    uint8_t bit_pos = digitalPinToBitPosition(pin);
     6d0:	c7 58       	subi	r28, 0x87	; 135
     6d2:	d8 48       	sbci	r29, 0x88	; 136
     6d4:	88 81       	ld	r24, Y
C:\Users\mathiasc\AppData\Local\Arduino15\packages\MegaCoreX\hardware\megaavr\1.0.4\cores\coreX-corefiles/wiring_digital.c:183

    /* Calculate where pin control register is */
    volatile uint8_t *pin_ctrl_reg = getPINnCTRLregister(port, bit_pos);
     6d6:	30 97       	sbiw	r30, 0x00	; 0
     6d8:	71 f0       	breq	.+28     	; 0x6f6 <digitalWrite.part.2+0x74>
     6da:	8f 3f       	cpi	r24, 0xFF	; 255
     6dc:	61 f0       	breq	.+24     	; 0x6f6 <digitalWrite.part.2+0x74>
     6de:	70 96       	adiw	r30, 0x10	; 16
     6e0:	e8 0f       	add	r30, r24
     6e2:	f1 1d       	adc	r31, r1
C:\Users\mathiasc\AppData\Local\Arduino15\packages\MegaCoreX\hardware\megaavr\1.0.4\cores\coreX-corefiles/wiring_digital.c:186

    /* Save system status and disable interrupts */
    uint8_t status = SREG;
     6e4:	9f b7       	in	r25, 0x3f	; 63
C:\Users\mathiasc\AppData\Local\Arduino15\packages\MegaCoreX\hardware\megaavr\1.0.4\cores\coreX-corefiles/wiring_digital.c:187
    cli();
     6e6:	f8 94       	cli
C:\Users\mathiasc\AppData\Local\Arduino15\packages\MegaCoreX\hardware\megaavr\1.0.4\cores\coreX-corefiles/wiring_digital.c:192

    if (val == LOW)
    {
      /* Disable pullup */
      *pin_ctrl_reg &= ~PORT_PULLUPEN_bm;
     6e8:	80 81       	ld	r24, Z
C:\Users\mathiasc\AppData\Local\Arduino15\packages\MegaCoreX\hardware\megaavr\1.0.4\cores\coreX-corefiles/wiring_digital.c:189

    /* Save system status and disable interrupts */
    uint8_t status = SREG;
    cli();

    if (val == LOW)
     6ea:	11 11       	cpse	r17, r1
     6ec:	07 c0       	rjmp	.+14     	; 0x6fc <digitalWrite.part.2+0x7a>
C:\Users\mathiasc\AppData\Local\Arduino15\packages\MegaCoreX\hardware\megaavr\1.0.4\cores\coreX-corefiles/wiring_digital.c:192
    {
      /* Disable pullup */
      *pin_ctrl_reg &= ~PORT_PULLUPEN_bm;
     6ee:	87 7f       	andi	r24, 0xF7	; 247
C:\Users\mathiasc\AppData\Local\Arduino15\packages\MegaCoreX\hardware\megaavr\1.0.4\cores\coreX-corefiles/wiring_digital.c:197
    }
    else
    {
      /* Enable pull-up */
      *pin_ctrl_reg |= PORT_PULLUPEN_bm;
     6f0:	80 83       	st	Z, r24
C:\Users\mathiasc\AppData\Local\Arduino15\packages\MegaCoreX\hardware\megaavr\1.0.4\cores\coreX-corefiles/wiring_digital.c:201
    }

    /* Restore system status */
    SREG = status;
     6f2:	9f bf       	out	0x3f, r25	; 63
     6f4:	e6 cf       	rjmp	.-52     	; 0x6c2 <digitalWrite.part.2+0x40>
C:\Users\mathiasc\AppData\Local\Arduino15\packages\MegaCoreX\hardware\megaavr\1.0.4\cores\coreX-corefiles/wiring_digital.c:183

    /* Get bit position for getting pin ctrl reg */
    uint8_t bit_pos = digitalPinToBitPosition(pin);

    /* Calculate where pin control register is */
    volatile uint8_t *pin_ctrl_reg = getPINnCTRLregister(port, bit_pos);
     6f6:	f0 e0       	ldi	r31, 0x00	; 0
     6f8:	e0 e0       	ldi	r30, 0x00	; 0
     6fa:	f4 cf       	rjmp	.-24     	; 0x6e4 <digitalWrite.part.2+0x62>
C:\Users\mathiasc\AppData\Local\Arduino15\packages\MegaCoreX\hardware\megaavr\1.0.4\cores\coreX-corefiles/wiring_digital.c:197
      *pin_ctrl_reg &= ~PORT_PULLUPEN_bm;
    }
    else
    {
      /* Enable pull-up */
      *pin_ctrl_reg |= PORT_PULLUPEN_bm;
     6fc:	88 60       	ori	r24, 0x08	; 8
     6fe:	f8 cf       	rjmp	.-16     	; 0x6f0 <digitalWrite.part.2+0x6e>

00000700 <digitalWrite>:
digitalWrite():
C:\Users\mathiasc\AppData\Local\Arduino15\packages\MegaCoreX\hardware\megaavr\1.0.4\cores\coreX-corefiles/wiring_digital.c:137
}

void digitalWrite(uint8_t pin, uint8_t val)
{
  /* Get bit mask for pin */
  uint8_t bit_mask = digitalPinToBitMask(pin);
     700:	89 32       	cpi	r24, 0x29	; 41
     702:	10 f4       	brcc	.+4      	; 0x708 <digitalWrite+0x8>
     704:	0c 94 41 03 	jmp	0x682	; 0x682 <digitalWrite.part.2>
C:\Users\mathiasc\AppData\Local\Arduino15\packages\MegaCoreX\hardware\megaavr\1.0.4\cores\coreX-corefiles/wiring_digital.c:203
    }

    /* Restore system status */
    SREG = status;
  }
}
     708:	08 95       	ret

0000070a <TM1637::stop() [clone .constprop.59]>:
_ZN6TM16374stopEv.constprop.59():
C:\Users\mathiasc\Documents\Arduino\libraries\Grove_4-Digit_Display/TM1637.cpp:173
    digitalWrite(datapin, LOW);
    digitalWrite(clkpin, LOW);
}

// End of transmission (stop = when both pins goes high)
void TM1637::stop(void) {
     70a:	cf 93       	push	r28
     70c:	df 93       	push	r29
C:\Users\mathiasc\Documents\Arduino\libraries\Grove_4-Digit_Display/TM1637.cpp:174
    digitalWrite(clkpin, LOW);
     70e:	c4 e4       	ldi	r28, 0x44	; 68
     710:	d9 e2       	ldi	r29, 0x29	; 41
     712:	60 e0       	ldi	r22, 0x00	; 0
     714:	8e 81       	ldd	r24, Y+6	; 0x06
     716:	0e 94 80 03 	call	0x700	; 0x700 <digitalWrite>
C:\Users\mathiasc\Documents\Arduino\libraries\Grove_4-Digit_Display/TM1637.cpp:175
    digitalWrite(datapin, LOW);
     71a:	60 e0       	ldi	r22, 0x00	; 0
     71c:	8f 81       	ldd	r24, Y+7	; 0x07
     71e:	0e 94 80 03 	call	0x700	; 0x700 <digitalWrite>
C:\Users\mathiasc\Documents\Arduino\libraries\Grove_4-Digit_Display/TM1637.cpp:176
    digitalWrite(clkpin, HIGH);
     722:	61 e0       	ldi	r22, 0x01	; 1
     724:	8e 81       	ldd	r24, Y+6	; 0x06
     726:	0e 94 80 03 	call	0x700	; 0x700 <digitalWrite>
C:\Users\mathiasc\Documents\Arduino\libraries\Grove_4-Digit_Display/TM1637.cpp:177
    digitalWrite(datapin, HIGH);
     72a:	61 e0       	ldi	r22, 0x01	; 1
     72c:	8f 81       	ldd	r24, Y+7	; 0x07
C:\Users\mathiasc\Documents\Arduino\libraries\Grove_4-Digit_Display/TM1637.cpp:178
}
     72e:	df 91       	pop	r29
     730:	cf 91       	pop	r28
C:\Users\mathiasc\Documents\Arduino\libraries\Grove_4-Digit_Display/TM1637.cpp:177
// End of transmission (stop = when both pins goes high)
void TM1637::stop(void) {
    digitalWrite(clkpin, LOW);
    digitalWrite(datapin, LOW);
    digitalWrite(clkpin, HIGH);
    digitalWrite(datapin, HIGH);
     732:	0c 94 80 03 	jmp	0x700	; 0x700 <digitalWrite>

00000736 <TM1637::start() [clone .constprop.57]>:
_ZN6TM16375startEv.constprop.57():
C:\Users\mathiasc\Documents\Arduino\libraries\Grove_4-Digit_Display/TM1637.cpp:165

    return ack;
}

// Send start signal to TM1637 (start = when both pins goes low)
void TM1637::start(void) {
     736:	cf 93       	push	r28
     738:	df 93       	push	r29
C:\Users\mathiasc\Documents\Arduino\libraries\Grove_4-Digit_Display/TM1637.cpp:166
    digitalWrite(clkpin, HIGH);
     73a:	c4 e4       	ldi	r28, 0x44	; 68
     73c:	d9 e2       	ldi	r29, 0x29	; 41
     73e:	61 e0       	ldi	r22, 0x01	; 1
     740:	8e 81       	ldd	r24, Y+6	; 0x06
     742:	0e 94 80 03 	call	0x700	; 0x700 <digitalWrite>
C:\Users\mathiasc\Documents\Arduino\libraries\Grove_4-Digit_Display/TM1637.cpp:167
    digitalWrite(datapin, HIGH);
     746:	61 e0       	ldi	r22, 0x01	; 1
     748:	8f 81       	ldd	r24, Y+7	; 0x07
     74a:	0e 94 80 03 	call	0x700	; 0x700 <digitalWrite>
C:\Users\mathiasc\Documents\Arduino\libraries\Grove_4-Digit_Display/TM1637.cpp:168
    digitalWrite(datapin, LOW);
     74e:	60 e0       	ldi	r22, 0x00	; 0
     750:	8f 81       	ldd	r24, Y+7	; 0x07
     752:	0e 94 80 03 	call	0x700	; 0x700 <digitalWrite>
C:\Users\mathiasc\Documents\Arduino\libraries\Grove_4-Digit_Display/TM1637.cpp:169
    digitalWrite(clkpin, LOW);
     756:	60 e0       	ldi	r22, 0x00	; 0
     758:	8e 81       	ldd	r24, Y+6	; 0x06
C:\Users\mathiasc\Documents\Arduino\libraries\Grove_4-Digit_Display/TM1637.cpp:170
}
     75a:	df 91       	pop	r29
     75c:	cf 91       	pop	r28
C:\Users\mathiasc\Documents\Arduino\libraries\Grove_4-Digit_Display/TM1637.cpp:169
// Send start signal to TM1637 (start = when both pins goes low)
void TM1637::start(void) {
    digitalWrite(clkpin, HIGH);
    digitalWrite(datapin, HIGH);
    digitalWrite(datapin, LOW);
    digitalWrite(clkpin, LOW);
     75e:	0c 94 80 03 	jmp	0x700	; 0x700 <digitalWrite>

00000762 <UartClass::begin(unsigned long, unsigned int)>:
_ZN9UartClass5beginEmj():
C:\Users\mathiasc\AppData\Local\Arduino15\packages\MegaCoreX\hardware\megaavr\1.0.4\cores\coreX-corefiles/UART.cpp:180
    return false;
  }
}

void UartClass::begin(unsigned long baud, uint16_t config)
{
     762:	af 92       	push	r10
     764:	bf 92       	push	r11
     766:	cf 92       	push	r12
     768:	df 92       	push	r13
     76a:	ef 92       	push	r14
     76c:	ff 92       	push	r15
     76e:	0f 93       	push	r16
     770:	1f 93       	push	r17
     772:	cf 93       	push	r28
     774:	df 93       	push	r29
     776:	ec 01       	movw	r28, r24
     778:	6a 01       	movw	r12, r20
     77a:	7b 01       	movw	r14, r22
     77c:	a2 2e       	mov	r10, r18
C:\Users\mathiasc\AppData\Local\Arduino15\packages\MegaCoreX\hardware\megaavr\1.0.4\cores\coreX-corefiles/UART.cpp:183
  // Make sure no transmissions are ongoing and USART is disabled in case begin() is called by accident
  // without first calling end()
  if (_written)
     77e:	8d 89       	ldd	r24, Y+21	; 0x15
     780:	88 23       	and	r24, r24
     782:	39 f0       	breq	.+14     	; 0x792 <UartClass::begin(unsigned long, unsigned int)+0x30>
C:\Users\mathiasc\AppData\Local\Arduino15\packages\MegaCoreX\hardware\megaavr\1.0.4\cores\coreX-corefiles/UART.cpp:185
  {
    this->end();
     784:	e8 81       	ld	r30, Y
     786:	f9 81       	ldd	r31, Y+1	; 0x01
     788:	06 88       	ldd	r0, Z+22	; 0x16
     78a:	f7 89       	ldd	r31, Z+23	; 0x17
     78c:	e0 2d       	mov	r30, r0
     78e:	ce 01       	movw	r24, r28
     790:	09 95       	icall
C:\Users\mathiasc\AppData\Local\Arduino15\packages\MegaCoreX\hardware\megaavr\1.0.4\cores\coreX-corefiles/UART.cpp:188
  }

  struct UartPinSet *set = &_hw_set[_pin_set];
     792:	0c 89       	ldd	r16, Y+20	; 0x14
     794:	10 e0       	ldi	r17, 0x00	; 0
C:\Users\mathiasc\AppData\Local\Arduino15\packages\MegaCoreX\hardware\megaavr\1.0.4\cores\coreX-corefiles/UART.cpp:193

  int32_t baud_setting = 0;

  //Make sure global interrupts are disabled during initialization
  uint8_t oldSREG = SREG;
     796:	bf b6       	in	r11, 0x3f	; 63
C:\Users\mathiasc\AppData\Local\Arduino15\packages\MegaCoreX\hardware\megaavr\1.0.4\cores\coreX-corefiles/UART.cpp:194
  cli();
     798:	f8 94       	cli
C:\Users\mathiasc\AppData\Local\Arduino15\packages\MegaCoreX\hardware\megaavr\1.0.4\cores\coreX-corefiles/UART.cpp:196

  baud_setting = (((8 * F_CPU) / baud) + 1) / 2;
     79a:	60 e0       	ldi	r22, 0x00	; 0
     79c:	78 e6       	ldi	r23, 0x68	; 104
     79e:	89 e8       	ldi	r24, 0x89	; 137
     7a0:	99 e0       	ldi	r25, 0x09	; 9
     7a2:	a7 01       	movw	r20, r14
     7a4:	96 01       	movw	r18, r12
     7a6:	0e 94 22 1b 	call	0x3644	; 0x3644 <__udivmodsi4>
     7aa:	69 01       	movw	r12, r18
     7ac:	7a 01       	movw	r14, r20
     7ae:	8f ef       	ldi	r24, 0xFF	; 255
     7b0:	c8 1a       	sub	r12, r24
     7b2:	d8 0a       	sbc	r13, r24
     7b4:	e8 0a       	sbc	r14, r24
     7b6:	f8 0a       	sbc	r15, r24
     7b8:	f6 94       	lsr	r15
     7ba:	e7 94       	ror	r14
     7bc:	d7 94       	ror	r13
     7be:	c7 94       	ror	r12
C:\Users\mathiasc\AppData\Local\Arduino15\packages\MegaCoreX\hardware\megaavr\1.0.4\cores\coreX-corefiles/UART.cpp:198
  // Disable CLK2X
  (*_hwserial_module).CTRLB &= (~USART_RXMODE_CLK2X_gc);
     7c0:	ec 85       	ldd	r30, Y+12	; 0x0c
     7c2:	fd 85       	ldd	r31, Y+13	; 0x0d
     7c4:	86 81       	ldd	r24, Z+6	; 0x06
     7c6:	8d 7f       	andi	r24, 0xFD	; 253
     7c8:	86 83       	std	Z+6, r24	; 0x06
C:\Users\mathiasc\AppData\Local\Arduino15\packages\MegaCoreX\hardware\megaavr\1.0.4\cores\coreX-corefiles/UART.cpp:199
  (*_hwserial_module).CTRLB |= USART_RXMODE_NORMAL_gc;
     7ca:	ec 85       	ldd	r30, Y+12	; 0x0c
     7cc:	fd 85       	ldd	r31, Y+13	; 0x0d
     7ce:	86 81       	ldd	r24, Z+6	; 0x06
     7d0:	86 83       	std	Z+6, r24	; 0x06
C:\Users\mathiasc\AppData\Local\Arduino15\packages\MegaCoreX\hardware\megaavr\1.0.4\cores\coreX-corefiles/UART.cpp:201

  _written = false;
     7d2:	1d 8a       	std	Y+21, r1	; 0x15
C:\Users\mathiasc\AppData\Local\Arduino15\packages\MegaCoreX\hardware\megaavr\1.0.4\cores\coreX-corefiles/UART.cpp:208
  int8_t sigrow_val = 0;

// Use error compensation if internal oscillator is used
#if !defined(USE_EXTERNAL_OSCILLATOR)
#if F_CPU == 20000000L
  sigrow_val = SIGROW.OSC20ERR5V;
     7d4:	a0 91 25 11 	lds	r26, 0x1125	; 0x801125 <__TEXT_REGION_LENGTH__+0x7f5125>
C:\Users\mathiasc\AppData\Local\Arduino15\packages\MegaCoreX\hardware\megaavr\1.0.4\cores\coreX-corefiles/UART.cpp:214
#else
  sigrow_val = SIGROW.OSC16ERR5V;
#endif
#endif

  baud_setting += (baud_setting * sigrow_val) / 1024;
     7d8:	0a 2e       	mov	r0, r26
     7da:	00 0c       	add	r0, r0
     7dc:	bb 0b       	sbc	r27, r27
     7de:	a7 01       	movw	r20, r14
     7e0:	96 01       	movw	r18, r12
     7e2:	0e 94 8a 1b 	call	0x3714	; 0x3714 <__mulshisi3>
     7e6:	20 e0       	ldi	r18, 0x00	; 0
     7e8:	34 e0       	ldi	r19, 0x04	; 4
     7ea:	40 e0       	ldi	r20, 0x00	; 0
     7ec:	50 e0       	ldi	r21, 0x00	; 0
     7ee:	0e 94 44 1b 	call	0x3688	; 0x3688 <__divmodsi4>
C:\Users\mathiasc\AppData\Local\Arduino15\packages\MegaCoreX\hardware\megaavr\1.0.4\cores\coreX-corefiles/UART.cpp:217

  // assign the baud_setting, a.k.a. BAUD (USART Baud Rate Register)
  (*_hwserial_module).BAUD = (uint16_t)baud_setting;
     7f2:	ec 85       	ldd	r30, Y+12	; 0x0c
     7f4:	fd 85       	ldd	r31, Y+13	; 0x0d
C:\Users\mathiasc\AppData\Local\Arduino15\packages\MegaCoreX\hardware\megaavr\1.0.4\cores\coreX-corefiles/UART.cpp:214
#else
  sigrow_val = SIGROW.OSC16ERR5V;
#endif
#endif

  baud_setting += (baud_setting * sigrow_val) / 1024;
     7f6:	c2 0e       	add	r12, r18
     7f8:	d3 1e       	adc	r13, r19
     7fa:	e4 1e       	adc	r14, r20
     7fc:	f5 1e       	adc	r15, r21
C:\Users\mathiasc\AppData\Local\Arduino15\packages\MegaCoreX\hardware\megaavr\1.0.4\cores\coreX-corefiles/UART.cpp:217

  // assign the baud_setting, a.k.a. BAUD (USART Baud Rate Register)
  (*_hwserial_module).BAUD = (uint16_t)baud_setting;
     7fe:	c0 86       	std	Z+8, r12	; 0x08
     800:	d1 86       	std	Z+9, r13	; 0x09
C:\Users\mathiasc\AppData\Local\Arduino15\packages\MegaCoreX\hardware\megaavr\1.0.4\cores\coreX-corefiles/UART.cpp:220

  // Set USART mode of operation
  (*_hwserial_module).CTRLC = config;
     802:	ec 85       	ldd	r30, Y+12	; 0x0c
     804:	fd 85       	ldd	r31, Y+13	; 0x0d
     806:	a7 82       	std	Z+7, r10	; 0x07
C:\Users\mathiasc\AppData\Local\Arduino15\packages\MegaCoreX\hardware\megaavr\1.0.4\cores\coreX-corefiles/UART.cpp:223

  // Enable transmitter and receiver
  (*_hwserial_module).CTRLB |= (USART_RXEN_bm | USART_TXEN_bm);
     808:	ec 85       	ldd	r30, Y+12	; 0x0c
     80a:	fd 85       	ldd	r31, Y+13	; 0x0d
     80c:	86 81       	ldd	r24, Z+6	; 0x06
     80e:	80 6c       	ori	r24, 0xC0	; 192
     810:	86 83       	std	Z+6, r24	; 0x06
C:\Users\mathiasc\AppData\Local\Arduino15\packages\MegaCoreX\hardware\megaavr\1.0.4\cores\coreX-corefiles/UART.cpp:225

  (*_hwserial_module).CTRLA |= USART_RXCIE_bm;
     812:	ec 85       	ldd	r30, Y+12	; 0x0c
     814:	fd 85       	ldd	r31, Y+13	; 0x0d
     816:	85 81       	ldd	r24, Z+5	; 0x05
     818:	80 68       	ori	r24, 0x80	; 128
     81a:	85 83       	std	Z+5, r24	; 0x05
C:\Users\mathiasc\AppData\Local\Arduino15\packages\MegaCoreX\hardware\megaavr\1.0.4\cores\coreX-corefiles/UART.cpp:228

  // Let PORTMUX point to alternative UART pins as requested
  PORTMUX.USARTROUTEA = set->mux | (PORTMUX.USARTROUTEA & ~_hw_set[1].mux);
     81c:	90 91 e2 05 	lds	r25, 0x05E2	; 0x8005e2 <__TEXT_REGION_LENGTH__+0x7f45e2>
     820:	8b 89       	ldd	r24, Y+19	; 0x13
     822:	80 95       	com	r24
     824:	89 23       	and	r24, r25
     826:	98 01       	movw	r18, r16
     828:	22 0f       	add	r18, r18
     82a:	33 1f       	adc	r19, r19
     82c:	02 0f       	add	r16, r18
     82e:	13 1f       	adc	r17, r19
     830:	c0 0f       	add	r28, r16
     832:	d1 1f       	adc	r29, r17
     834:	98 89       	ldd	r25, Y+16	; 0x10
     836:	89 2b       	or	r24, r25
     838:	80 93 e2 05 	sts	0x05E2, r24	; 0x8005e2 <__TEXT_REGION_LENGTH__+0x7f45e2>
C:\Users\mathiasc\AppData\Local\Arduino15\packages\MegaCoreX\hardware\megaavr\1.0.4\cores\coreX-corefiles/UART.cpp:231

  // Set pin state for swapped UART pins
  pinMode(set->rx_pin, INPUT_PULLUP);
     83c:	62 e0       	ldi	r22, 0x02	; 2
     83e:	8e 85       	ldd	r24, Y+14	; 0x0e
     840:	0e 94 11 03 	call	0x622	; 0x622 <pinMode>
C:\Users\mathiasc\AppData\Local\Arduino15\packages\MegaCoreX\hardware\megaavr\1.0.4\cores\coreX-corefiles/UART.cpp:232
  digitalWrite(set->tx_pin, HIGH);
     844:	61 e0       	ldi	r22, 0x01	; 1
     846:	8f 85       	ldd	r24, Y+15	; 0x0f
     848:	0e 94 80 03 	call	0x700	; 0x700 <digitalWrite>
C:\Users\mathiasc\AppData\Local\Arduino15\packages\MegaCoreX\hardware\megaavr\1.0.4\cores\coreX-corefiles/UART.cpp:233
  pinMode(set->tx_pin, OUTPUT);
     84c:	61 e0       	ldi	r22, 0x01	; 1
     84e:	8f 85       	ldd	r24, Y+15	; 0x0f
     850:	0e 94 11 03 	call	0x622	; 0x622 <pinMode>
C:\Users\mathiasc\AppData\Local\Arduino15\packages\MegaCoreX\hardware\megaavr\1.0.4\cores\coreX-corefiles/UART.cpp:236

  // Restore SREG content
  SREG = oldSREG;
     854:	bf be       	out	0x3f, r11	; 63
C:\Users\mathiasc\AppData\Local\Arduino15\packages\MegaCoreX\hardware\megaavr\1.0.4\cores\coreX-corefiles/UART.cpp:237
}
     856:	df 91       	pop	r29
     858:	cf 91       	pop	r28
     85a:	1f 91       	pop	r17
     85c:	0f 91       	pop	r16
     85e:	ff 90       	pop	r15
     860:	ef 90       	pop	r14
     862:	df 90       	pop	r13
     864:	cf 90       	pop	r12
     866:	bf 90       	pop	r11
     868:	af 90       	pop	r10
     86a:	08 95       	ret

0000086c <digitalRead.part.3>:
digitalRead.part.3():
C:\Users\mathiasc\AppData\Local\Arduino15\packages\MegaCoreX\hardware\megaavr\1.0.4\cores\coreX-corefiles/wiring_digital.c:224
    vport->OUT &= ~mask;
  else // CHANGE
    vport->IN = mask;
}

uint8_t digitalRead(uint8_t pin)
     86c:	0f 93       	push	r16
     86e:	1f 93       	push	r17
     870:	cf 93       	push	r28
C:\Users\mathiasc\AppData\Local\Arduino15\packages\MegaCoreX\hardware\megaavr\1.0.4\cores\coreX-corefiles/wiring_digital.c:227
{
  /* Get bit mask and check valid pin */
  uint8_t bit_mask = digitalPinToBitMask(pin);
     872:	08 2f       	mov	r16, r24
     874:	10 e0       	ldi	r17, 0x00	; 0
     876:	f8 01       	movw	r30, r16
     878:	ee 59       	subi	r30, 0x9E	; 158
     87a:	f7 48       	sbci	r31, 0x87	; 135
     87c:	c0 81       	ld	r28, Z
C:\Users\mathiasc\AppData\Local\Arduino15\packages\MegaCoreX\hardware\megaavr\1.0.4\cores\coreX-corefiles/wiring_digital.c:228
  if (bit_mask == NOT_A_PIN)
     87e:	cf 3f       	cpi	r28, 0xFF	; 255
     880:	89 f0       	breq	.+34     	; 0x8a4 <digitalRead.part.3+0x38>
turnOffPWM():
C:\Users\mathiasc\AppData\Local\Arduino15\packages\MegaCoreX\hardware\megaavr\1.0.4\cores\coreX-corefiles/wiring_digital.c:97
static void turnOffPWM(uint8_t pin)
{
  /* Actually turn off compare channel, not the timer */

  /* Get pin's timer */
  uint8_t timer = digitalPinToTimer(pin);
     882:	89 32       	cpi	r24, 0x29	; 41
     884:	10 f4       	brcc	.+4      	; 0x88a <digitalRead.part.3+0x1e>
     886:	0e 94 16 03 	call	0x62c	; 0x62c <turnOffPWM.part.0>
digitalRead.part.3():
C:\Users\mathiasc\AppData\Local\Arduino15\packages\MegaCoreX\hardware\megaavr\1.0.4\cores\coreX-corefiles/wiring_digital.c:236
  // If the pin that support PWM output, we need to turn it off
  // before getting a digital reading.
  turnOffPWM(pin);

  /* Get port and check valid port */
  PORT_t *port = digitalPinToPortStruct(pin);
     88a:	f8 01       	movw	r30, r16
     88c:	e7 5c       	subi	r30, 0xC7	; 199
     88e:	f7 48       	sbci	r31, 0x87	; 135
     890:	e0 81       	ld	r30, Z
     892:	80 e2       	ldi	r24, 0x20	; 32
     894:	e8 9f       	mul	r30, r24
     896:	f0 01       	movw	r30, r0
     898:	11 24       	eor	r1, r1
     89a:	fc 5f       	subi	r31, 0xFC	; 252
C:\Users\mathiasc\AppData\Local\Arduino15\packages\MegaCoreX\hardware\megaavr\1.0.4\cores\coreX-corefiles/wiring_digital.c:239

  /* Read pin value from PORTx.IN register */
  if (port->IN & bit_mask)
     89c:	80 85       	ldd	r24, Z+8	; 0x08
     89e:	c8 23       	and	r28, r24
     8a0:	81 e0       	ldi	r24, 0x01	; 1
     8a2:	09 f4       	brne	.+2      	; 0x8a6 <digitalRead.part.3+0x3a>
C:\Users\mathiasc\AppData\Local\Arduino15\packages\MegaCoreX\hardware\megaavr\1.0.4\cores\coreX-corefiles/wiring_digital.c:229
uint8_t digitalRead(uint8_t pin)
{
  /* Get bit mask and check valid pin */
  uint8_t bit_mask = digitalPinToBitMask(pin);
  if (bit_mask == NOT_A_PIN)
    return LOW;
     8a4:	80 e0       	ldi	r24, 0x00	; 0
C:\Users\mathiasc\AppData\Local\Arduino15\packages\MegaCoreX\hardware\megaavr\1.0.4\cores\coreX-corefiles/wiring_digital.c:245
    return HIGH;
  else
    return LOW;

  return LOW;
}
     8a6:	cf 91       	pop	r28
     8a8:	1f 91       	pop	r17
     8aa:	0f 91       	pop	r16
     8ac:	08 95       	ret

000008ae <delayMicroseconds>:
	...
delayMicroseconds():
C:\Users\mathiasc\AppData\Local\Arduino15\packages\MegaCoreX\hardware\megaavr\1.0.4\cores\coreX-corefiles/wiring.c:213
  us = (us << 2) + us; // x5 us, = 7 cycles

  // account for the time taken in the preceeding commands.
  // we just burned 26 (28) cycles above, remove 7, (7*4=28)
  // us is at least 10 so we can substract 7
  us -= 7; // 2 cycles
     8b6:	9c 01       	movw	r18, r24
     8b8:	27 50       	subi	r18, 0x07	; 7
     8ba:	31 09       	sbc	r19, r1
C:\Users\mathiasc\AppData\Local\Arduino15\packages\MegaCoreX\hardware\megaavr\1.0.4\cores\coreX-corefiles/wiring.c:208
  if (us <= 1) return; //  = 3 cycles, (4 when true)

  // the following loop takes a 1/5 of a microsecond (4 cycles)
  // per iteration, so execute it five times for each microsecond of
  // delay requested.
  us = (us << 2) + us; // x5 us, = 7 cycles
     8bc:	88 0f       	add	r24, r24
     8be:	99 1f       	adc	r25, r25
     8c0:	88 0f       	add	r24, r24
     8c2:	99 1f       	adc	r25, r25
C:\Users\mathiasc\AppData\Local\Arduino15\packages\MegaCoreX\hardware\megaavr\1.0.4\cores\coreX-corefiles/wiring.c:213

  // account for the time taken in the preceeding commands.
  // we just burned 26 (28) cycles above, remove 7, (7*4=28)
  // us is at least 10 so we can substract 7
  us -= 7; // 2 cycles
     8c4:	82 0f       	add	r24, r18
     8c6:	93 1f       	adc	r25, r19
C:\Users\mathiasc\AppData\Local\Arduino15\packages\MegaCoreX\hardware\megaavr\1.0.4\cores\coreX-corefiles/wiring.c:304
  us >>= 2; // us div 4, = 4 cycles

#endif

  // busy wait
  __asm__ __volatile__(
     8c8:	01 97       	sbiw	r24, 0x01	; 1
     8ca:	f1 f7       	brne	.-4      	; 0x8c8 <delayMicroseconds+0x1a>
C:\Users\mathiasc\AppData\Local\Arduino15\packages\MegaCoreX\hardware\megaavr\1.0.4\cores\coreX-corefiles/wiring.c:312
      "brne 1b"
      : "=w"(us)
      : "0"(us) // 2 cycles
  );
  // return = 4 cycles
}
     8cc:	08 95       	ret

000008ce <TM1637::writeByte(signed char) [clone .constprop.58]>:
_ZN6TM16379writeByteEa.constprop.58():
C:\Users\mathiasc\Documents\Arduino\libraries\Grove_4-Digit_Display/TM1637.cpp:130

void TM1637::init(void) {
    clearDisplay();
}

int TM1637::writeByte(int8_t wr_data) {
     8ce:	0f 93       	push	r16
     8d0:	1f 93       	push	r17
     8d2:	cf 93       	push	r28
     8d4:	df 93       	push	r29
     8d6:	d8 2f       	mov	r29, r24
     8d8:	c8 e0       	ldi	r28, 0x08	; 8
C:\Users\mathiasc\Documents\Arduino\libraries\Grove_4-Digit_Display/TM1637.cpp:132
    for (uint8_t i = 0; i < 8; i++) { // Sent 8bit data
        digitalWrite(clkpin, LOW);
     8da:	60 e0       	ldi	r22, 0x00	; 0
     8dc:	80 91 4a 29 	lds	r24, 0x294A	; 0x80294a <tm1637+0x6>
     8e0:	0e 94 80 03 	call	0x700	; 0x700 <digitalWrite>
C:\Users\mathiasc\Documents\Arduino\libraries\Grove_4-Digit_Display/TM1637.cpp:134

        if (wr_data & 0x01) {
     8e4:	0d 2f       	mov	r16, r29
     8e6:	0d 2e       	mov	r0, r29
     8e8:	00 0c       	add	r0, r0
     8ea:	11 0b       	sbc	r17, r17
C:\Users\mathiasc\Documents\Arduino\libraries\Grove_4-Digit_Display/TM1637.cpp:135
            digitalWrite(datapin, HIGH);    // LSB first
     8ec:	61 e0       	ldi	r22, 0x01	; 1
C:\Users\mathiasc\Documents\Arduino\libraries\Grove_4-Digit_Display/TM1637.cpp:134

int TM1637::writeByte(int8_t wr_data) {
    for (uint8_t i = 0; i < 8; i++) { // Sent 8bit data
        digitalWrite(clkpin, LOW);

        if (wr_data & 0x01) {
     8ee:	d0 ff       	sbrs	r29, 0
C:\Users\mathiasc\Documents\Arduino\libraries\Grove_4-Digit_Display/TM1637.cpp:137
            digitalWrite(datapin, HIGH);    // LSB first
        } else {
            digitalWrite(datapin, LOW);
     8f0:	60 e0       	ldi	r22, 0x00	; 0
     8f2:	80 91 4b 29 	lds	r24, 0x294B	; 0x80294b <tm1637+0x7>
     8f6:	0e 94 80 03 	call	0x700	; 0x700 <digitalWrite>
C:\Users\mathiasc\Documents\Arduino\libraries\Grove_4-Digit_Display/TM1637.cpp:140
        }

        wr_data >>= 1;
     8fa:	15 95       	asr	r17
     8fc:	07 95       	ror	r16
     8fe:	d0 2f       	mov	r29, r16
C:\Users\mathiasc\Documents\Arduino\libraries\Grove_4-Digit_Display/TM1637.cpp:141
        digitalWrite(clkpin, HIGH);
     900:	61 e0       	ldi	r22, 0x01	; 1
     902:	80 91 4a 29 	lds	r24, 0x294A	; 0x80294a <tm1637+0x6>
     906:	0e 94 80 03 	call	0x700	; 0x700 <digitalWrite>
     90a:	c1 50       	subi	r28, 0x01	; 1
C:\Users\mathiasc\Documents\Arduino\libraries\Grove_4-Digit_Display/TM1637.cpp:131
void TM1637::init(void) {
    clearDisplay();
}

int TM1637::writeByte(int8_t wr_data) {
    for (uint8_t i = 0; i < 8; i++) { // Sent 8bit data
     90c:	31 f7       	brne	.-52     	; 0x8da <TM1637::writeByte(signed char) [clone .constprop.58]+0xc>
C:\Users\mathiasc\Documents\Arduino\libraries\Grove_4-Digit_Display/TM1637.cpp:144

        wr_data >>= 1;
        digitalWrite(clkpin, HIGH);
    }

    digitalWrite(clkpin, LOW); // Wait for the ACK
     90e:	60 e0       	ldi	r22, 0x00	; 0
     910:	80 91 4a 29 	lds	r24, 0x294A	; 0x80294a <tm1637+0x6>
     914:	0e 94 80 03 	call	0x700	; 0x700 <digitalWrite>
C:\Users\mathiasc\Documents\Arduino\libraries\Grove_4-Digit_Display/TM1637.cpp:145
    digitalWrite(datapin, HIGH);
     918:	61 e0       	ldi	r22, 0x01	; 1
     91a:	80 91 4b 29 	lds	r24, 0x294B	; 0x80294b <tm1637+0x7>
     91e:	0e 94 80 03 	call	0x700	; 0x700 <digitalWrite>
C:\Users\mathiasc\Documents\Arduino\libraries\Grove_4-Digit_Display/TM1637.cpp:146
    digitalWrite(clkpin, HIGH);
     922:	61 e0       	ldi	r22, 0x01	; 1
     924:	80 91 4a 29 	lds	r24, 0x294A	; 0x80294a <tm1637+0x6>
     928:	0e 94 80 03 	call	0x700	; 0x700 <digitalWrite>
C:\Users\mathiasc\Documents\Arduino\libraries\Grove_4-Digit_Display/TM1637.cpp:147
    pinMode(datapin, INPUT);
     92c:	60 e0       	ldi	r22, 0x00	; 0
     92e:	80 91 4b 29 	lds	r24, 0x294B	; 0x80294b <tm1637+0x7>
     932:	0e 94 11 03 	call	0x622	; 0x622 <pinMode>
bitDelay():
C:\Users\mathiasc\Documents\Arduino\libraries\Grove_4-Digit_Display/TM1637.cpp:316

    return disp_data;
}

void TM1637::bitDelay(void) {
    delayMicroseconds(50);
     936:	82 e3       	ldi	r24, 0x32	; 50
     938:	90 e0       	ldi	r25, 0x00	; 0
     93a:	0e 94 57 04 	call	0x8ae	; 0x8ae <delayMicroseconds>
_ZN6TM16379writeByteEa.constprop.58():
C:\Users\mathiasc\Documents\Arduino\libraries\Grove_4-Digit_Display/TM1637.cpp:150
    digitalWrite(datapin, HIGH);
    digitalWrite(clkpin, HIGH);
    pinMode(datapin, INPUT);

    bitDelay();
    uint8_t ack = digitalRead(datapin);
     93e:	80 91 4b 29 	lds	r24, 0x294B	; 0x80294b <tm1637+0x7>
digitalRead():
C:\Users\mathiasc\AppData\Local\Arduino15\packages\MegaCoreX\hardware\megaavr\1.0.4\cores\coreX-corefiles/wiring_digital.c:227
}

uint8_t digitalRead(uint8_t pin)
{
  /* Get bit mask and check valid pin */
  uint8_t bit_mask = digitalPinToBitMask(pin);
     942:	89 32       	cpi	r24, 0x29	; 41
     944:	f8 f0       	brcs	.+62     	; 0x984 <TM1637::writeByte(signed char) [clone .constprop.58]+0xb6>
_ZN6TM16379writeByteEa.constprop.58():
C:\Users\mathiasc\Documents\Arduino\libraries\Grove_4-Digit_Display/TM1637.cpp:153

    if (ack == 0) {
        pinMode(datapin, OUTPUT);
     946:	61 e0       	ldi	r22, 0x01	; 1
     948:	80 91 4b 29 	lds	r24, 0x294B	; 0x80294b <tm1637+0x7>
     94c:	0e 94 11 03 	call	0x622	; 0x622 <pinMode>
C:\Users\mathiasc\Documents\Arduino\libraries\Grove_4-Digit_Display/TM1637.cpp:154
        digitalWrite(datapin, LOW);
     950:	60 e0       	ldi	r22, 0x00	; 0
     952:	80 91 4b 29 	lds	r24, 0x294B	; 0x80294b <tm1637+0x7>
     956:	0e 94 80 03 	call	0x700	; 0x700 <digitalWrite>
     95a:	c0 e0       	ldi	r28, 0x00	; 0
bitDelay():
C:\Users\mathiasc\Documents\Arduino\libraries\Grove_4-Digit_Display/TM1637.cpp:316

    return disp_data;
}

void TM1637::bitDelay(void) {
    delayMicroseconds(50);
     95c:	82 e3       	ldi	r24, 0x32	; 50
     95e:	90 e0       	ldi	r25, 0x00	; 0
     960:	0e 94 57 04 	call	0x8ae	; 0x8ae <delayMicroseconds>
_ZN6TM16379writeByteEa.constprop.58():
C:\Users\mathiasc\Documents\Arduino\libraries\Grove_4-Digit_Display/TM1637.cpp:158
        pinMode(datapin, OUTPUT);
        digitalWrite(datapin, LOW);
    }

    bitDelay();
    pinMode(datapin, OUTPUT);
     964:	61 e0       	ldi	r22, 0x01	; 1
     966:	80 91 4b 29 	lds	r24, 0x294B	; 0x80294b <tm1637+0x7>
     96a:	0e 94 11 03 	call	0x622	; 0x622 <pinMode>
bitDelay():
C:\Users\mathiasc\Documents\Arduino\libraries\Grove_4-Digit_Display/TM1637.cpp:316

    return disp_data;
}

void TM1637::bitDelay(void) {
    delayMicroseconds(50);
     96e:	82 e3       	ldi	r24, 0x32	; 50
     970:	90 e0       	ldi	r25, 0x00	; 0
     972:	0e 94 57 04 	call	0x8ae	; 0x8ae <delayMicroseconds>
_ZN6TM16379writeByteEa.constprop.58():
C:\Users\mathiasc\Documents\Arduino\libraries\Grove_4-Digit_Display/TM1637.cpp:162
    bitDelay();
    pinMode(datapin, OUTPUT);
    bitDelay();

    return ack;
}
     976:	8c 2f       	mov	r24, r28
     978:	90 e0       	ldi	r25, 0x00	; 0
     97a:	df 91       	pop	r29
     97c:	cf 91       	pop	r28
     97e:	1f 91       	pop	r17
     980:	0f 91       	pop	r16
     982:	08 95       	ret
digitalRead():
     984:	0e 94 36 04 	call	0x86c	; 0x86c <digitalRead.part.3>
     988:	c8 2f       	mov	r28, r24
_ZN6TM16379writeByteEa.constprop.58():
C:\Users\mathiasc\Documents\Arduino\libraries\Grove_4-Digit_Display/TM1637.cpp:152
    pinMode(datapin, INPUT);

    bitDelay();
    uint8_t ack = digitalRead(datapin);

    if (ack == 0) {
     98a:	81 11       	cpse	r24, r1
     98c:	e7 cf       	rjmp	.-50     	; 0x95c <TM1637::writeByte(signed char) [clone .constprop.58]+0x8e>
     98e:	db cf       	rjmp	.-74     	; 0x946 <TM1637::writeByte(signed char) [clone .constprop.58]+0x78>

00000990 <TM1637::display(unsigned char, signed char) [clone .constprop.55]>:
_ZN6TM16377displayEha.constprop.55():
C:\Users\mathiasc\Documents\Arduino\libraries\Grove_4-Digit_Display/TM1637.cpp:207
    writeByte(cmd_disp_ctrl); // Control display
    stop();
}

//******************************************
void TM1637::display(uint8_t bit_addr, int8_t disp_data) {
     990:	cf 93       	push	r28
     992:	df 93       	push	r29
     994:	d8 2f       	mov	r29, r24
     996:	e6 2f       	mov	r30, r22
coding():
C:\Users\mathiasc\Documents\Arduino\libraries\Grove_4-Digit_Display/TM1637.cpp:301
        disp_data[i] = coding(disp_data[i]);
    }
}

int8_t TM1637::coding(int8_t disp_data) {
    if (disp_data == 0x7f) {
     998:	6f 37       	cpi	r22, 0x7F	; 127
     99a:	d9 f1       	breq	.+118    	; 0xa12 <TM1637::display(unsigned char, signed char) [clone .constprop.55]+0x82>
C:\Users\mathiasc\Documents\Arduino\libraries\Grove_4-Digit_Display/TM1637.cpp:303
        disp_data = 0x00;    // Clear digit
    } else if (disp_data >= 0 && disp_data < int(sizeof(tube_tab) / sizeof(*tube_tab))) {
     99c:	60 31       	cpi	r22, 0x10	; 16
     99e:	40 f5       	brcc	.+80     	; 0x9f0 <TM1637::display(unsigned char, signed char) [clone .constprop.55]+0x60>
C:\Users\mathiasc\Documents\Arduino\libraries\Grove_4-Digit_Display/TM1637.cpp:304
        disp_data = tube_tab[disp_data];
     9a0:	0e 2e       	mov	r0, r30
     9a2:	00 0c       	add	r0, r0
     9a4:	ff 0b       	sbc	r31, r31
     9a6:	e5 5f       	subi	r30, 0xF5	; 245
     9a8:	f7 48       	sbci	r31, 0x87	; 135
     9aa:	80 81       	ld	r24, Z
C:\Users\mathiasc\Documents\Arduino\libraries\Grove_4-Digit_Display/TM1637.cpp:310
    } else if (disp_data >= '0' && disp_data <= '9') {
        disp_data = tube_tab[int(disp_data) - 48];    // char to int (char "0" = ASCII 48)
    } else {
        disp_data = char2segments(disp_data);
    }
    disp_data += _PointFlag == POINT_ON ? 0x80 : 0;
     9ac:	90 91 47 29 	lds	r25, 0x2947	; 0x802947 <tm1637+0x3>
_ZN6TM16377displayEha.constprop.55():
     9b0:	c0 e0       	ldi	r28, 0x00	; 0
coding():
     9b2:	91 11       	cpse	r25, r1
_ZN6TM16377displayEha.constprop.55():
     9b4:	c0 e8       	ldi	r28, 0x80	; 128
coding():
     9b6:	c8 0f       	add	r28, r24
_ZN6TM16377displayEha.constprop.55():
C:\Users\mathiasc\Documents\Arduino\libraries\Grove_4-Digit_Display/TM1637.cpp:211
//******************************************
void TM1637::display(uint8_t bit_addr, int8_t disp_data) {
    int8_t seg_data;

    seg_data = coding(disp_data);
    start();               // Start signal sent to TM1637 from MCU
     9b8:	0e 94 9b 03 	call	0x736	; 0x736 <TM1637::start() [clone .constprop.57]>
C:\Users\mathiasc\Documents\Arduino\libraries\Grove_4-Digit_Display/TM1637.cpp:212
    writeByte(ADDR_FIXED); // Command1: Set data
     9bc:	84 e4       	ldi	r24, 0x44	; 68
     9be:	0e 94 67 04 	call	0x8ce	; 0x8ce <TM1637::writeByte(signed char) [clone .constprop.58]>
C:\Users\mathiasc\Documents\Arduino\libraries\Grove_4-Digit_Display/TM1637.cpp:213
    stop();
     9c2:	0e 94 85 03 	call	0x70a	; 0x70a <TM1637::stop() [clone .constprop.59]>
C:\Users\mathiasc\Documents\Arduino\libraries\Grove_4-Digit_Display/TM1637.cpp:214
    start();
     9c6:	0e 94 9b 03 	call	0x736	; 0x736 <TM1637::start() [clone .constprop.57]>
C:\Users\mathiasc\Documents\Arduino\libraries\Grove_4-Digit_Display/TM1637.cpp:215
    writeByte(bit_addr | 0xc0); // Command2: Set data (fixed address)
     9ca:	8d 2f       	mov	r24, r29
     9cc:	80 6c       	ori	r24, 0xC0	; 192
     9ce:	0e 94 67 04 	call	0x8ce	; 0x8ce <TM1637::writeByte(signed char) [clone .constprop.58]>
C:\Users\mathiasc\Documents\Arduino\libraries\Grove_4-Digit_Display/TM1637.cpp:216
    writeByte(seg_data);        // Transfer display data 8 bits
     9d2:	8c 2f       	mov	r24, r28
     9d4:	0e 94 67 04 	call	0x8ce	; 0x8ce <TM1637::writeByte(signed char) [clone .constprop.58]>
C:\Users\mathiasc\Documents\Arduino\libraries\Grove_4-Digit_Display/TM1637.cpp:217
    stop();
     9d8:	0e 94 85 03 	call	0x70a	; 0x70a <TM1637::stop() [clone .constprop.59]>
C:\Users\mathiasc\Documents\Arduino\libraries\Grove_4-Digit_Display/TM1637.cpp:218
    start();
     9dc:	0e 94 9b 03 	call	0x736	; 0x736 <TM1637::start() [clone .constprop.57]>
C:\Users\mathiasc\Documents\Arduino\libraries\Grove_4-Digit_Display/TM1637.cpp:219
    writeByte(cmd_disp_ctrl); // Control display
     9e0:	80 91 46 29 	lds	r24, 0x2946	; 0x802946 <tm1637+0x2>
     9e4:	0e 94 67 04 	call	0x8ce	; 0x8ce <TM1637::writeByte(signed char) [clone .constprop.58]>
C:\Users\mathiasc\Documents\Arduino\libraries\Grove_4-Digit_Display/TM1637.cpp:221
    stop();
}
     9e8:	df 91       	pop	r29
     9ea:	cf 91       	pop	r28
C:\Users\mathiasc\Documents\Arduino\libraries\Grove_4-Digit_Display/TM1637.cpp:220
    writeByte(bit_addr | 0xc0); // Command2: Set data (fixed address)
    writeByte(seg_data);        // Transfer display data 8 bits
    stop();
    start();
    writeByte(cmd_disp_ctrl); // Control display
    stop();
     9ec:	0c 94 85 03 	jmp	0x70a	; 0x70a <TM1637::stop() [clone .constprop.59]>
coding():
C:\Users\mathiasc\Documents\Arduino\libraries\Grove_4-Digit_Display/TM1637.cpp:305
int8_t TM1637::coding(int8_t disp_data) {
    if (disp_data == 0x7f) {
        disp_data = 0x00;    // Clear digit
    } else if (disp_data >= 0 && disp_data < int(sizeof(tube_tab) / sizeof(*tube_tab))) {
        disp_data = tube_tab[disp_data];
    } else if (disp_data >= '0' && disp_data <= '9') {
     9f0:	80 ed       	ldi	r24, 0xD0	; 208
     9f2:	86 0f       	add	r24, r22
     9f4:	8a 30       	cpi	r24, 0x0A	; 10
     9f6:	30 f4       	brcc	.+12     	; 0xa04 <TM1637::display(unsigned char, signed char) [clone .constprop.55]+0x74>
C:\Users\mathiasc\Documents\Arduino\libraries\Grove_4-Digit_Display/TM1637.cpp:306
        disp_data = tube_tab[int(disp_data) - 48];    // char to int (char "0" = ASCII 48)
     9f8:	0e 2e       	mov	r0, r30
     9fa:	00 0c       	add	r0, r0
     9fc:	ff 0b       	sbc	r31, r31
     9fe:	e5 52       	subi	r30, 0x25	; 37
     a00:	f8 48       	sbci	r31, 0x88	; 136
     a02:	d3 cf       	rjmp	.-90     	; 0x9aa <TM1637::display(unsigned char, signed char) [clone .constprop.55]+0x1a>
     a04:	e0 52       	subi	r30, 0x20	; 32
     a06:	eb 35       	cpi	r30, 0x5B	; 91
     a08:	20 f4       	brcc	.+8      	; 0xa12 <TM1637::display(unsigned char, signed char) [clone .constprop.55]+0x82>
     a0a:	f0 e0       	ldi	r31, 0x00	; 0
     a0c:	e0 55       	subi	r30, 0x50	; 80
     a0e:	f8 48       	sbci	r31, 0x88	; 136
     a10:	cc cf       	rjmp	.-104    	; 0x9aa <TM1637::display(unsigned char, signed char) [clone .constprop.55]+0x1a>
_ZN6TM16377displayEha.constprop.55():
C:\Users\mathiasc\Documents\Arduino\libraries\Grove_4-Digit_Display/TM1637.cpp:302
    }
}

int8_t TM1637::coding(int8_t disp_data) {
    if (disp_data == 0x7f) {
        disp_data = 0x00;    // Clear digit
     a12:	80 e0       	ldi	r24, 0x00	; 0
     a14:	cb cf       	rjmp	.-106    	; 0x9ac <TM1637::display(unsigned char, signed char) [clone .constprop.55]+0x1c>

00000a16 <OneWire::write_bit(unsigned char) [clone .constprop.41]>:
_ZN7OneWire9write_bitEh.constprop.41():
C:\Users\mathiasc\Documents\Arduino\libraries\OneWire/OneWire.cpp:198

//
// Write a bit. Port and bit is used to cut lookup time and provide
// more certain timing.
//
void OneWire::write_bit(uint8_t v)
     a16:	0f 93       	push	r16
     a18:	1f 93       	push	r17
     a1a:	cf 93       	push	r28
C:\Users\mathiasc\Documents\Arduino\libraries\OneWire/OneWire.cpp:200
{
	IO_REG_TYPE mask IO_REG_MASK_ATTR = bitmask;
     a1c:	c0 91 4c 29 	lds	r28, 0x294C	; 0x80294c <ds>
C:\Users\mathiasc\Documents\Arduino\libraries\OneWire/OneWire.cpp:201
	volatile IO_REG_TYPE *reg IO_REG_BASE_ATTR = baseReg;
     a20:	e0 91 4d 29 	lds	r30, 0x294D	; 0x80294d <ds+0x1>
     a24:	f0 91 4e 29 	lds	r31, 0x294E	; 0x80294e <ds+0x2>
     a28:	9c 2f       	mov	r25, r28
     a2a:	90 95       	com	r25
     a2c:	8f 01       	movw	r16, r30
     a2e:	04 50       	subi	r16, 0x04	; 4
     a30:	11 09       	sbc	r17, r1
     a32:	38 97       	sbiw	r30, 0x08	; 8
C:\Users\mathiasc\Documents\Arduino\libraries\OneWire/OneWire.cpp:203

	if (v & 1) {
     a34:	80 ff       	sbrs	r24, 0
     a36:	18 c0       	rjmp	.+48     	; 0xa68 <OneWire::write_bit(unsigned char) [clone .constprop.41]+0x52>
C:\Users\mathiasc\Documents\Arduino\libraries\OneWire/OneWire.cpp:204
		noInterrupts();
     a38:	f8 94       	cli
C:\Users\mathiasc\Documents\Arduino\libraries\OneWire/OneWire.cpp:205
		DIRECT_WRITE_LOW(reg, mask);
     a3a:	d8 01       	movw	r26, r16
     a3c:	8c 91       	ld	r24, X
     a3e:	89 23       	and	r24, r25
     a40:	8c 93       	st	X, r24
C:\Users\mathiasc\Documents\Arduino\libraries\OneWire/OneWire.cpp:206
		DIRECT_MODE_OUTPUT(reg, mask);	// drive output low
     a42:	80 81       	ld	r24, Z
     a44:	8c 2b       	or	r24, r28
     a46:	80 83       	st	Z, r24
C:\Users\mathiasc\Documents\Arduino\libraries\OneWire/OneWire.cpp:207
		delayMicroseconds(10);
     a48:	8a e0       	ldi	r24, 0x0A	; 10
     a4a:	90 e0       	ldi	r25, 0x00	; 0
     a4c:	0e 94 57 04 	call	0x8ae	; 0x8ae <delayMicroseconds>
C:\Users\mathiasc\Documents\Arduino\libraries\OneWire/OneWire.cpp:208
		DIRECT_WRITE_HIGH(reg, mask);	// drive output high
     a50:	f8 01       	movw	r30, r16
     a52:	80 81       	ld	r24, Z
     a54:	c8 2b       	or	r28, r24
     a56:	c0 83       	st	Z, r28
C:\Users\mathiasc\Documents\Arduino\libraries\OneWire/OneWire.cpp:209
		interrupts();
     a58:	78 94       	sei
C:\Users\mathiasc\Documents\Arduino\libraries\OneWire/OneWire.cpp:210
		delayMicroseconds(55);
     a5a:	87 e3       	ldi	r24, 0x37	; 55
     a5c:	90 e0       	ldi	r25, 0x00	; 0
C:\Users\mathiasc\Documents\Arduino\libraries\OneWire/OneWire.cpp:220
		delayMicroseconds(65);
		DIRECT_WRITE_HIGH(reg, mask);	// drive output high
		interrupts();
		delayMicroseconds(5);
	}
}
     a5e:	cf 91       	pop	r28
     a60:	1f 91       	pop	r17
     a62:	0f 91       	pop	r16
C:\Users\mathiasc\Documents\Arduino\libraries\OneWire/OneWire.cpp:218
		DIRECT_WRITE_LOW(reg, mask);
		DIRECT_MODE_OUTPUT(reg, mask);	// drive output low
		delayMicroseconds(65);
		DIRECT_WRITE_HIGH(reg, mask);	// drive output high
		interrupts();
		delayMicroseconds(5);
     a64:	0c 94 57 04 	jmp	0x8ae	; 0x8ae <delayMicroseconds>
C:\Users\mathiasc\Documents\Arduino\libraries\OneWire/OneWire.cpp:212
		delayMicroseconds(10);
		DIRECT_WRITE_HIGH(reg, mask);	// drive output high
		interrupts();
		delayMicroseconds(55);
	} else {
		noInterrupts();
     a68:	f8 94       	cli
C:\Users\mathiasc\Documents\Arduino\libraries\OneWire/OneWire.cpp:213
		DIRECT_WRITE_LOW(reg, mask);
     a6a:	d8 01       	movw	r26, r16
     a6c:	8c 91       	ld	r24, X
     a6e:	89 23       	and	r24, r25
     a70:	8c 93       	st	X, r24
C:\Users\mathiasc\Documents\Arduino\libraries\OneWire/OneWire.cpp:214
		DIRECT_MODE_OUTPUT(reg, mask);	// drive output low
     a72:	80 81       	ld	r24, Z
     a74:	8c 2b       	or	r24, r28
     a76:	80 83       	st	Z, r24
C:\Users\mathiasc\Documents\Arduino\libraries\OneWire/OneWire.cpp:215
		delayMicroseconds(65);
     a78:	81 e4       	ldi	r24, 0x41	; 65
     a7a:	90 e0       	ldi	r25, 0x00	; 0
     a7c:	0e 94 57 04 	call	0x8ae	; 0x8ae <delayMicroseconds>
C:\Users\mathiasc\Documents\Arduino\libraries\OneWire/OneWire.cpp:216
		DIRECT_WRITE_HIGH(reg, mask);	// drive output high
     a80:	f8 01       	movw	r30, r16
     a82:	80 81       	ld	r24, Z
     a84:	c8 2b       	or	r28, r24
     a86:	c0 83       	st	Z, r28
C:\Users\mathiasc\Documents\Arduino\libraries\OneWire/OneWire.cpp:217
		interrupts();
     a88:	78 94       	sei
C:\Users\mathiasc\Documents\Arduino\libraries\OneWire/OneWire.cpp:218
		delayMicroseconds(5);
     a8a:	85 e0       	ldi	r24, 0x05	; 5
     a8c:	90 e0       	ldi	r25, 0x00	; 0
     a8e:	e7 cf       	rjmp	.-50     	; 0xa5e <OneWire::write_bit(unsigned char) [clone .constprop.41]+0x48>

00000a90 <OneWire::write(unsigned char, unsigned char) [clone .constprop.40]>:
_ZN7OneWire5writeEhh.constprop.40():
C:\Users\mathiasc\Documents\Arduino\libraries\OneWire/OneWire.cpp:251
// pin high, if you need power after the write (e.g. DS18S20 in
// parasite power mode) then set 'power' to 1, otherwise the pin will
// go tri-state at the end of the write to avoid heating in a short or
// other mishap.
//
void OneWire::write(uint8_t v, uint8_t power /* = 0 */) {
     a90:	ff 92       	push	r15
     a92:	0f 93       	push	r16
     a94:	1f 93       	push	r17
     a96:	cf 93       	push	r28
     a98:	df 93       	push	r29
     a9a:	f8 2e       	mov	r15, r24
     a9c:	06 2f       	mov	r16, r22
     a9e:	c8 e0       	ldi	r28, 0x08	; 8
     aa0:	d0 e0       	ldi	r29, 0x00	; 0
C:\Users\mathiasc\Documents\Arduino\libraries\OneWire/OneWire.cpp:254
    uint8_t bitMask;

    for (bitMask = 0x01; bitMask; bitMask <<= 1) {
     aa2:	11 e0       	ldi	r17, 0x01	; 1
C:\Users\mathiasc\Documents\Arduino\libraries\OneWire/OneWire.cpp:255
	OneWire::write_bit( (bitMask & v)?1:0);
     aa4:	81 e0       	ldi	r24, 0x01	; 1
     aa6:	9f 2d       	mov	r25, r15
     aa8:	91 23       	and	r25, r17
     aaa:	09 f4       	brne	.+2      	; 0xaae <OneWire::write(unsigned char, unsigned char) [clone .constprop.40]+0x1e>
     aac:	80 e0       	ldi	r24, 0x00	; 0
     aae:	0e 94 0b 05 	call	0xa16	; 0xa16 <OneWire::write_bit(unsigned char) [clone .constprop.41]>
C:\Users\mathiasc\Documents\Arduino\libraries\OneWire/OneWire.cpp:254
// other mishap.
//
void OneWire::write(uint8_t v, uint8_t power /* = 0 */) {
    uint8_t bitMask;

    for (bitMask = 0x01; bitMask; bitMask <<= 1) {
     ab2:	11 0f       	add	r17, r17
     ab4:	21 97       	sbiw	r28, 0x01	; 1
     ab6:	b1 f7       	brne	.-20     	; 0xaa4 <OneWire::write(unsigned char, unsigned char) [clone .constprop.40]+0x14>
C:\Users\mathiasc\Documents\Arduino\libraries\OneWire/OneWire.cpp:257
	OneWire::write_bit( (bitMask & v)?1:0);
    }
    if ( !power) {
     ab8:	01 11       	cpse	r16, r1
     aba:	18 c0       	rjmp	.+48     	; 0xaec <OneWire::write(unsigned char, unsigned char) [clone .constprop.40]+0x5c>
C:\Users\mathiasc\Documents\Arduino\libraries\OneWire/OneWire.cpp:258
	noInterrupts();
     abc:	f8 94       	cli
C:\Users\mathiasc\Documents\Arduino\libraries\OneWire/OneWire.cpp:259
	DIRECT_MODE_INPUT(baseReg, bitmask);
     abe:	e0 91 4d 29 	lds	r30, 0x294D	; 0x80294d <ds+0x1>
     ac2:	f0 91 4e 29 	lds	r31, 0x294E	; 0x80294e <ds+0x2>
     ac6:	38 97       	sbiw	r30, 0x08	; 8
     ac8:	90 81       	ld	r25, Z
     aca:	80 91 4c 29 	lds	r24, 0x294C	; 0x80294c <ds>
     ace:	80 95       	com	r24
     ad0:	89 23       	and	r24, r25
     ad2:	80 83       	st	Z, r24
C:\Users\mathiasc\Documents\Arduino\libraries\OneWire/OneWire.cpp:260
	DIRECT_WRITE_LOW(baseReg, bitmask);
     ad4:	e0 91 4d 29 	lds	r30, 0x294D	; 0x80294d <ds+0x1>
     ad8:	f0 91 4e 29 	lds	r31, 0x294E	; 0x80294e <ds+0x2>
     adc:	34 97       	sbiw	r30, 0x04	; 4
     ade:	90 81       	ld	r25, Z
     ae0:	80 91 4c 29 	lds	r24, 0x294C	; 0x80294c <ds>
     ae4:	80 95       	com	r24
     ae6:	89 23       	and	r24, r25
     ae8:	80 83       	st	Z, r24
C:\Users\mathiasc\Documents\Arduino\libraries\OneWire/OneWire.cpp:261
	interrupts();
     aea:	78 94       	sei
C:\Users\mathiasc\Documents\Arduino\libraries\OneWire/OneWire.cpp:263
    }
}
     aec:	df 91       	pop	r29
     aee:	cf 91       	pop	r28
     af0:	1f 91       	pop	r17
     af2:	0f 91       	pop	r16
     af4:	ff 90       	pop	r15
     af6:	08 95       	ret

00000af8 <OneWire::select(unsigned char const*) [clone .constprop.39]>:
_ZN7OneWire6selectEPKh.constprop.39():
C:\Users\mathiasc\Documents\Arduino\libraries\OneWire/OneWire.cpp:297
}

//
// Do a ROM select
//
void OneWire::select(const uint8_t rom[8])
     af8:	0f 93       	push	r16
     afa:	1f 93       	push	r17
     afc:	cf 93       	push	r28
     afe:	df 93       	push	r29
     b00:	8c 01       	movw	r16, r24
C:\Users\mathiasc\Documents\Arduino\libraries\OneWire/OneWire.cpp:301
{
    uint8_t i;

    write(0x55);           // Choose ROM
     b02:	60 e0       	ldi	r22, 0x00	; 0
     b04:	85 e5       	ldi	r24, 0x55	; 85
     b06:	0e 94 48 05 	call	0xa90	; 0xa90 <OneWire::write(unsigned char, unsigned char) [clone .constprop.40]>
     b0a:	e8 01       	movw	r28, r16
     b0c:	08 5f       	subi	r16, 0xF8	; 248
     b0e:	1f 4f       	sbci	r17, 0xFF	; 255
C:\Users\mathiasc\Documents\Arduino\libraries\OneWire/OneWire.cpp:303

    for (i = 0; i < 8; i++) write(rom[i]);
     b10:	60 e0       	ldi	r22, 0x00	; 0
     b12:	89 91       	ld	r24, Y+
     b14:	0e 94 48 05 	call	0xa90	; 0xa90 <OneWire::write(unsigned char, unsigned char) [clone .constprop.40]>
     b18:	c0 17       	cp	r28, r16
     b1a:	d1 07       	cpc	r29, r17
     b1c:	c9 f7       	brne	.-14     	; 0xb10 <OneWire::select(unsigned char const*) [clone .constprop.39]+0x18>
C:\Users\mathiasc\Documents\Arduino\libraries\OneWire/OneWire.cpp:304
}
     b1e:	df 91       	pop	r29
     b20:	cf 91       	pop	r28
     b22:	1f 91       	pop	r17
     b24:	0f 91       	pop	r16
     b26:	08 95       	ret

00000b28 <OneWire::reset() [clone .constprop.38]>:
_ZN7OneWire5resetEv.constprop.38():
C:\Users\mathiasc\Documents\Arduino\libraries\OneWire/OneWire.cpp:164
// the bus to come high, if it doesn't then it is broken or shorted
// and we return a 0;
//
// Returns 1 if a device asserted a presence pulse, 0 otherwise.
//
uint8_t OneWire::reset(void)
     b28:	df 92       	push	r13
     b2a:	ef 92       	push	r14
     b2c:	ff 92       	push	r15
     b2e:	0f 93       	push	r16
     b30:	1f 93       	push	r17
     b32:	cf 93       	push	r28
     b34:	df 93       	push	r29
C:\Users\mathiasc\Documents\Arduino\libraries\OneWire/OneWire.cpp:166
{
	IO_REG_TYPE mask IO_REG_MASK_ATTR = bitmask;
     b36:	c0 91 4c 29 	lds	r28, 0x294C	; 0x80294c <ds>
C:\Users\mathiasc\Documents\Arduino\libraries\OneWire/OneWire.cpp:167
	volatile IO_REG_TYPE *reg IO_REG_BASE_ATTR = baseReg;
     b3a:	e0 90 4d 29 	lds	r14, 0x294D	; 0x80294d <ds+0x1>
     b3e:	f0 90 4e 29 	lds	r15, 0x294E	; 0x80294e <ds+0x2>
C:\Users\mathiasc\Documents\Arduino\libraries\OneWire/OneWire.cpp:171
	uint8_t r;
	uint8_t retries = 125;

	noInterrupts();
     b42:	f8 94       	cli
C:\Users\mathiasc\Documents\Arduino\libraries\OneWire/OneWire.cpp:172
	DIRECT_MODE_INPUT(reg, mask);
     b44:	87 01       	movw	r16, r14
     b46:	08 50       	subi	r16, 0x08	; 8
     b48:	11 09       	sbc	r17, r1
     b4a:	f8 01       	movw	r30, r16
     b4c:	80 81       	ld	r24, Z
     b4e:	dc 2f       	mov	r29, r28
     b50:	d0 95       	com	r29
     b52:	8d 23       	and	r24, r29
     b54:	80 83       	st	Z, r24
C:\Users\mathiasc\Documents\Arduino\libraries\OneWire/OneWire.cpp:173
	interrupts();
     b56:	78 94       	sei
     b58:	8d e7       	ldi	r24, 0x7D	; 125
     b5a:	d8 2e       	mov	r13, r24
     b5c:	da 94       	dec	r13
C:\Users\mathiasc\Documents\Arduino\libraries\OneWire/OneWire.cpp:176
	// wait until the wire is high... just in case
	do {
		if (--retries == 0) return 0;
     b5e:	dd 20       	and	r13, r13
     b60:	99 f1       	breq	.+102    	; 0xbc8 <OneWire::reset() [clone .constprop.38]+0xa0>
C:\Users\mathiasc\Documents\Arduino\libraries\OneWire/OneWire.cpp:177
		delayMicroseconds(2);
     b62:	82 e0       	ldi	r24, 0x02	; 2
     b64:	90 e0       	ldi	r25, 0x00	; 0
     b66:	0e 94 57 04 	call	0x8ae	; 0x8ae <delayMicroseconds>
C:\Users\mathiasc\Documents\Arduino\libraries\OneWire/OneWire.cpp:178
	} while ( !DIRECT_READ(reg, mask));
     b6a:	f7 01       	movw	r30, r14
     b6c:	80 81       	ld	r24, Z
     b6e:	8c 23       	and	r24, r28
     b70:	a9 f3       	breq	.-22     	; 0xb5c <OneWire::reset() [clone .constprop.38]+0x34>
C:\Users\mathiasc\Documents\Arduino\libraries\OneWire/OneWire.cpp:180

	noInterrupts();
     b72:	f8 94       	cli
C:\Users\mathiasc\Documents\Arduino\libraries\OneWire/OneWire.cpp:181
	DIRECT_WRITE_LOW(reg, mask);
     b74:	34 97       	sbiw	r30, 0x04	; 4
     b76:	80 81       	ld	r24, Z
     b78:	8d 23       	and	r24, r29
     b7a:	80 83       	st	Z, r24
C:\Users\mathiasc\Documents\Arduino\libraries\OneWire/OneWire.cpp:182
	DIRECT_MODE_OUTPUT(reg, mask);	// drive output low
     b7c:	f8 01       	movw	r30, r16
     b7e:	80 81       	ld	r24, Z
     b80:	8c 2b       	or	r24, r28
     b82:	80 83       	st	Z, r24
C:\Users\mathiasc\Documents\Arduino\libraries\OneWire/OneWire.cpp:183
	interrupts();
     b84:	78 94       	sei
C:\Users\mathiasc\Documents\Arduino\libraries\OneWire/OneWire.cpp:184
	delayMicroseconds(480);
     b86:	80 ee       	ldi	r24, 0xE0	; 224
     b88:	91 e0       	ldi	r25, 0x01	; 1
     b8a:	0e 94 57 04 	call	0x8ae	; 0x8ae <delayMicroseconds>
C:\Users\mathiasc\Documents\Arduino\libraries\OneWire/OneWire.cpp:185
	noInterrupts();
     b8e:	f8 94       	cli
C:\Users\mathiasc\Documents\Arduino\libraries\OneWire/OneWire.cpp:186
	DIRECT_MODE_INPUT(reg, mask);	// allow it to float
     b90:	f8 01       	movw	r30, r16
     b92:	80 81       	ld	r24, Z
     b94:	8d 23       	and	r24, r29
     b96:	80 83       	st	Z, r24
C:\Users\mathiasc\Documents\Arduino\libraries\OneWire/OneWire.cpp:187
	delayMicroseconds(70);
     b98:	86 e4       	ldi	r24, 0x46	; 70
     b9a:	90 e0       	ldi	r25, 0x00	; 0
     b9c:	0e 94 57 04 	call	0x8ae	; 0x8ae <delayMicroseconds>
C:\Users\mathiasc\Documents\Arduino\libraries\OneWire/OneWire.cpp:188
	r = !DIRECT_READ(reg, mask);
     ba0:	f7 01       	movw	r30, r14
     ba2:	80 81       	ld	r24, Z
     ba4:	c8 23       	and	r28, r24
     ba6:	11 e0       	ldi	r17, 0x01	; 1
     ba8:	09 f0       	breq	.+2      	; 0xbac <OneWire::reset() [clone .constprop.38]+0x84>
     baa:	10 e0       	ldi	r17, 0x00	; 0
C:\Users\mathiasc\Documents\Arduino\libraries\OneWire/OneWire.cpp:189
	interrupts();
     bac:	78 94       	sei
C:\Users\mathiasc\Documents\Arduino\libraries\OneWire/OneWire.cpp:190
	delayMicroseconds(410);
     bae:	8a e9       	ldi	r24, 0x9A	; 154
     bb0:	91 e0       	ldi	r25, 0x01	; 1
     bb2:	0e 94 57 04 	call	0x8ae	; 0x8ae <delayMicroseconds>
C:\Users\mathiasc\Documents\Arduino\libraries\OneWire/OneWire.cpp:192
	return r;
}
     bb6:	81 2f       	mov	r24, r17
     bb8:	df 91       	pop	r29
     bba:	cf 91       	pop	r28
     bbc:	1f 91       	pop	r17
     bbe:	0f 91       	pop	r16
     bc0:	ff 90       	pop	r15
     bc2:	ef 90       	pop	r14
     bc4:	df 90       	pop	r13
     bc6:	08 95       	ret
C:\Users\mathiasc\Documents\Arduino\libraries\OneWire/OneWire.cpp:176
	noInterrupts();
	DIRECT_MODE_INPUT(reg, mask);
	interrupts();
	// wait until the wire is high... just in case
	do {
		if (--retries == 0) return 0;
     bc8:	10 e0       	ldi	r17, 0x00	; 0
     bca:	f5 cf       	rjmp	.-22     	; 0xbb6 <OneWire::reset() [clone .constprop.38]+0x8e>

00000bcc <OneWire::read_bit() [clone .constprop.37]>:
_ZN7OneWire8read_bitEv.constprop.37():
C:\Users\mathiasc\Documents\Arduino\libraries\OneWire/OneWire.cpp:226

//
// Read a bit. Port and bit is used to cut lookup time and provide
// more certain timing.
//
uint8_t OneWire::read_bit(void)
     bcc:	ef 92       	push	r14
     bce:	ff 92       	push	r15
     bd0:	0f 93       	push	r16
     bd2:	1f 93       	push	r17
     bd4:	cf 93       	push	r28
     bd6:	df 93       	push	r29
C:\Users\mathiasc\Documents\Arduino\libraries\OneWire/OneWire.cpp:228
{
	IO_REG_TYPE mask IO_REG_MASK_ATTR = bitmask;
     bd8:	c0 91 4c 29 	lds	r28, 0x294C	; 0x80294c <ds>
C:\Users\mathiasc\Documents\Arduino\libraries\OneWire/OneWire.cpp:229
	volatile IO_REG_TYPE *reg IO_REG_BASE_ATTR = baseReg;
     bdc:	e0 90 4d 29 	lds	r14, 0x294D	; 0x80294d <ds+0x1>
     be0:	f0 90 4e 29 	lds	r15, 0x294E	; 0x80294e <ds+0x2>
C:\Users\mathiasc\Documents\Arduino\libraries\OneWire/OneWire.cpp:232
	uint8_t r;

	noInterrupts();
     be4:	f8 94       	cli
C:\Users\mathiasc\Documents\Arduino\libraries\OneWire/OneWire.cpp:233
	DIRECT_MODE_OUTPUT(reg, mask);
     be6:	87 01       	movw	r16, r14
     be8:	08 50       	subi	r16, 0x08	; 8
     bea:	11 09       	sbc	r17, r1
     bec:	f8 01       	movw	r30, r16
     bee:	80 81       	ld	r24, Z
     bf0:	8c 2b       	or	r24, r28
     bf2:	80 83       	st	Z, r24
C:\Users\mathiasc\Documents\Arduino\libraries\OneWire/OneWire.cpp:234
	DIRECT_WRITE_LOW(reg, mask);
     bf4:	34 96       	adiw	r30, 0x04	; 4
     bf6:	80 81       	ld	r24, Z
     bf8:	dc 2f       	mov	r29, r28
     bfa:	d0 95       	com	r29
     bfc:	8d 23       	and	r24, r29
     bfe:	80 83       	st	Z, r24
C:\Users\mathiasc\Documents\Arduino\libraries\OneWire/OneWire.cpp:235
	delayMicroseconds(3);
     c00:	83 e0       	ldi	r24, 0x03	; 3
     c02:	90 e0       	ldi	r25, 0x00	; 0
     c04:	0e 94 57 04 	call	0x8ae	; 0x8ae <delayMicroseconds>
C:\Users\mathiasc\Documents\Arduino\libraries\OneWire/OneWire.cpp:236
	DIRECT_MODE_INPUT(reg, mask);	// let pin float, pull up will raise
     c08:	f8 01       	movw	r30, r16
     c0a:	80 81       	ld	r24, Z
     c0c:	8d 23       	and	r24, r29
     c0e:	80 83       	st	Z, r24
C:\Users\mathiasc\Documents\Arduino\libraries\OneWire/OneWire.cpp:237
	delayMicroseconds(10);
     c10:	8a e0       	ldi	r24, 0x0A	; 10
     c12:	90 e0       	ldi	r25, 0x00	; 0
     c14:	0e 94 57 04 	call	0x8ae	; 0x8ae <delayMicroseconds>
C:\Users\mathiasc\Documents\Arduino\libraries\OneWire/OneWire.cpp:238
	r = DIRECT_READ(reg, mask);
     c18:	f7 01       	movw	r30, r14
     c1a:	d0 81       	ld	r29, Z
C:\Users\mathiasc\Documents\Arduino\libraries\OneWire/OneWire.cpp:239
	interrupts();
     c1c:	78 94       	sei
C:\Users\mathiasc\Documents\Arduino\libraries\OneWire/OneWire.cpp:240
	delayMicroseconds(53);
     c1e:	85 e3       	ldi	r24, 0x35	; 53
     c20:	90 e0       	ldi	r25, 0x00	; 0
     c22:	0e 94 57 04 	call	0x8ae	; 0x8ae <delayMicroseconds>
C:\Users\mathiasc\Documents\Arduino\libraries\OneWire/OneWire.cpp:238
	DIRECT_MODE_OUTPUT(reg, mask);
	DIRECT_WRITE_LOW(reg, mask);
	delayMicroseconds(3);
	DIRECT_MODE_INPUT(reg, mask);	// let pin float, pull up will raise
	delayMicroseconds(10);
	r = DIRECT_READ(reg, mask);
     c26:	cd 23       	and	r28, r29
     c28:	81 e0       	ldi	r24, 0x01	; 1
     c2a:	09 f4       	brne	.+2      	; 0xc2e <OneWire::read_bit() [clone .constprop.37]+0x62>
     c2c:	80 e0       	ldi	r24, 0x00	; 0
C:\Users\mathiasc\Documents\Arduino\libraries\OneWire/OneWire.cpp:242
	interrupts();
	delayMicroseconds(53);
	return r;
}
     c2e:	df 91       	pop	r29
     c30:	cf 91       	pop	r28
     c32:	1f 91       	pop	r17
     c34:	0f 91       	pop	r16
     c36:	ff 90       	pop	r15
     c38:	ef 90       	pop	r14
     c3a:	08 95       	ret

00000c3c <micros>:
micros():
C:\Users\mathiasc\AppData\Local\Arduino15\packages\MegaCoreX\hardware\megaavr\1.0.4\cores\coreX-corefiles/wiring.c:103
{
  uint32_t m;
  uint16_t t;

  /* Save current state and disable interrupts */
  uint8_t status = SREG;
     c3c:	6f b7       	in	r22, 0x3f	; 63
C:\Users\mathiasc\AppData\Local\Arduino15\packages\MegaCoreX\hardware\megaavr\1.0.4\cores\coreX-corefiles/wiring.c:104
  cli();
     c3e:	f8 94       	cli
C:\Users\mathiasc\AppData\Local\Arduino15\packages\MegaCoreX\hardware\megaavr\1.0.4\cores\coreX-corefiles/wiring.c:107

  /* Get current number of millis (i.e. overflows) and timer count */
  m = timer_millis;
     c40:	20 91 a3 28 	lds	r18, 0x28A3	; 0x8028a3 <timer_millis>
     c44:	30 91 a4 28 	lds	r19, 0x28A4	; 0x8028a4 <timer_millis+0x1>
     c48:	40 91 a5 28 	lds	r20, 0x28A5	; 0x8028a5 <timer_millis+0x2>
     c4c:	50 91 a6 28 	lds	r21, 0x28A6	; 0x8028a6 <timer_millis+0x3>
C:\Users\mathiasc\AppData\Local\Arduino15\packages\MegaCoreX\hardware\megaavr\1.0.4\cores\coreX-corefiles/wiring.c:108
  t = _timer->CNT;
     c50:	80 91 aa 0a 	lds	r24, 0x0AAA	; 0x800aaa <__TEXT_REGION_LENGTH__+0x7f4aaa>
     c54:	90 91 ab 0a 	lds	r25, 0x0AAB	; 0x800aab <__TEXT_REGION_LENGTH__+0x7f4aab>
C:\Users\mathiasc\AppData\Local\Arduino15\packages\MegaCoreX\hardware\megaavr\1.0.4\cores\coreX-corefiles/wiring.c:112

  /* If the timer overflow flag is raised, we just missed it,
  increment to account for it, & read new ticks */
  if (_timer->INTFLAGS & TCB_CAPT_bm)
     c58:	70 91 a6 0a 	lds	r23, 0x0AA6	; 0x800aa6 <__TEXT_REGION_LENGTH__+0x7f4aa6>
     c5c:	70 ff       	sbrs	r23, 0
     c5e:	08 c0       	rjmp	.+16     	; 0xc70 <micros+0x34>
C:\Users\mathiasc\AppData\Local\Arduino15\packages\MegaCoreX\hardware\megaavr\1.0.4\cores\coreX-corefiles/wiring.c:114
  {
    m++;
     c60:	2f 5f       	subi	r18, 0xFF	; 255
     c62:	3f 4f       	sbci	r19, 0xFF	; 255
     c64:	4f 4f       	sbci	r20, 0xFF	; 255
     c66:	5f 4f       	sbci	r21, 0xFF	; 255
C:\Users\mathiasc\AppData\Local\Arduino15\packages\MegaCoreX\hardware\megaavr\1.0.4\cores\coreX-corefiles/wiring.c:115
    t = _timer->CNT;
     c68:	80 91 aa 0a 	lds	r24, 0x0AAA	; 0x800aaa <__TEXT_REGION_LENGTH__+0x7f4aaa>
     c6c:	90 91 ab 0a 	lds	r25, 0x0AAB	; 0x800aab <__TEXT_REGION_LENGTH__+0x7f4aab>
C:\Users\mathiasc\AppData\Local\Arduino15\packages\MegaCoreX\hardware\megaavr\1.0.4\cores\coreX-corefiles/wiring.c:119
  }

  // Restore SREG
  SREG = status;
     c70:	6f bf       	out	0x3f, r22	; 63
C:\Users\mathiasc\AppData\Local\Arduino15\packages\MegaCoreX\hardware\megaavr\1.0.4\cores\coreX-corefiles/wiring.c:123

#if (F_CPU == 20000000L)
  t = t >> 4;
  return m * 1000 + (t - (t >> 2) + (t >> 4) - (t >> 6));
     c72:	e9 2f       	mov	r30, r25
     c74:	ff 27       	eor	r31, r31
C:\Users\mathiasc\AppData\Local\Arduino15\packages\MegaCoreX\hardware\megaavr\1.0.4\cores\coreX-corefiles/wiring.c:122

  // Restore SREG
  SREG = status;

#if (F_CPU == 20000000L)
  t = t >> 4;
     c76:	bc 01       	movw	r22, r24
     c78:	a4 e0       	ldi	r26, 0x04	; 4
     c7a:	76 95       	lsr	r23
     c7c:	67 95       	ror	r22
     c7e:	aa 95       	dec	r26
     c80:	e1 f7       	brne	.-8      	; 0xc7a <micros+0x3e>
C:\Users\mathiasc\AppData\Local\Arduino15\packages\MegaCoreX\hardware\megaavr\1.0.4\cores\coreX-corefiles/wiring.c:123
  return m * 1000 + (t - (t >> 2) + (t >> 4) - (t >> 6));
     c82:	e6 0f       	add	r30, r22
     c84:	f7 1f       	adc	r31, r23
     c86:	bc 01       	movw	r22, r24
     c88:	b6 e0       	ldi	r27, 0x06	; 6
     c8a:	76 95       	lsr	r23
     c8c:	67 95       	ror	r22
     c8e:	ba 95       	dec	r27
     c90:	e1 f7       	brne	.-8      	; 0xc8a <micros+0x4e>
     c92:	e6 1b       	sub	r30, r22
     c94:	f7 0b       	sbc	r31, r23
     c96:	89 2f       	mov	r24, r25
     c98:	99 27       	eor	r25, r25
     c9a:	86 95       	lsr	r24
     c9c:	86 95       	lsr	r24
     c9e:	e8 1b       	sub	r30, r24
     ca0:	f9 0b       	sbc	r31, r25
     ca2:	a8 ee       	ldi	r26, 0xE8	; 232
     ca4:	b3 e0       	ldi	r27, 0x03	; 3
     ca6:	0e 94 7f 1b 	call	0x36fe	; 0x36fe <__muluhisi3>
     caa:	6e 0f       	add	r22, r30
     cac:	7f 1f       	adc	r23, r31
     cae:	81 1d       	adc	r24, r1
     cb0:	91 1d       	adc	r25, r1
C:\Users\mathiasc\AppData\Local\Arduino15\packages\MegaCoreX\hardware\megaavr\1.0.4\cores\coreX-corefiles/wiring.c:143
#elif (F_CPU == 1000000L)
  return m * 1000 + t;
#else
  return 0;
#endif
}
     cb2:	08 95       	ret

00000cb4 <delay>:
delay():
C:\Users\mathiasc\AppData\Local\Arduino15\packages\MegaCoreX\hardware\megaavr\1.0.4\cores\coreX-corefiles/wiring.c:146

void delay(unsigned long ms)
{
     cb4:	8f 92       	push	r8
     cb6:	9f 92       	push	r9
     cb8:	af 92       	push	r10
     cba:	bf 92       	push	r11
     cbc:	cf 92       	push	r12
     cbe:	df 92       	push	r13
     cc0:	ef 92       	push	r14
     cc2:	ff 92       	push	r15
     cc4:	4b 01       	movw	r8, r22
     cc6:	5c 01       	movw	r10, r24
C:\Users\mathiasc\AppData\Local\Arduino15\packages\MegaCoreX\hardware\megaavr\1.0.4\cores\coreX-corefiles/wiring.c:147
  uint32_t start_time = micros(), delay_time = 1000 * ms;
     cc8:	0e 94 1e 06 	call	0xc3c	; 0xc3c <micros>
     ccc:	6b 01       	movw	r12, r22
     cce:	7c 01       	movw	r14, r24
     cd0:	a8 ee       	ldi	r26, 0xE8	; 232
     cd2:	b3 e0       	ldi	r27, 0x03	; 3
     cd4:	a5 01       	movw	r20, r10
     cd6:	94 01       	movw	r18, r8
     cd8:	0e 94 7f 1b 	call	0x36fe	; 0x36fe <__muluhisi3>
C:\Users\mathiasc\AppData\Local\Arduino15\packages\MegaCoreX\hardware\megaavr\1.0.4\cores\coreX-corefiles/wiring.c:150

  /* Calculate future time to return */
  uint32_t return_time = start_time + delay_time;
     cdc:	c6 0e       	add	r12, r22
     cde:	d7 1e       	adc	r13, r23
     ce0:	e8 1e       	adc	r14, r24
     ce2:	f9 1e       	adc	r15, r25
C:\Users\mathiasc\AppData\Local\Arduino15\packages\MegaCoreX\hardware\megaavr\1.0.4\cores\coreX-corefiles/wiring.c:153

  /* If return time overflows */
  if (return_time < delay_time)
     ce4:	c6 16       	cp	r12, r22
     ce6:	d7 06       	cpc	r13, r23
     ce8:	e8 06       	cpc	r14, r24
     cea:	f9 06       	cpc	r15, r25
     cec:	18 f4       	brcc	.+6      	; 0xcf4 <delay+0x40>
C:\Users\mathiasc\AppData\Local\Arduino15\packages\MegaCoreX\hardware\megaavr\1.0.4\cores\coreX-corefiles/wiring.c:156
  {
    /* Wait until micros overflows */
    while (micros() > return_time)
     cee:	0e 94 1e 06 	call	0xc3c	; 0xc3c <micros>
     cf2:	f8 cf       	rjmp	.-16     	; 0xce4 <delay+0x30>
C:\Users\mathiasc\AppData\Local\Arduino15\packages\MegaCoreX\hardware\megaavr\1.0.4\cores\coreX-corefiles/wiring.c:161
      ;
  }

  /* Wait until return time */
  while (micros() < return_time)
     cf4:	0e 94 1e 06 	call	0xc3c	; 0xc3c <micros>
     cf8:	6c 15       	cp	r22, r12
     cfa:	7d 05       	cpc	r23, r13
     cfc:	8e 05       	cpc	r24, r14
     cfe:	9f 05       	cpc	r25, r15
     d00:	c8 f3       	brcs	.-14     	; 0xcf4 <delay+0x40>
C:\Users\mathiasc\AppData\Local\Arduino15\packages\MegaCoreX\hardware\megaavr\1.0.4\cores\coreX-corefiles/wiring.c:163
    ;
}
     d02:	ff 90       	pop	r15
     d04:	ef 90       	pop	r14
     d06:	df 90       	pop	r13
     d08:	cf 90       	pop	r12
     d0a:	bf 90       	pop	r11
     d0c:	af 90       	pop	r10
     d0e:	9f 90       	pop	r9
     d10:	8f 90       	pop	r8
     d12:	08 95       	ret

00000d14 <OneWire::crc8(unsigned char const*, unsigned char)>:
_ZN7OneWire4crc8EPKhh():
C:\Users\mathiasc\Documents\Arduino\libraries\OneWire/OneWire.cpp:506
};

// Compute a Dallas Semiconductor 8 bit CRC. These show up in the ROM
// and the registers.  (Use tiny 2x16 entry CRC table)
uint8_t OneWire::crc8(const uint8_t *addr, uint8_t len)
{
     d14:	dc 01       	movw	r26, r24
C:\Users\mathiasc\Documents\Arduino\libraries\OneWire/OneWire.cpp:507
	uint8_t crc = 0;
     d16:	80 e0       	ldi	r24, 0x00	; 0
C:\Users\mathiasc\Documents\Arduino\libraries\OneWire/OneWire.cpp:509

	while (len--) {
     d18:	61 50       	subi	r22, 0x01	; 1
     d1a:	90 f0       	brcs	.+36     	; 0xd40 <OneWire::crc8(unsigned char const*, unsigned char)+0x2c>
C:\Users\mathiasc\Documents\Arduino\libraries\OneWire/OneWire.cpp:510
		crc = *addr++ ^ crc;  // just re-using crc as intermediate
     d1c:	9d 91       	ld	r25, X+
     d1e:	98 27       	eor	r25, r24
C:\Users\mathiasc\Documents\Arduino\libraries\OneWire/OneWire.cpp:511
		crc = pgm_read_byte(dscrc2x16_table + (crc & 0x0f)) ^
     d20:	e9 2f       	mov	r30, r25
     d22:	ef 70       	andi	r30, 0x0F	; 15
     d24:	f0 e0       	ldi	r31, 0x00	; 0
     d26:	e0 56       	subi	r30, 0x60	; 96
     d28:	ff 4f       	sbci	r31, 0xFF	; 255
     d2a:	24 91       	lpm	r18, Z
C:\Users\mathiasc\Documents\Arduino\libraries\OneWire/OneWire.cpp:512
		pgm_read_byte(dscrc2x16_table + 16 + ((crc >> 4) & 0x0f));
     d2c:	e9 2f       	mov	r30, r25
     d2e:	e2 95       	swap	r30
     d30:	ef 70       	andi	r30, 0x0F	; 15
     d32:	f0 e0       	ldi	r31, 0x00	; 0
     d34:	e0 55       	subi	r30, 0x50	; 80
     d36:	ff 4f       	sbci	r31, 0xFF	; 255
     d38:	e4 91       	lpm	r30, Z
C:\Users\mathiasc\Documents\Arduino\libraries\OneWire/OneWire.cpp:511
{
	uint8_t crc = 0;

	while (len--) {
		crc = *addr++ ^ crc;  // just re-using crc as intermediate
		crc = pgm_read_byte(dscrc2x16_table + (crc & 0x0f)) ^
     d3a:	82 2f       	mov	r24, r18
     d3c:	8e 27       	eor	r24, r30
     d3e:	ec cf       	rjmp	.-40     	; 0xd18 <OneWire::crc8(unsigned char const*, unsigned char)+0x4>
C:\Users\mathiasc\Documents\Arduino\libraries\OneWire/OneWire.cpp:516
		pgm_read_byte(dscrc2x16_table + 16 + ((crc >> 4) & 0x0f));
	}

	return crc;
}
     d40:	08 95       	ret

00000d42 <TEMP_190409::OneWireStartConversation() [clone .constprop.35]>:
_ZN11TEMP_19040924OneWireStartConversationEv.constprop.35():
C:\Users\mathiasc\AppData\Local\Temp\arduino_build_312787\sketch/TEMP_190409.cpp:208

bool TEMP_190409::OneWireStartConversation( void ){
     d42:	8f 92       	push	r8
     d44:	9f 92       	push	r9
     d46:	af 92       	push	r10
     d48:	bf 92       	push	r11
     d4a:	cf 92       	push	r12
     d4c:	df 92       	push	r13
     d4e:	ef 92       	push	r14
     d50:	ff 92       	push	r15
     d52:	0f 93       	push	r16
     d54:	1f 93       	push	r17
     d56:	cf 93       	push	r28
     d58:	df 93       	push	r29
     d5a:	cd b7       	in	r28, 0x3d	; 61
     d5c:	de b7       	in	r29, 0x3e	; 62
     d5e:	2c 97       	sbiw	r28, 0x0c	; 12
     d60:	cd bf       	out	0x3d, r28	; 61
     d62:	de bf       	out	0x3e, r29	; 62
C:\Users\mathiasc\AppData\Local\Temp\arduino_build_312787\sketch/TEMP_190409.cpp:217

  byte present = 0;
  byte data[12];
  float celsius, fahrenheit;

  if( (true == OneWireFetchNewData ) && ( true == OneWireSensorFound) ) {
     d64:	80 91 68 29 	lds	r24, 0x2968	; 0x802968 <Station+0xe>
     d68:	88 23       	and	r24, r24
     d6a:	09 f4       	brne	.+2      	; 0xd6e <TEMP_190409::OneWireStartConversation() [clone .constprop.35]+0x2c>
     d6c:	8e c0       	rjmp	.+284    	; 0xe8a <TEMP_190409::OneWireStartConversation() [clone .constprop.35]+0x148>
     d6e:	80 91 74 29 	lds	r24, 0x2974	; 0x802974 <Station+0x1a>
     d72:	88 23       	and	r24, r24
     d74:	09 f4       	brne	.+2      	; 0xd78 <TEMP_190409::OneWireStartConversation() [clone .constprop.35]+0x36>
     d76:	89 c0       	rjmp	.+274    	; 0xe8a <TEMP_190409::OneWireStartConversation() [clone .constprop.35]+0x148>
C:\Users\mathiasc\AppData\Local\Temp\arduino_build_312787\sketch/TEMP_190409.cpp:218
    if( ( last_onewirestrart+10000 )<millis() ){
     d78:	80 91 64 29 	lds	r24, 0x2964	; 0x802964 <Station+0xa>
     d7c:	90 91 65 29 	lds	r25, 0x2965	; 0x802965 <Station+0xb>
     d80:	a0 91 66 29 	lds	r26, 0x2966	; 0x802966 <Station+0xc>
     d84:	b0 91 67 29 	lds	r27, 0x2967	; 0x802967 <Station+0xd>
     d88:	80 5f       	subi	r24, 0xF0	; 240
     d8a:	98 4d       	sbci	r25, 0xD8	; 216
     d8c:	af 4f       	sbci	r26, 0xFF	; 255
     d8e:	bf 4f       	sbci	r27, 0xFF	; 255
millis():
C:\Users\mathiasc\AppData\Local\Arduino15\packages\MegaCoreX\hardware\megaavr\1.0.4\cores\coreX-corefiles/wiring.c:87
{
  unsigned long m;

  // disable interrupts while we read timer0_millis or we might get an
  // inconsistent value (e.g. in the middle of a write to timer_millis)
  uint8_t status = SREG;
     d90:	2f b7       	in	r18, 0x3f	; 63
C:\Users\mathiasc\AppData\Local\Arduino15\packages\MegaCoreX\hardware\megaavr\1.0.4\cores\coreX-corefiles/wiring.c:88
  cli();
     d92:	f8 94       	cli
C:\Users\mathiasc\AppData\Local\Arduino15\packages\MegaCoreX\hardware\megaavr\1.0.4\cores\coreX-corefiles/wiring.c:90

  m = timer_millis;
     d94:	40 91 a3 28 	lds	r20, 0x28A3	; 0x8028a3 <timer_millis>
     d98:	50 91 a4 28 	lds	r21, 0x28A4	; 0x8028a4 <timer_millis+0x1>
     d9c:	60 91 a5 28 	lds	r22, 0x28A5	; 0x8028a5 <timer_millis+0x2>
     da0:	70 91 a6 28 	lds	r23, 0x28A6	; 0x8028a6 <timer_millis+0x3>
C:\Users\mathiasc\AppData\Local\Arduino15\packages\MegaCoreX\hardware\megaavr\1.0.4\cores\coreX-corefiles/wiring.c:92

  SREG = status;
     da4:	2f bf       	out	0x3f, r18	; 63
_ZN11TEMP_19040924OneWireStartConversationEv.constprop.35():
C:\Users\mathiasc\AppData\Local\Temp\arduino_build_312787\sketch/TEMP_190409.cpp:218
     da6:	84 17       	cp	r24, r20
     da8:	95 07       	cpc	r25, r21
     daa:	a6 07       	cpc	r26, r22
     dac:	b7 07       	cpc	r27, r23
     dae:	08 f0       	brcs	.+2      	; 0xdb2 <TEMP_190409::OneWireStartConversation() [clone .constprop.35]+0x70>
     db0:	6c c0       	rjmp	.+216    	; 0xe8a <TEMP_190409::OneWireStartConversation() [clone .constprop.35]+0x148>
C:\Users\mathiasc\AppData\Local\Temp\arduino_build_312787\sketch/TEMP_190409.cpp:220
        //Read new data.....
        present = ds.reset();
     db2:	0e 94 94 05 	call	0xb28	; 0xb28 <OneWire::reset() [clone .constprop.38]>
C:\Users\mathiasc\AppData\Local\Temp\arduino_build_312787\sketch/TEMP_190409.cpp:221
        ds.select(addr);    
     db6:	8b e6       	ldi	r24, 0x6B	; 107
     db8:	99 e2       	ldi	r25, 0x29	; 41
     dba:	0e 94 7c 05 	call	0xaf8	; 0xaf8 <OneWire::select(unsigned char const*) [clone .constprop.39]>
C:\Users\mathiasc\AppData\Local\Temp\arduino_build_312787\sketch/TEMP_190409.cpp:222
        ds.write(0xBE);         // Read Scratchpad
     dbe:	60 e0       	ldi	r22, 0x00	; 0
     dc0:	8e eb       	ldi	r24, 0xBE	; 190
     dc2:	0e 94 48 05 	call	0xa90	; 0xa90 <OneWire::write(unsigned char, unsigned char) [clone .constprop.40]>
     dc6:	8e 01       	movw	r16, r28
     dc8:	0f 5f       	subi	r16, 0xFF	; 255
     dca:	1f 4f       	sbci	r17, 0xFF	; 255
     dcc:	4e 01       	movw	r8, r28
     dce:	8a e0       	ldi	r24, 0x0A	; 10
     dd0:	88 0e       	add	r8, r24
     dd2:	91 1c       	adc	r9, r1
     dd4:	58 01       	movw	r10, r16
C:\Users\mathiasc\AppData\Local\Temp\arduino_build_312787\sketch/TEMP_190409.cpp:208
   return temperature_in_K;
   //The value deliverd is about 7 degree about surrounding ....
   
}

bool TEMP_190409::OneWireStartConversation( void ){
     dd6:	98 e0       	ldi	r25, 0x08	; 8
     dd8:	c9 2e       	mov	r12, r25
     dda:	d1 2c       	mov	r13, r1
C:\Users\mathiasc\Documents\Arduino\libraries\OneWire/OneWire.cpp:281
//
// Read a byte
//
uint8_t OneWire::read() {
    uint8_t bitMask;
    uint8_t r = 0;
     ddc:	f1 2c       	mov	r15, r1
C:\Users\mathiasc\Documents\Arduino\libraries\OneWire/OneWire.cpp:283

    for (bitMask = 0x01; bitMask; bitMask <<= 1) {
     dde:	ee 24       	eor	r14, r14
     de0:	e3 94       	inc	r14
read():
C:\Users\mathiasc\Documents\Arduino\libraries\OneWire/OneWire.cpp:284
	if ( OneWire::read_bit()) r |= bitMask;
     de2:	0e 94 e6 05 	call	0xbcc	; 0xbcc <OneWire::read_bit() [clone .constprop.37]>
     de6:	81 11       	cpse	r24, r1
     de8:	fe 28       	or	r15, r14
C:\Users\mathiasc\Documents\Arduino\libraries\OneWire/OneWire.cpp:283
//
uint8_t OneWire::read() {
    uint8_t bitMask;
    uint8_t r = 0;

    for (bitMask = 0x01; bitMask; bitMask <<= 1) {
     dea:	ee 0c       	add	r14, r14
     dec:	e1 e0       	ldi	r30, 0x01	; 1
     dee:	ce 1a       	sub	r12, r30
     df0:	d1 08       	sbc	r13, r1
     df2:	b9 f7       	brne	.-18     	; 0xde2 <TEMP_190409::OneWireStartConversation() [clone .constprop.35]+0xa0>
_ZN11TEMP_19040924OneWireStartConversationEv.constprop.35():
C:\Users\mathiasc\AppData\Local\Temp\arduino_build_312787\sketch/TEMP_190409.cpp:225
        present = ds.reset();
        ds.select(addr);    
        ds.write(0xBE);         // Read Scratchpad
      
        for ( i = 0; i < 9; i++) {           // we need 9 bytes
          data[i] = ds.read();
     df4:	f8 01       	movw	r30, r16
     df6:	f1 92       	st	Z+, r15
     df8:	8f 01       	movw	r16, r30
C:\Users\mathiasc\AppData\Local\Temp\arduino_build_312787\sketch/TEMP_190409.cpp:224
        //Read new data.....
        present = ds.reset();
        ds.select(addr);    
        ds.write(0xBE);         // Read Scratchpad
      
        for ( i = 0; i < 9; i++) {           // we need 9 bytes
     dfa:	8e 16       	cp	r8, r30
     dfc:	9f 06       	cpc	r9, r31
     dfe:	59 f7       	brne	.-42     	; 0xdd6 <TEMP_190409::OneWireStartConversation() [clone .constprop.35]+0x94>
C:\Users\mathiasc\AppData\Local\Temp\arduino_build_312787\sketch/TEMP_190409.cpp:228
          data[i] = ds.read();
        }
      
        if( data[8] != OneWire::crc8(data, 8) ){
     e00:	19 85       	ldd	r17, Y+9	; 0x09
     e02:	68 e0       	ldi	r22, 0x08	; 8
     e04:	c5 01       	movw	r24, r10
     e06:	0e 94 8a 06 	call	0xd14	; 0xd14 <OneWire::crc8(unsigned char const*, unsigned char)>
     e0a:	18 17       	cp	r17, r24
     e0c:	89 f0       	breq	.+34     	; 0xe30 <TEMP_190409::OneWireStartConversation() [clone .constprop.35]+0xee>
C:\Users\mathiasc\AppData\Local\Temp\arduino_build_312787\sketch/TEMP_190409.cpp:230
          //CRC error 
          return false;
     e0e:	80 e0       	ldi	r24, 0x00	; 0
C:\Users\mathiasc\AppData\Local\Temp\arduino_build_312787\sketch/TEMP_190409.cpp:282
  return false;
  
  
  
  
}
     e10:	2c 96       	adiw	r28, 0x0c	; 12
     e12:	cd bf       	out	0x3d, r28	; 61
     e14:	de bf       	out	0x3e, r29	; 62
     e16:	df 91       	pop	r29
     e18:	cf 91       	pop	r28
     e1a:	1f 91       	pop	r17
     e1c:	0f 91       	pop	r16
     e1e:	ff 90       	pop	r15
     e20:	ef 90       	pop	r14
     e22:	df 90       	pop	r13
     e24:	cf 90       	pop	r12
     e26:	bf 90       	pop	r11
     e28:	af 90       	pop	r10
     e2a:	9f 90       	pop	r9
     e2c:	8f 90       	pop	r8
     e2e:	08 95       	ret
C:\Users\mathiasc\AppData\Local\Temp\arduino_build_312787\sketch/TEMP_190409.cpp:237
      
        // Convert the data to actual temperature
        // because the result is a 16 bit signed integer, it should
        // be stored to an "int16_t" type, which is always 16 bits
        // even when compiled on a 32 bit processor.
        int16_t raw = (data[1] << 8) | data[0];
     e30:	69 81       	ldd	r22, Y+1	; 0x01
     e32:	7a 81       	ldd	r23, Y+2	; 0x02
C:\Users\mathiasc\AppData\Local\Temp\arduino_build_312787\sketch/TEMP_190409.cpp:238
        if (type_s) {
     e34:	80 91 73 29 	lds	r24, 0x2973	; 0x802973 <Station+0x19>
     e38:	88 23       	and	r24, r24
     e3a:	09 f4       	brne	.+2      	; 0xe3e <TEMP_190409::OneWireStartConversation() [clone .constprop.35]+0xfc>
     e3c:	68 c0       	rjmp	.+208    	; 0xf0e <TEMP_190409::OneWireStartConversation() [clone .constprop.35]+0x1cc>
C:\Users\mathiasc\AppData\Local\Temp\arduino_build_312787\sketch/TEMP_190409.cpp:239
          raw = raw << 3; // 9 bit resolution default
     e3e:	83 e0       	ldi	r24, 0x03	; 3
     e40:	66 0f       	add	r22, r22
     e42:	77 1f       	adc	r23, r23
     e44:	8a 95       	dec	r24
     e46:	e1 f7       	brne	.-8      	; 0xe40 <TEMP_190409::OneWireStartConversation() [clone .constprop.35]+0xfe>
C:\Users\mathiasc\AppData\Local\Temp\arduino_build_312787\sketch/TEMP_190409.cpp:240
          if (data[7] == 0x10) {
     e48:	88 85       	ldd	r24, Y+8	; 0x08
     e4a:	80 31       	cpi	r24, 0x10	; 16
     e4c:	41 f4       	brne	.+16     	; 0xe5e <TEMP_190409::OneWireStartConversation() [clone .constprop.35]+0x11c>
C:\Users\mathiasc\AppData\Local\Temp\arduino_build_312787\sketch/TEMP_190409.cpp:242
            // "count remain" gives full 12 bit resolution
            raw = (raw & 0xFFF0) + 12 - data[6];
     e4e:	2f 81       	ldd	r18, Y+7	; 0x07
     e50:	8c e0       	ldi	r24, 0x0C	; 12
     e52:	90 e0       	ldi	r25, 0x00	; 0
     e54:	82 1b       	sub	r24, r18
     e56:	91 09       	sbc	r25, r1
     e58:	60 7f       	andi	r22, 0xF0	; 240
     e5a:	68 0f       	add	r22, r24
     e5c:	79 1f       	adc	r23, r25
C:\Users\mathiasc\AppData\Local\Temp\arduino_build_312787\sketch/TEMP_190409.cpp:252
          if (cfg == 0x00) raw = raw & ~7;  // 9 bit resolution, 93.75 ms
          else if (cfg == 0x20) raw = raw & ~3; // 10 bit res, 187.5 ms
          else if (cfg == 0x40) raw = raw & ~1; // 11 bit res, 375 ms
          //// default is 12 bit resolution, 750 ms conversion time
        }
        celsius = (float)raw / 16.0;
     e5e:	07 2e       	mov	r0, r23
     e60:	00 0c       	add	r0, r0
     e62:	88 0b       	sbc	r24, r24
     e64:	99 0b       	sbc	r25, r25
     e66:	0e 94 bc 19 	call	0x3378	; 0x3378 <__floatsisf>
     e6a:	20 e0       	ldi	r18, 0x00	; 0
     e6c:	30 e0       	ldi	r19, 0x00	; 0
     e6e:	40 e8       	ldi	r20, 0x80	; 128
     e70:	5d e3       	ldi	r21, 0x3D	; 61
     e72:	0e 94 20 1a 	call	0x3440	; 0x3440 <__mulsf3>
C:\Users\mathiasc\AppData\Local\Temp\arduino_build_312787\sketch/TEMP_190409.cpp:254
        fahrenheit = celsius * 1.8 + 32.0;
        LastTempReadKelvin=(int16_t)celsius+273;
     e76:	0e 94 84 19 	call	0x3308	; 0x3308 <__fixsfsi>
     e7a:	6f 5e       	subi	r22, 0xEF	; 239
     e7c:	7e 4f       	sbci	r23, 0xFE	; 254
     e7e:	60 93 69 29 	sts	0x2969, r22	; 0x802969 <Station+0xf>
     e82:	70 93 6a 29 	sts	0x296A, r23	; 0x80296a <Station+0x10>
C:\Users\mathiasc\AppData\Local\Temp\arduino_build_312787\sketch/TEMP_190409.cpp:255
        OneWireFetchNewData=false;
     e86:	10 92 68 29 	sts	0x2968, r1	; 0x802968 <Station+0xe>
C:\Users\mathiasc\AppData\Local\Temp\arduino_build_312787\sketch/TEMP_190409.cpp:261
      
    }
    
  } 

  if( ( last_onewirestrart+20000 )<millis() ){
     e8a:	80 91 64 29 	lds	r24, 0x2964	; 0x802964 <Station+0xa>
     e8e:	90 91 65 29 	lds	r25, 0x2965	; 0x802965 <Station+0xb>
     e92:	a0 91 66 29 	lds	r26, 0x2966	; 0x802966 <Station+0xc>
     e96:	b0 91 67 29 	lds	r27, 0x2967	; 0x802967 <Station+0xd>
     e9a:	80 5e       	subi	r24, 0xE0	; 224
     e9c:	91 4b       	sbci	r25, 0xB1	; 177
     e9e:	af 4f       	sbci	r26, 0xFF	; 255
     ea0:	bf 4f       	sbci	r27, 0xFF	; 255
millis():
C:\Users\mathiasc\AppData\Local\Arduino15\packages\MegaCoreX\hardware\megaavr\1.0.4\cores\coreX-corefiles/wiring.c:87
{
  unsigned long m;

  // disable interrupts while we read timer0_millis or we might get an
  // inconsistent value (e.g. in the middle of a write to timer_millis)
  uint8_t status = SREG;
     ea2:	2f b7       	in	r18, 0x3f	; 63
C:\Users\mathiasc\AppData\Local\Arduino15\packages\MegaCoreX\hardware\megaavr\1.0.4\cores\coreX-corefiles/wiring.c:88
  cli();
     ea4:	f8 94       	cli
C:\Users\mathiasc\AppData\Local\Arduino15\packages\MegaCoreX\hardware\megaavr\1.0.4\cores\coreX-corefiles/wiring.c:90

  m = timer_millis;
     ea6:	40 91 a3 28 	lds	r20, 0x28A3	; 0x8028a3 <timer_millis>
     eaa:	50 91 a4 28 	lds	r21, 0x28A4	; 0x8028a4 <timer_millis+0x1>
     eae:	60 91 a5 28 	lds	r22, 0x28A5	; 0x8028a5 <timer_millis+0x2>
     eb2:	70 91 a6 28 	lds	r23, 0x28A6	; 0x8028a6 <timer_millis+0x3>
C:\Users\mathiasc\AppData\Local\Arduino15\packages\MegaCoreX\hardware\megaavr\1.0.4\cores\coreX-corefiles/wiring.c:92

  SREG = status;
     eb6:	2f bf       	out	0x3f, r18	; 63
_ZN11TEMP_19040924OneWireStartConversationEv.constprop.35():
C:\Users\mathiasc\AppData\Local\Temp\arduino_build_312787\sketch/TEMP_190409.cpp:261
     eb8:	84 17       	cp	r24, r20
     eba:	95 07       	cpc	r25, r21
     ebc:	a6 07       	cpc	r26, r22
     ebe:	b7 07       	cpc	r27, r23
     ec0:	08 f0       	brcs	.+2      	; 0xec4 <TEMP_190409::OneWireStartConversation() [clone .constprop.35]+0x182>
     ec2:	a5 cf       	rjmp	.-182    	; 0xe0e <TEMP_190409::OneWireStartConversation() [clone .constprop.35]+0xcc>
C:\Users\mathiasc\AppData\Local\Temp\arduino_build_312787\sketch/TEMP_190409.cpp:262
    ds.reset_search();
     ec4:	0e 94 0e 01 	call	0x21c	; 0x21c <OneWire::reset_search() [clone .constprop.43]>
millis():
C:\Users\mathiasc\AppData\Local\Arduino15\packages\MegaCoreX\hardware\megaavr\1.0.4\cores\coreX-corefiles/wiring.c:87
{
  unsigned long m;

  // disable interrupts while we read timer0_millis or we might get an
  // inconsistent value (e.g. in the middle of a write to timer_millis)
  uint8_t status = SREG;
     ec8:	2f b7       	in	r18, 0x3f	; 63
C:\Users\mathiasc\AppData\Local\Arduino15\packages\MegaCoreX\hardware\megaavr\1.0.4\cores\coreX-corefiles/wiring.c:88
  cli();
     eca:	f8 94       	cli
C:\Users\mathiasc\AppData\Local\Arduino15\packages\MegaCoreX\hardware\megaavr\1.0.4\cores\coreX-corefiles/wiring.c:90

  m = timer_millis;
     ecc:	80 91 a3 28 	lds	r24, 0x28A3	; 0x8028a3 <timer_millis>
     ed0:	90 91 a4 28 	lds	r25, 0x28A4	; 0x8028a4 <timer_millis+0x1>
     ed4:	a0 91 a5 28 	lds	r26, 0x28A5	; 0x8028a5 <timer_millis+0x2>
     ed8:	b0 91 a6 28 	lds	r27, 0x28A6	; 0x8028a6 <timer_millis+0x3>
C:\Users\mathiasc\AppData\Local\Arduino15\packages\MegaCoreX\hardware\megaavr\1.0.4\cores\coreX-corefiles/wiring.c:92

  SREG = status;
     edc:	2f bf       	out	0x3f, r18	; 63
_ZN11TEMP_19040924OneWireStartConversationEv.constprop.35():
C:\Users\mathiasc\AppData\Local\Temp\arduino_build_312787\sketch/TEMP_190409.cpp:263
    last_onewirestrart=millis();
     ede:	80 93 64 29 	sts	0x2964, r24	; 0x802964 <Station+0xa>
     ee2:	90 93 65 29 	sts	0x2965, r25	; 0x802965 <Station+0xb>
     ee6:	a0 93 66 29 	sts	0x2966, r26	; 0x802966 <Station+0xc>
     eea:	b0 93 67 29 	sts	0x2967, r27	; 0x802967 <Station+0xd>
C:\Users\mathiasc\AppData\Local\Temp\arduino_build_312787\sketch/TEMP_190409.cpp:266
        
        
              ds.reset();
     eee:	0e 94 94 05 	call	0xb28	; 0xb28 <OneWire::reset() [clone .constprop.38]>
C:\Users\mathiasc\AppData\Local\Temp\arduino_build_312787\sketch/TEMP_190409.cpp:267
              ds.select(addr);
     ef2:	8b e6       	ldi	r24, 0x6B	; 107
     ef4:	99 e2       	ldi	r25, 0x29	; 41
     ef6:	0e 94 7c 05 	call	0xaf8	; 0xaf8 <OneWire::select(unsigned char const*) [clone .constprop.39]>
C:\Users\mathiasc\AppData\Local\Temp\arduino_build_312787\sketch/TEMP_190409.cpp:268
              ds.write(0x44, 1);        // start conversion, with parasite power on at the end
     efa:	61 e0       	ldi	r22, 0x01	; 1
     efc:	84 e4       	ldi	r24, 0x44	; 68
     efe:	0e 94 48 05 	call	0xa90	; 0xa90 <OneWire::write(unsigned char, unsigned char) [clone .constprop.40]>
C:\Users\mathiasc\AppData\Local\Temp\arduino_build_312787\sketch/TEMP_190409.cpp:269
              ds.reset_search();
     f02:	0e 94 0e 01 	call	0x21c	; 0x21c <OneWire::reset_search() [clone .constprop.43]>
C:\Users\mathiasc\AppData\Local\Temp\arduino_build_312787\sketch/TEMP_190409.cpp:270
              OneWireFetchNewData=true;
     f06:	81 e0       	ldi	r24, 0x01	; 1
     f08:	80 93 68 29 	sts	0x2968, r24	; 0x802968 <Station+0xe>
     f0c:	81 cf       	rjmp	.-254    	; 0xe10 <TEMP_190409::OneWireStartConversation() [clone .constprop.35]+0xce>
C:\Users\mathiasc\AppData\Local\Temp\arduino_build_312787\sketch/TEMP_190409.cpp:245
          if (data[7] == 0x10) {
            // "count remain" gives full 12 bit resolution
            raw = (raw & 0xFFF0) + 12 - data[6];
          }
        } else {
          byte cfg = (data[4] & 0x60);
     f0e:	8d 81       	ldd	r24, Y+5	; 0x05
     f10:	80 76       	andi	r24, 0x60	; 96
C:\Users\mathiasc\AppData\Local\Temp\arduino_build_312787\sketch/TEMP_190409.cpp:247
          // at lower res, the low bits are undefined, so let's zero them
          if (cfg == 0x00) raw = raw & ~7;  // 9 bit resolution, 93.75 ms
     f12:	11 f4       	brne	.+4      	; 0xf18 <TEMP_190409::OneWireStartConversation() [clone .constprop.35]+0x1d6>
     f14:	68 7f       	andi	r22, 0xF8	; 248
     f16:	a3 cf       	rjmp	.-186    	; 0xe5e <TEMP_190409::OneWireStartConversation() [clone .constprop.35]+0x11c>
C:\Users\mathiasc\AppData\Local\Temp\arduino_build_312787\sketch/TEMP_190409.cpp:248
          else if (cfg == 0x20) raw = raw & ~3; // 10 bit res, 187.5 ms
     f18:	80 32       	cpi	r24, 0x20	; 32
     f1a:	11 f4       	brne	.+4      	; 0xf20 <TEMP_190409::OneWireStartConversation() [clone .constprop.35]+0x1de>
     f1c:	6c 7f       	andi	r22, 0xFC	; 252
     f1e:	9f cf       	rjmp	.-194    	; 0xe5e <TEMP_190409::OneWireStartConversation() [clone .constprop.35]+0x11c>
C:\Users\mathiasc\AppData\Local\Temp\arduino_build_312787\sketch/TEMP_190409.cpp:249
          else if (cfg == 0x40) raw = raw & ~1; // 11 bit res, 375 ms
     f20:	80 34       	cpi	r24, 0x40	; 64
     f22:	09 f0       	breq	.+2      	; 0xf26 <TEMP_190409::OneWireStartConversation() [clone .constprop.35]+0x1e4>
     f24:	9c cf       	rjmp	.-200    	; 0xe5e <TEMP_190409::OneWireStartConversation() [clone .constprop.35]+0x11c>
     f26:	6e 7f       	andi	r22, 0xFE	; 254
     f28:	9a cf       	rjmp	.-204    	; 0xe5e <TEMP_190409::OneWireStartConversation() [clone .constprop.35]+0x11c>

00000f2a <TEMP_190409::Read(unsigned char) [clone .constprop.34]>:
_ZN11TEMP_1904094ReadEh.constprop.34():
C:\Users\mathiasc\AppData\Local\Temp\arduino_build_312787\sketch/TEMP_190409.cpp:26
 Function:    uint16_t Read( uint8_t )     
 Input:       uint16_t avg_cnt
 Output:      uint16_t Temp in C
 Discription: Reads the Temp in C
**********************************************************************************************************/
uint16_t TEMP_190409::Read( uint8_t avg_cnt){
     f2a:	cf 93       	push	r28
     f2c:	df 93       	push	r29
C:\Users\mathiasc\AppData\Local\Temp\arduino_build_312787\sketch/TEMP_190409.cpp:34
    uint16_t samples=0;
    uint16_t ADCvoltage =0;  

   //At this point the Temperatur will be compensated to 25C Junction Point temperatur due to the code involved 
   //We need to messure the current chip temperatur and compensate for it
   OneWireStartConversation();
     f2e:	0e 94 a1 06 	call	0xd42	; 0xd42 <TEMP_190409::OneWireStartConversation() [clone .constprop.35]>
GetAmbientTemperaturKelvin():
C:\Users\mathiasc\AppData\Local\Temp\arduino_build_312787\sketch/TEMP_190409.cpp:147
    return LastReadTemp;
}

int16_t TEMP_190409::GetAmbientTemperaturKelvin( void ){

  if(true == OneWireSensorFound){
     f32:	80 91 74 29 	lds	r24, 0x2974	; 0x802974 <Station+0x1a>
GetLastOneWireTempKelvin():
C:\Users\mathiasc\AppData\Local\Temp\arduino_build_312787\sketch/TEMP_190409.cpp:286
  
}

int16_t TEMP_190409::GetLastOneWireTempKelvin( void ){

  return LastTempReadKelvin;
     f36:	d0 91 69 29 	lds	r29, 0x2969	; 0x802969 <Station+0xf>
     f3a:	c0 91 6a 29 	lds	r28, 0x296A	; 0x80296a <Station+0x10>
GetAmbientTemperaturKelvin():
C:\Users\mathiasc\AppData\Local\Temp\arduino_build_312787\sketch/TEMP_190409.cpp:147
    return LastReadTemp;
}

int16_t TEMP_190409::GetAmbientTemperaturKelvin( void ){

  if(true == OneWireSensorFound){
     f3e:	81 11       	cpse	r24, r1
     f40:	04 c0       	rjmp	.+8      	; 0xf4a <TEMP_190409::Read(unsigned char) [clone .constprop.34]+0x20>
C:\Users\mathiasc\AppData\Local\Temp\arduino_build_312787\sketch/TEMP_190409.cpp:150
    return GetLastOneWireTempKelvin();
  } else {
    return GetOnchipTempKelvin();
     f42:	0e 94 bc 00 	call	0x178	; 0x178 <TEMP_190409::GetOnchipTempKelvin() [clone .constprop.45]>
     f46:	d8 2f       	mov	r29, r24
     f48:	c9 2f       	mov	r28, r25
_ZN11TEMP_1904094ReadEh.constprop.34():
C:\Users\mathiasc\AppData\Local\Temp\arduino_build_312787\sketch/TEMP_190409.cpp:58
   int16_t OffSetDegree =  AmbienetTempKelvin  - 299 ;

   


   switch(ElementType){
     f4a:	80 91 62 29 	lds	r24, 0x2962	; 0x802962 <Station+0x8>
     f4e:	90 91 63 29 	lds	r25, 0x2963	; 0x802963 <Station+0x9>
     f52:	81 30       	cpi	r24, 0x01	; 1
     f54:	91 05       	cpc	r25, r1
     f56:	09 f4       	brne	.+2      	; 0xf5a <TEMP_190409::Read(unsigned char) [clone .constprop.34]+0x30>
     f58:	68 c0       	rjmp	.+208    	; 0x102a <TEMP_190409::Read(unsigned char) [clone .constprop.34]+0x100>
     f5a:	02 97       	sbiw	r24, 0x02	; 2
     f5c:	09 f0       	breq	.+2      	; 0xf60 <TEMP_190409::Read(unsigned char) [clone .constprop.34]+0x36>
     f5e:	d7 c0       	rjmp	.+430    	; 0x110e <TEMP_190409::Read(unsigned char) [clone .constprop.34]+0x1e4>
     f60:	88 e0       	ldi	r24, 0x08	; 8
C:\Users\mathiasc\AppData\Local\Temp\arduino_build_312787\sketch/TEMP_190409.cpp:29
 Discription: Reads the Temp in C
**********************************************************************************************************/
uint16_t TEMP_190409::Read( uint8_t avg_cnt){
    
    uint16_t temperature=999;
    uint16_t samples=0;
     f62:	30 e0       	ldi	r19, 0x00	; 0
     f64:	20 e0       	ldi	r18, 0x00	; 0
analogRead():
C:\Users\mathiasc\AppData\Local\Arduino15\packages\MegaCoreX\hardware\megaavr\1.0.4\cores\coreX-corefiles/wiring_analog.c:66
  /* Reference should be already set up */
  /* Select channel */
  ADC0.MUXPOS = (pin << ADC_MUXPOS_gp);

  /* Start conversion */
  ADC0.COMMAND = ADC_STCONV_bm;
     f66:	91 e0       	ldi	r25, 0x01	; 1
C:\Users\mathiasc\AppData\Local\Arduino15\packages\MegaCoreX\hardware\megaavr\1.0.4\cores\coreX-corefiles/wiring_analog.c:63
    return NOT_A_PIN;

#if defined(ADC0)
  /* Reference should be already set up */
  /* Select channel */
  ADC0.MUXPOS = (pin << ADC_MUXPOS_gp);
     f68:	10 92 06 06 	sts	0x0606, r1	; 0x800606 <__TEXT_REGION_LENGTH__+0x7f4606>
C:\Users\mathiasc\AppData\Local\Arduino15\packages\MegaCoreX\hardware\megaavr\1.0.4\cores\coreX-corefiles/wiring_analog.c:66

  /* Start conversion */
  ADC0.COMMAND = ADC_STCONV_bm;
     f6c:	90 93 08 06 	sts	0x0608, r25	; 0x800608 <__TEXT_REGION_LENGTH__+0x7f4608>
C:\Users\mathiasc\AppData\Local\Arduino15\packages\MegaCoreX\hardware\megaavr\1.0.4\cores\coreX-corefiles/wiring_analog.c:69

  /* Wait for result ready */
  while (!(ADC0.INTFLAGS & ADC_RESRDY_bm))
     f70:	40 91 0b 06 	lds	r20, 0x060B	; 0x80060b <__TEXT_REGION_LENGTH__+0x7f460b>
     f74:	40 ff       	sbrs	r20, 0
     f76:	fc cf       	rjmp	.-8      	; 0xf70 <TEMP_190409::Read(unsigned char) [clone .constprop.34]+0x46>
C:\Users\mathiasc\AppData\Local\Arduino15\packages\MegaCoreX\hardware\megaavr\1.0.4\cores\coreX-corefiles/wiring_analog.c:73
    ;

  /* Combine two bytes */
  return ADC0.RES;
     f78:	40 91 10 06 	lds	r20, 0x0610	; 0x800610 <__TEXT_REGION_LENGTH__+0x7f4610>
     f7c:	50 91 11 06 	lds	r21, 0x0611	; 0x800611 <__TEXT_REGION_LENGTH__+0x7f4611>
_ZN11TEMP_1904094ReadEh.constprop.34():
C:\Users\mathiasc\AppData\Local\Temp\arduino_build_312787\sketch/TEMP_190409.cpp:63
   switch(ElementType){
   
      case Type_K:{
               for(uint8_t i =0;i< avg_cnt;i++)
               {
                  samples += analogRead(A0);
     f80:	24 0f       	add	r18, r20
     f82:	35 1f       	adc	r19, r21
     f84:	81 50       	subi	r24, 0x01	; 1
C:\Users\mathiasc\AppData\Local\Temp\arduino_build_312787\sketch/TEMP_190409.cpp:61


   switch(ElementType){
   
      case Type_K:{
               for(uint8_t i =0;i< avg_cnt;i++)
     f86:	81 f7       	brne	.-32     	; 0xf68 <TEMP_190409::Read(unsigned char) [clone .constprop.34]+0x3e>
C:\Users\mathiasc\AppData\Local\Temp\arduino_build_312787\sketch/TEMP_190409.cpp:90
      case Type_C:{
            for(uint8_t i =0;i< avg_cnt;i++)
            {
               samples += analogRead(A1);
            }
            samples = samples / avg_cnt;
     f88:	83 e0       	ldi	r24, 0x03	; 3
     f8a:	36 95       	lsr	r19
     f8c:	27 95       	ror	r18
     f8e:	8a 95       	dec	r24
     f90:	e1 f7       	brne	.-8      	; 0xf8a <TEMP_190409::Read(unsigned char) [clone .constprop.34]+0x60>
map():
C:\Users\mathiasc\AppData\Local\Arduino15\packages\MegaCoreX\hardware\megaavr\1.0.4\cores\coreX-corefiles\api/Common.cpp:6
#include "Common.h"

/* C++ prototypes */
long map(long x, long in_min, long in_max, long out_min, long out_max)
{
  return (x - in_min) * (out_max - out_min) / (in_max - in_min) + out_min;
     f92:	a8 e8       	ldi	r26, 0x88	; 136
     f94:	b3 e1       	ldi	r27, 0x13	; 19
     f96:	0e 94 69 1b 	call	0x36d2	; 0x36d2 <__umulhisi3>
     f9a:	2f ef       	ldi	r18, 0xFF	; 255
     f9c:	33 e0       	ldi	r19, 0x03	; 3
     f9e:	40 e0       	ldi	r20, 0x00	; 0
     fa0:	50 e0       	ldi	r21, 0x00	; 0
     fa2:	0e 94 44 1b 	call	0x3688	; 0x3688 <__divmodsi4>
_ZN11TEMP_1904094ReadEh.constprop.34():
C:\Users\mathiasc\AppData\Local\Temp\arduino_build_312787\sketch/TEMP_190409.cpp:93
            ADCvoltage = map(samples,0,1023,0,5000);

            if(ADCvoltage>2000){
     fa6:	21 3d       	cpi	r18, 0xD1	; 209
     fa8:	67 e0       	ldi	r22, 0x07	; 7
     faa:	36 07       	cpc	r19, r22
     fac:	08 f0       	brcs	.+2      	; 0xfb0 <TEMP_190409::Read(unsigned char) [clone .constprop.34]+0x86>
     fae:	b2 c0       	rjmp	.+356    	; 0x1114 <TEMP_190409::Read(unsigned char) [clone .constprop.34]+0x1ea>
C:\Users\mathiasc\AppData\Local\Temp\arduino_build_312787\sketch/TEMP_190409.cpp:95
               temperature=999;
            } else if( (ADCvoltage>=1550) && (ADCvoltage < 2000) ){
     fb0:	b9 01       	movw	r22, r18
     fb2:	6e 50       	subi	r22, 0x0E	; 14
     fb4:	76 40       	sbci	r23, 0x06	; 6
     fb6:	62 3c       	cpi	r22, 0xC2	; 194
     fb8:	71 40       	sbci	r23, 0x01	; 1
     fba:	08 f0       	brcs	.+2      	; 0xfbe <TEMP_190409::Read(unsigned char) [clone .constprop.34]+0x94>
     fbc:	4b c0       	rjmp	.+150    	; 0x1054 <TEMP_190409::Read(unsigned char) [clone .constprop.34]+0x12a>
map():
C:\Users\mathiasc\AppData\Local\Arduino15\packages\MegaCoreX\hardware\megaavr\1.0.4\cores\coreX-corefiles\api/Common.cpp:6
     fbe:	2e 50       	subi	r18, 0x0E	; 14
     fc0:	36 40       	sbci	r19, 0x06	; 6
     fc2:	41 09       	sbc	r20, r1
     fc4:	51 09       	sbc	r21, r1
     fc6:	aa ea       	ldi	r26, 0xAA	; 170
     fc8:	b0 e0       	ldi	r27, 0x00	; 0
     fca:	0e 94 7f 1b 	call	0x36fe	; 0x36fe <__muluhisi3>
     fce:	22 ec       	ldi	r18, 0xC2	; 194
     fd0:	31 e0       	ldi	r19, 0x01	; 1
     fd2:	40 e0       	ldi	r20, 0x00	; 0
     fd4:	50 e0       	ldi	r21, 0x00	; 0
     fd6:	0e 94 44 1b 	call	0x3688	; 0x3688 <__divmodsi4>
     fda:	24 53       	subi	r18, 0x34	; 52
     fdc:	3e 4f       	sbci	r19, 0xFE	; 254
     fde:	4f 4f       	sbci	r20, 0xFF	; 255
     fe0:	5f 4f       	sbci	r21, 0xFF	; 255
     fe2:	8d 2f       	mov	r24, r29
     fe4:	9c 2f       	mov	r25, r28
     fe6:	89 3e       	cpi	r24, 0xE9	; 233
     fe8:	91 05       	cpc	r25, r1
     fea:	10 f4       	brcc	.+4      	; 0xff0 <TEMP_190409::Read(unsigned char) [clone .constprop.34]+0xc6>
     fec:	89 ee       	ldi	r24, 0xE9	; 233
     fee:	90 e0       	ldi	r25, 0x00	; 0
_ZN11TEMP_1904094ReadEh.constprop.34():
C:\Users\mathiasc\AppData\Local\Temp\arduino_build_312787\sketch/TEMP_190409.cpp:53
      //We shoudl give a warning about it
      AmbienetTempKelvin = 233;
   }
   
   //We need to substract 273.15 to get Celsius
   int16_t OffSetDegree =  AmbienetTempKelvin  - 299 ;
     ff0:	80 39       	cpi	r24, 0x90	; 144
     ff2:	41 e0       	ldi	r20, 0x01	; 1
     ff4:	94 07       	cpc	r25, r20
     ff6:	10 f0       	brcs	.+4      	; 0xffc <TEMP_190409::Read(unsigned char) [clone .constprop.34]+0xd2>
     ff8:	8f e8       	ldi	r24, 0x8F	; 143
     ffa:	91 e0       	ldi	r25, 0x01	; 1
     ffc:	8b 52       	subi	r24, 0x2B	; 43
     ffe:	91 40       	sbci	r25, 0x01	; 1
C:\Users\mathiasc\AppData\Local\Temp\arduino_build_312787\sketch/TEMP_190409.cpp:120
      } break;
   }
      

   //We have calculated with 25C or 298.15K 
   if((  temperature - OffSetDegree) > 0 ){
    1000:	82 17       	cp	r24, r18
    1002:	93 07       	cpc	r25, r19
    1004:	09 f4       	brne	.+2      	; 0x1008 <TEMP_190409::Read(unsigned char) [clone .constprop.34]+0xde>
    1006:	89 c0       	rjmp	.+274    	; 0x111a <TEMP_190409::Read(unsigned char) [clone .constprop.34]+0x1f0>
C:\Users\mathiasc\AppData\Local\Temp\arduino_build_312787\sketch/TEMP_190409.cpp:121
      if(temperature<999){
    1008:	27 3e       	cpi	r18, 0xE7	; 231
    100a:	63 e0       	ldi	r22, 0x03	; 3
    100c:	36 07       	cpc	r19, r22
    100e:	10 f4       	brcc	.+4      	; 0x1014 <TEMP_190409::Read(unsigned char) [clone .constprop.34]+0xea>
C:\Users\mathiasc\AppData\Local\Temp\arduino_build_312787\sketch/TEMP_190409.cpp:122
         LastReadTemp = ( temperature - OffSetDegree );
    1010:	28 1b       	sub	r18, r24
    1012:	39 0b       	sbc	r19, r25
C:\Users\mathiasc\AppData\Local\Temp\arduino_build_312787\sketch/TEMP_190409.cpp:124
         } else {
          LastReadTemp =  temperature; 
    1014:	20 93 60 29 	sts	0x2960, r18	; 0x802960 <Station+0x6>
    1018:	30 93 61 29 	sts	0x2961, r19	; 0x802961 <Station+0x7>
C:\Users\mathiasc\AppData\Local\Temp\arduino_build_312787\sketch/TEMP_190409.cpp:131
   } else {
      LastReadTemp =0;
   }
   
   return LastReadTemp;
}
    101c:	80 91 60 29 	lds	r24, 0x2960	; 0x802960 <Station+0x6>
    1020:	90 91 61 29 	lds	r25, 0x2961	; 0x802961 <Station+0x7>
    1024:	df 91       	pop	r29
    1026:	cf 91       	pop	r28
    1028:	08 95       	ret
C:\Users\mathiasc\AppData\Local\Temp\arduino_build_312787\sketch/TEMP_190409.cpp:58
   int16_t OffSetDegree =  AmbienetTempKelvin  - 299 ;

   


   switch(ElementType){
    102a:	88 e0       	ldi	r24, 0x08	; 8
C:\Users\mathiasc\AppData\Local\Temp\arduino_build_312787\sketch/TEMP_190409.cpp:29
 Discription: Reads the Temp in C
**********************************************************************************************************/
uint16_t TEMP_190409::Read( uint8_t avg_cnt){
    
    uint16_t temperature=999;
    uint16_t samples=0;
    102c:	30 e0       	ldi	r19, 0x00	; 0
    102e:	20 e0       	ldi	r18, 0x00	; 0
analogRead():
C:\Users\mathiasc\AppData\Local\Arduino15\packages\MegaCoreX\hardware\megaavr\1.0.4\cores\coreX-corefiles/wiring_analog.c:63
    return NOT_A_PIN;

#if defined(ADC0)
  /* Reference should be already set up */
  /* Select channel */
  ADC0.MUXPOS = (pin << ADC_MUXPOS_gp);
    1030:	91 e0       	ldi	r25, 0x01	; 1
    1032:	90 93 06 06 	sts	0x0606, r25	; 0x800606 <__TEXT_REGION_LENGTH__+0x7f4606>
C:\Users\mathiasc\AppData\Local\Arduino15\packages\MegaCoreX\hardware\megaavr\1.0.4\cores\coreX-corefiles/wiring_analog.c:66

  /* Start conversion */
  ADC0.COMMAND = ADC_STCONV_bm;
    1036:	90 93 08 06 	sts	0x0608, r25	; 0x800608 <__TEXT_REGION_LENGTH__+0x7f4608>
C:\Users\mathiasc\AppData\Local\Arduino15\packages\MegaCoreX\hardware\megaavr\1.0.4\cores\coreX-corefiles/wiring_analog.c:69

  /* Wait for result ready */
  while (!(ADC0.INTFLAGS & ADC_RESRDY_bm))
    103a:	40 91 0b 06 	lds	r20, 0x060B	; 0x80060b <__TEXT_REGION_LENGTH__+0x7f460b>
    103e:	40 ff       	sbrs	r20, 0
    1040:	fc cf       	rjmp	.-8      	; 0x103a <TEMP_190409::Read(unsigned char) [clone .constprop.34]+0x110>
C:\Users\mathiasc\AppData\Local\Arduino15\packages\MegaCoreX\hardware\megaavr\1.0.4\cores\coreX-corefiles/wiring_analog.c:73
    ;

  /* Combine two bytes */
  return ADC0.RES;
    1042:	40 91 10 06 	lds	r20, 0x0610	; 0x800610 <__TEXT_REGION_LENGTH__+0x7f4610>
    1046:	50 91 11 06 	lds	r21, 0x0611	; 0x800611 <__TEXT_REGION_LENGTH__+0x7f4611>
_ZN11TEMP_1904094ReadEh.constprop.34():
C:\Users\mathiasc\AppData\Local\Temp\arduino_build_312787\sketch/TEMP_190409.cpp:88
      } break;

      case Type_C:{
            for(uint8_t i =0;i< avg_cnt;i++)
            {
               samples += analogRead(A1);
    104a:	24 0f       	add	r18, r20
    104c:	35 1f       	adc	r19, r21
    104e:	81 50       	subi	r24, 0x01	; 1
C:\Users\mathiasc\AppData\Local\Temp\arduino_build_312787\sketch/TEMP_190409.cpp:86
               /* This will considerd as internal fault */
            }
      } break;

      case Type_C:{
            for(uint8_t i =0;i< avg_cnt;i++)
    1050:	81 f7       	brne	.-32     	; 0x1032 <TEMP_190409::Read(unsigned char) [clone .constprop.34]+0x108>
    1052:	9a cf       	rjmp	.-204    	; 0xf88 <TEMP_190409::Read(unsigned char) [clone .constprop.34]+0x5e>
C:\Users\mathiasc\AppData\Local\Temp\arduino_build_312787\sketch/TEMP_190409.cpp:97

            if(ADCvoltage>2000){
               temperature=999;
            } else if( (ADCvoltage>=1550) && (ADCvoltage < 2000) ){
            temperature = map(ADCvoltage, 1550, 2000,460,630);
            } else if(ADCvoltage >= 885 && ADCvoltage < 1555){//1555 max voltage value (mV)
    1054:	b9 01       	movw	r22, r18
    1056:	65 57       	subi	r22, 0x75	; 117
    1058:	73 40       	sbci	r23, 0x03	; 3
    105a:	6e 39       	cpi	r22, 0x9E	; 158
    105c:	72 40       	sbci	r23, 0x02	; 2
    105e:	98 f4       	brcc	.+38     	; 0x1086 <TEMP_190409::Read(unsigned char) [clone .constprop.34]+0x15c>
map():
C:\Users\mathiasc\AppData\Local\Arduino15\packages\MegaCoreX\hardware\megaavr\1.0.4\cores\coreX-corefiles\api/Common.cpp:6
    1060:	25 57       	subi	r18, 0x75	; 117
    1062:	33 40       	sbci	r19, 0x03	; 3
    1064:	41 09       	sbc	r20, r1
    1066:	51 09       	sbc	r21, r1
    1068:	aa ea       	ldi	r26, 0xAA	; 170
    106a:	b0 e0       	ldi	r27, 0x00	; 0
    106c:	0e 94 7f 1b 	call	0x36fe	; 0x36fe <__muluhisi3>
    1070:	23 ea       	ldi	r18, 0xA3	; 163
    1072:	32 e0       	ldi	r19, 0x02	; 2
    1074:	40 e0       	ldi	r20, 0x00	; 0
    1076:	50 e0       	ldi	r21, 0x00	; 0
    1078:	0e 94 44 1b 	call	0x3688	; 0x3688 <__divmodsi4>
    107c:	2e 5d       	subi	r18, 0xDE	; 222
    107e:	3e 4f       	sbci	r19, 0xFE	; 254
    1080:	4f 4f       	sbci	r20, 0xFF	; 255
    1082:	5f 4f       	sbci	r21, 0xFF	; 255
    1084:	ae cf       	rjmp	.-164    	; 0xfe2 <TEMP_190409::Read(unsigned char) [clone .constprop.34]+0xb8>
_ZN11TEMP_1904094ReadEh.constprop.34():
C:\Users\mathiasc\AppData\Local\Temp\arduino_build_312787\sketch/TEMP_190409.cpp:99
               temperature = map(ADCvoltage, 885, 1560,290,460); //ADCvoltage =  voltage value (mV), 885 = lower limit(mV), 1555 = higher limit(mv), 290 = lower limit(degree), 460 = higher limit(degree)  
            } else if(ADCvoltage >=  205&& ADCvoltage < 885) {
    1086:	b9 01       	movw	r22, r18
    1088:	6d 5c       	subi	r22, 0xCD	; 205
    108a:	71 09       	sbc	r23, r1
    108c:	68 3a       	cpi	r22, 0xA8	; 168
    108e:	72 40       	sbci	r23, 0x02	; 2
    1090:	98 f4       	brcc	.+38     	; 0x10b8 <TEMP_190409::Read(unsigned char) [clone .constprop.34]+0x18e>
map():
C:\Users\mathiasc\AppData\Local\Arduino15\packages\MegaCoreX\hardware\megaavr\1.0.4\cores\coreX-corefiles\api/Common.cpp:6
    1092:	2d 5c       	subi	r18, 0xCD	; 205
    1094:	31 09       	sbc	r19, r1
    1096:	41 09       	sbc	r20, r1
    1098:	51 09       	sbc	r21, r1
    109a:	ad eb       	ldi	r26, 0xBD	; 189
    109c:	b0 e0       	ldi	r27, 0x00	; 0
    109e:	0e 94 7f 1b 	call	0x36fe	; 0x36fe <__muluhisi3>
    10a2:	28 ea       	ldi	r18, 0xA8	; 168
    10a4:	32 e0       	ldi	r19, 0x02	; 2
    10a6:	40 e0       	ldi	r20, 0x00	; 0
    10a8:	50 e0       	ldi	r21, 0x00	; 0
    10aa:	0e 94 44 1b 	call	0x3688	; 0x3688 <__divmodsi4>
    10ae:	2c 59       	subi	r18, 0x9C	; 156
    10b0:	3f 4f       	sbci	r19, 0xFF	; 255
    10b2:	4f 4f       	sbci	r20, 0xFF	; 255
    10b4:	5f 4f       	sbci	r21, 0xFF	; 255
    10b6:	95 cf       	rjmp	.-214    	; 0xfe2 <TEMP_190409::Read(unsigned char) [clone .constprop.34]+0xb8>
_ZN11TEMP_1904094ReadEh.constprop.34():
C:\Users\mathiasc\AppData\Local\Temp\arduino_build_312787\sketch/TEMP_190409.cpp:101
               temperature = map(ADCvoltage, 205, 885,100,289); 
            } else if (ADCvoltage >= 58 && ADCvoltage <205){
    10b8:	b9 01       	movw	r22, r18
    10ba:	6a 53       	subi	r22, 0x3A	; 58
    10bc:	71 09       	sbc	r23, r1
    10be:	63 39       	cpi	r22, 0x93	; 147
    10c0:	71 05       	cpc	r23, r1
    10c2:	98 f4       	brcc	.+38     	; 0x10ea <TEMP_190409::Read(unsigned char) [clone .constprop.34]+0x1c0>
map():
C:\Users\mathiasc\AppData\Local\Arduino15\packages\MegaCoreX\hardware\megaavr\1.0.4\cores\coreX-corefiles\api/Common.cpp:6
    10c4:	2a 53       	subi	r18, 0x3A	; 58
    10c6:	31 09       	sbc	r19, r1
    10c8:	41 09       	sbc	r20, r1
    10ca:	51 09       	sbc	r21, r1
    10cc:	a1 e3       	ldi	r26, 0x31	; 49
    10ce:	b0 e0       	ldi	r27, 0x00	; 0
    10d0:	0e 94 7f 1b 	call	0x36fe	; 0x36fe <__muluhisi3>
    10d4:	23 e9       	ldi	r18, 0x93	; 147
    10d6:	30 e0       	ldi	r19, 0x00	; 0
    10d8:	40 e0       	ldi	r20, 0x00	; 0
    10da:	50 e0       	ldi	r21, 0x00	; 0
    10dc:	0e 94 44 1b 	call	0x3688	; 0x3688 <__divmodsi4>
    10e0:	2e 5c       	subi	r18, 0xCE	; 206
    10e2:	3f 4f       	sbci	r19, 0xFF	; 255
    10e4:	4f 4f       	sbci	r20, 0xFF	; 255
    10e6:	5f 4f       	sbci	r21, 0xFF	; 255
    10e8:	7c cf       	rjmp	.-264    	; 0xfe2 <TEMP_190409::Read(unsigned char) [clone .constprop.34]+0xb8>
_ZN11TEMP_1904094ReadEh.constprop.34():
C:\Users\mathiasc\AppData\Local\Temp\arduino_build_312787\sketch/TEMP_190409.cpp:103
               temperature = map(ADCvoltage,58,205,50,99);
            } else if(ADCvoltage < 58) {
    10ea:	2a 33       	cpi	r18, 0x3A	; 58
    10ec:	31 05       	cpc	r19, r1
    10ee:	90 f4       	brcc	.+36     	; 0x1114 <TEMP_190409::Read(unsigned char) [clone .constprop.34]+0x1ea>
map():
C:\Users\mathiasc\AppData\Local\Arduino15\packages\MegaCoreX\hardware\megaavr\1.0.4\cores\coreX-corefiles\api/Common.cpp:6
    10f0:	a8 e1       	ldi	r26, 0x18	; 24
    10f2:	b0 e0       	ldi	r27, 0x00	; 0
    10f4:	0e 94 7f 1b 	call	0x36fe	; 0x36fe <__muluhisi3>
    10f8:	2a e3       	ldi	r18, 0x3A	; 58
    10fa:	30 e0       	ldi	r19, 0x00	; 0
    10fc:	40 e0       	ldi	r20, 0x00	; 0
    10fe:	50 e0       	ldi	r21, 0x00	; 0
    1100:	0e 94 44 1b 	call	0x3688	; 0x3688 <__divmodsi4>
    1104:	27 5e       	subi	r18, 0xE7	; 231
    1106:	3f 4f       	sbci	r19, 0xFF	; 255
    1108:	4f 4f       	sbci	r20, 0xFF	; 255
    110a:	5f 4f       	sbci	r21, 0xFF	; 255
    110c:	6a cf       	rjmp	.-300    	; 0xfe2 <TEMP_190409::Read(unsigned char) [clone .constprop.34]+0xb8>
_ZN11TEMP_1904094ReadEh.constprop.34():
C:\Users\mathiasc\AppData\Local\Temp\arduino_build_312787\sketch/TEMP_190409.cpp:113

      } break;

      default:{
               //This is a config problem and shall not happen at all
               temperature=999;
    110e:	27 ee       	ldi	r18, 0xE7	; 231
    1110:	33 e0       	ldi	r19, 0x03	; 3
    1112:	67 cf       	rjmp	.-306    	; 0xfe2 <TEMP_190409::Read(unsigned char) [clone .constprop.34]+0xb8>
    1114:	27 ee       	ldi	r18, 0xE7	; 231
    1116:	33 e0       	ldi	r19, 0x03	; 3
    1118:	7d cf       	rjmp	.-262    	; 0x1014 <TEMP_190409::Read(unsigned char) [clone .constprop.34]+0xea>
C:\Users\mathiasc\AppData\Local\Temp\arduino_build_312787\sketch/TEMP_190409.cpp:127
         LastReadTemp = ( temperature - OffSetDegree );
         } else {
          LastReadTemp =  temperature; 
         }
   } else {
      LastReadTemp =0;
    111a:	10 92 60 29 	sts	0x2960, r1	; 0x802960 <Station+0x6>
    111e:	10 92 61 29 	sts	0x2961, r1	; 0x802961 <Station+0x7>
    1122:	7c cf       	rjmp	.-264    	; 0x101c <TEMP_190409::Read(unsigned char) [clone .constprop.34]+0xf2>

00001124 <powerSave_TimerReset()>:
_Z20powerSave_TimerResetv():
D:\Projects\190409-DIY_SOLDERING_IRON\Soldering-Station/Soldering-Station.ino:664
 Output:      None
 Description: Reset the timer for powersave
 *************************************************************************************************************/ 
void powerSave_TimerReset(){

  while( powerSave_C != 0 ){
    1124:	80 91 37 28 	lds	r24, 0x2837	; 0x802837 <powerSave_C>
    1128:	90 91 38 28 	lds	r25, 0x2838	; 0x802838 <powerSave_C+0x1>
    112c:	89 2b       	or	r24, r25
    112e:	29 f0       	breq	.+10     	; 0x113a <powerSave_TimerReset()+0x16>
D:\Projects\190409-DIY_SOLDERING_IRON\Soldering-Station/Soldering-Station.ino:665
    powerSave_C =0;
    1130:	10 92 37 28 	sts	0x2837, r1	; 0x802837 <powerSave_C>
    1134:	10 92 38 28 	sts	0x2838, r1	; 0x802838 <powerSave_C+0x1>
    1138:	f5 cf       	rjmp	.-22     	; 0x1124 <powerSave_TimerReset()>
D:\Projects\190409-DIY_SOLDERING_IRON\Soldering-Station/Soldering-Station.ino:667
  }
  powerSave_F=false;      /* we reset the powersave request */
    113a:	10 92 91 28 	sts	0x2891, r1	; 0x802891 <powerSave_F>
D:\Projects\190409-DIY_SOLDERING_IRON\Soldering-Station/Soldering-Station.ino:668
}
    113e:	08 95       	ret

00001140 <pwm_Adjust()>:
_Z10pwm_Adjustv():
D:\Projects\190409-DIY_SOLDERING_IRON\Soldering-Station/Soldering-Station.ino:577
 Output:      uint16_t 
 Description: Pwm adjustment
 Remarks: Addition of a FSM would remove the delay(10)
**********************************************************************************************************/
void pwm_Adjust(void)
{
    1140:	cf 92       	push	r12
    1142:	df 92       	push	r13
    1144:	ef 92       	push	r14
    1146:	ff 92       	push	r15
D:\Projects\190409-DIY_SOLDERING_IRON\Soldering-Station/Soldering-Station.ino:583
    static uint16_t LastRun=0;
    uint16_t call_delta=0;
    int16_t temp_Diff=0;
    uint16_t temperature=999;
    
    if(LastRun>Ticks){
    1148:	20 91 2b 28 	lds	r18, 0x282B	; 0x80282b <pwm_Adjust()::LastRun>
    114c:	30 91 2c 28 	lds	r19, 0x282C	; 0x80282c <pwm_Adjust()::LastRun+0x1>
    1150:	80 91 3b 28 	lds	r24, 0x283B	; 0x80283b <Ticks>
    1154:	90 91 3c 28 	lds	r25, 0x283C	; 0x80283c <Ticks+0x1>
    1158:	82 17       	cp	r24, r18
    115a:	93 07       	cpc	r25, r19
    115c:	78 f4       	brcc	.+30     	; 0x117c <pwm_Adjust()+0x3c>
D:\Projects\190409-DIY_SOLDERING_IRON\Soldering-Station/Soldering-Station.ino:584
      call_delta=UINT16_MAX-LastRun+Ticks;
    115e:	80 91 3b 28 	lds	r24, 0x283B	; 0x80283b <Ticks>
    1162:	90 91 3c 28 	lds	r25, 0x283C	; 0x80283c <Ticks+0x1>
    1166:	01 97       	sbiw	r24, 0x01	; 1
D:\Projects\190409-DIY_SOLDERING_IRON\Soldering-Station/Soldering-Station.ino:586
    } else {
      call_delta=Ticks-LastRun;
    1168:	82 1b       	sub	r24, r18
    116a:	93 0b       	sbc	r25, r19
D:\Projects\190409-DIY_SOLDERING_IRON\Soldering-Station/Soldering-Station.ino:589
    }
    //We will adjust every 50ms the PWM value ( 20Hz )
    if(call_delta< DETLA_REG ){
    116c:	c2 97       	sbiw	r24, 0x32	; 50
    116e:	58 f4       	brcc	.+22     	; 0x1186 <pwm_Adjust()+0x46>
D:\Projects\190409-DIY_SOLDERING_IRON\Soldering-Station/Soldering-Station.ino:590
      _NOP();
    1170:	00 00       	nop
D:\Projects\190409-DIY_SOLDERING_IRON\Soldering-Station/Soldering-Station.ino:650
      HeatPwr_Percent= ((current_PWM*100) / MAX_PWM_LIMIT );
      Station.SetPWM(current_PWM);
      adjustPWM_Running=0;
    }   
    
}
    1172:	ff 90       	pop	r15
    1174:	ef 90       	pop	r14
    1176:	df 90       	pop	r13
    1178:	cf 90       	pop	r12
    117a:	08 95       	ret
D:\Projects\190409-DIY_SOLDERING_IRON\Soldering-Station/Soldering-Station.ino:586
    uint16_t temperature=999;
    
    if(LastRun>Ticks){
      call_delta=UINT16_MAX-LastRun+Ticks;
    } else {
      call_delta=Ticks-LastRun;
    117c:	80 91 3b 28 	lds	r24, 0x283B	; 0x80283b <Ticks>
    1180:	90 91 3c 28 	lds	r25, 0x283C	; 0x80283c <Ticks+0x1>
    1184:	f1 cf       	rjmp	.-30     	; 0x1168 <pwm_Adjust()+0x28>
D:\Projects\190409-DIY_SOLDERING_IRON\Soldering-Station/Soldering-Station.ino:592
    }
    //We will adjust every 50ms the PWM value ( 20Hz )
    if(call_delta< DETLA_REG ){
      _NOP();
    } else {
      LastRun=Ticks;
    1186:	80 91 3b 28 	lds	r24, 0x283B	; 0x80283b <Ticks>
    118a:	90 91 3c 28 	lds	r25, 0x283C	; 0x80283c <Ticks+0x1>
    118e:	80 93 2b 28 	sts	0x282B, r24	; 0x80282b <pwm_Adjust()::LastRun>
    1192:	90 93 2c 28 	sts	0x282C, r25	; 0x80282c <pwm_Adjust()::LastRun+0x1>
D:\Projects\190409-DIY_SOLDERING_IRON\Soldering-Station/Soldering-Station.ino:593
      cli();
    1196:	f8 94       	cli
D:\Projects\190409-DIY_SOLDERING_IRON\Soldering-Station/Soldering-Station.ino:594
      adjustPWM_Running=1;
    1198:	81 e0       	ldi	r24, 0x01	; 1
    119a:	80 93 2a 28 	sts	0x282A, r24	; 0x80282a <adjustPWM_Running>
D:\Projects\190409-DIY_SOLDERING_IRON\Soldering-Station/Soldering-Station.ino:595
      sei();
    119e:	78 94       	sei
Off():
C:\Users\mathiasc\AppData\Local\Temp\arduino_build_312787\sketch/PWM_190409.cpp:38
 Discription: Turns the PWM off
**********************************************************************************************************/
void PWM_190409::Off( void ) {

  //Disable PWM
  TCA0.SINGLE.CMP0BUF=0;
    11a0:	10 92 38 0a 	sts	0x0A38, r1	; 0x800a38 <__TEXT_REGION_LENGTH__+0x7f4a38>
    11a4:	10 92 39 0a 	sts	0x0A39, r1	; 0x800a39 <__TEXT_REGION_LENGTH__+0x7f4a39>
_Z10pwm_Adjustv():
D:\Projects\190409-DIY_SOLDERING_IRON\Soldering-Station/Soldering-Station.ino:597
      Station.PWM.Off();                          //switch off heater         
      delay(10);                                  //wait for some time (to get low pass filter in steady state)
    11a8:	6a e0       	ldi	r22, 0x0A	; 10
    11aa:	70 e0       	ldi	r23, 0x00	; 0
    11ac:	80 e0       	ldi	r24, 0x00	; 0
    11ae:	90 e0       	ldi	r25, 0x00	; 0
    11b0:	0e 94 5a 06 	call	0xcb4	; 0xcb4 <delay>
D:\Projects\190409-DIY_SOLDERING_IRON\Soldering-Station/Soldering-Station.ino:598
      temperature = Station.Temp.Read(ADC_AVG);
    11b4:	0e 94 95 07 	call	0xf2a	; 0xf2a <TEMP_190409::Read(unsigned char) [clone .constprop.34]>
D:\Projects\190409-DIY_SOLDERING_IRON\Soldering-Station/Soldering-Station.ino:600
      
      if(setpoint > temperature)
    11b8:	20 91 20 28 	lds	r18, 0x2820	; 0x802820 <setpoint>
    11bc:	30 91 21 28 	lds	r19, 0x2821	; 0x802821 <setpoint+0x1>
    11c0:	82 17       	cp	r24, r18
    11c2:	93 07       	cpc	r25, r19
    11c4:	08 f0       	brcs	.+2      	; 0x11c8 <pwm_Adjust()+0x88>
    11c6:	70 c0       	rjmp	.+224    	; 0x12a8 <pwm_Adjust()+0x168>
D:\Projects\190409-DIY_SOLDERING_IRON\Soldering-Station/Soldering-Station.ino:602
      {
        temp_Diff = (int32_t)setpoint - (int32_t)temperature;
    11c8:	a0 91 20 28 	lds	r26, 0x2820	; 0x802820 <setpoint>
    11cc:	b0 91 21 28 	lds	r27, 0x2821	; 0x802821 <setpoint+0x1>
    11d0:	a8 1b       	sub	r26, r24
    11d2:	b9 0b       	sbc	r27, r25
D:\Projects\190409-DIY_SOLDERING_IRON\Soldering-Station/Soldering-Station.ino:603
        if(temp_Diff < 3)
    11d4:	a3 30       	cpi	r26, 0x03	; 3
    11d6:	b1 05       	cpc	r27, r1
    11d8:	0c f0       	brlt	.+2      	; 0x11dc <pwm_Adjust()+0x9c>
    11da:	51 c0       	rjmp	.+162    	; 0x127e <pwm_Adjust()+0x13e>
D:\Projects\190409-DIY_SOLDERING_IRON\Soldering-Station/Soldering-Station.ino:605
        {   
          current_PWM +=(int32_t)5;
    11dc:	80 91 8d 28 	lds	r24, 0x288D	; 0x80288d <current_PWM>
    11e0:	90 91 8e 28 	lds	r25, 0x288E	; 0x80288e <current_PWM+0x1>
    11e4:	a0 91 8f 28 	lds	r26, 0x288F	; 0x80288f <current_PWM+0x2>
    11e8:	b0 91 90 28 	lds	r27, 0x2890	; 0x802890 <current_PWM+0x3>
    11ec:	05 96       	adiw	r24, 0x05	; 5
    11ee:	a1 1d       	adc	r26, r1
    11f0:	b1 1d       	adc	r27, r1
    11f2:	80 93 8d 28 	sts	0x288D, r24	; 0x80288d <current_PWM>
    11f6:	90 93 8e 28 	sts	0x288E, r25	; 0x80288e <current_PWM+0x1>
    11fa:	a0 93 8f 28 	sts	0x288F, r26	; 0x80288f <current_PWM+0x2>
    11fe:	b0 93 90 28 	sts	0x2890, r27	; 0x802890 <current_PWM+0x3>
D:\Projects\190409-DIY_SOLDERING_IRON\Soldering-Station/Soldering-Station.ino:609
        } else {
          current_PWM = (int32_t)temp_Diff  * (int32_t)setpoint/ (int32_t)6 ;
        }
        if(current_PWM > MAX_PWM_LIMIT){   
    1202:	80 91 8d 28 	lds	r24, 0x288D	; 0x80288d <current_PWM>
    1206:	90 91 8e 28 	lds	r25, 0x288E	; 0x80288e <current_PWM+0x1>
    120a:	a0 91 8f 28 	lds	r26, 0x288F	; 0x80288f <current_PWM+0x2>
    120e:	b0 91 90 28 	lds	r27, 0x2890	; 0x802890 <current_PWM+0x3>
    1212:	81 30       	cpi	r24, 0x01	; 1
    1214:	98 40       	sbci	r25, 0x08	; 8
    1216:	a1 05       	cpc	r26, r1
    1218:	b1 05       	cpc	r27, r1
    121a:	64 f0       	brlt	.+24     	; 0x1234 <pwm_Adjust()+0xf4>
D:\Projects\190409-DIY_SOLDERING_IRON\Soldering-Station/Soldering-Station.ino:610
           current_PWM = MAX_PWM_LIMIT;
    121c:	80 e0       	ldi	r24, 0x00	; 0
    121e:	98 e0       	ldi	r25, 0x08	; 8
    1220:	a0 e0       	ldi	r26, 0x00	; 0
    1222:	b0 e0       	ldi	r27, 0x00	; 0
    1224:	80 93 8d 28 	sts	0x288D, r24	; 0x80288d <current_PWM>
    1228:	90 93 8e 28 	sts	0x288E, r25	; 0x80288e <current_PWM+0x1>
    122c:	a0 93 8f 28 	sts	0x288F, r26	; 0x80288f <current_PWM+0x2>
    1230:	b0 93 90 28 	sts	0x2890, r27	; 0x802890 <current_PWM+0x3>
D:\Projects\190409-DIY_SOLDERING_IRON\Soldering-Station/Soldering-Station.ino:645
      //We also check if we run into any current limit

      //Currentlimit not supported here....

      //After the current limit is applied we we will set the new value
      HeatPwr_Percent= ((current_PWM*100) / MAX_PWM_LIMIT );
    1234:	c0 90 8d 28 	lds	r12, 0x288D	; 0x80288d <current_PWM>
    1238:	d0 90 8e 28 	lds	r13, 0x288E	; 0x80288e <current_PWM+0x1>
    123c:	e0 90 8f 28 	lds	r14, 0x288F	; 0x80288f <current_PWM+0x2>
    1240:	f0 90 90 28 	lds	r15, 0x2890	; 0x802890 <current_PWM+0x3>
    1244:	a4 e6       	ldi	r26, 0x64	; 100
    1246:	b0 e0       	ldi	r27, 0x00	; 0
    1248:	a7 01       	movw	r20, r14
    124a:	96 01       	movw	r18, r12
    124c:	0e 94 7f 1b 	call	0x36fe	; 0x36fe <__muluhisi3>
    1250:	20 e0       	ldi	r18, 0x00	; 0
    1252:	38 e0       	ldi	r19, 0x08	; 8
    1254:	40 e0       	ldi	r20, 0x00	; 0
    1256:	50 e0       	ldi	r21, 0x00	; 0
    1258:	0e 94 44 1b 	call	0x3688	; 0x3688 <__divmodsi4>
    125c:	20 93 9b 28 	sts	0x289B, r18	; 0x80289b <HeatPwr_Percent>
D:\Projects\190409-DIY_SOLDERING_IRON\Soldering-Station/Soldering-Station.ino:646
      Station.SetPWM(current_PWM);
    1260:	b6 01       	movw	r22, r12
SetPWM():
C:\Users\mathiasc\AppData\Local\Temp\arduino_build_312787\sketch/HW_190409.cpp:258
void HW_190409::SetPWM( uint16_t PWM_Value){
 
    if(PWM_Value>=MAX_PWM_LIMIT){
      PWM_Value = MAX_PWM_LIMIT;
    }
    PWM.On(PWM_Value);
    1262:	21 e0       	ldi	r18, 0x01	; 1
    1264:	c2 16       	cp	r12, r18
    1266:	28 e0       	ldi	r18, 0x08	; 8
    1268:	d2 06       	cpc	r13, r18
    126a:	10 f0       	brcs	.+4      	; 0x1270 <pwm_Adjust()+0x130>
    126c:	60 e0       	ldi	r22, 0x00	; 0
    126e:	78 e0       	ldi	r23, 0x08	; 8
    1270:	8e e5       	ldi	r24, 0x5E	; 94
    1272:	99 e2       	ldi	r25, 0x29	; 41
    1274:	0e 94 1d 01 	call	0x23a	; 0x23a <PWM_190409::On(unsigned int)>
_Z10pwm_Adjustv():
D:\Projects\190409-DIY_SOLDERING_IRON\Soldering-Station/Soldering-Station.ino:647
      adjustPWM_Running=0;
    1278:	10 92 2a 28 	sts	0x282A, r1	; 0x80282a <adjustPWM_Running>
    127c:	7a cf       	rjmp	.-268    	; 0x1172 <pwm_Adjust()+0x32>
D:\Projects\190409-DIY_SOLDERING_IRON\Soldering-Station/Soldering-Station.ino:607
        temp_Diff = (int32_t)setpoint - (int32_t)temperature;
        if(temp_Diff < 3)
        {   
          current_PWM +=(int32_t)5;
        } else {
          current_PWM = (int32_t)temp_Diff  * (int32_t)setpoint/ (int32_t)6 ;
    127e:	20 91 20 28 	lds	r18, 0x2820	; 0x802820 <setpoint>
    1282:	30 91 21 28 	lds	r19, 0x2821	; 0x802821 <setpoint+0x1>
    1286:	0e 94 78 1b 	call	0x36f0	; 0x36f0 <__usmulhisi3>
    128a:	26 e0       	ldi	r18, 0x06	; 6
    128c:	30 e0       	ldi	r19, 0x00	; 0
    128e:	40 e0       	ldi	r20, 0x00	; 0
    1290:	50 e0       	ldi	r21, 0x00	; 0
    1292:	0e 94 44 1b 	call	0x3688	; 0x3688 <__divmodsi4>
    1296:	20 93 8d 28 	sts	0x288D, r18	; 0x80288d <current_PWM>
    129a:	30 93 8e 28 	sts	0x288E, r19	; 0x80288e <current_PWM+0x1>
    129e:	40 93 8f 28 	sts	0x288F, r20	; 0x80288f <current_PWM+0x2>
    12a2:	50 93 90 28 	sts	0x2890, r21	; 0x802890 <current_PWM+0x3>
    12a6:	ad cf       	rjmp	.-166    	; 0x1202 <pwm_Adjust()+0xc2>
D:\Projects\190409-DIY_SOLDERING_IRON\Soldering-Station/Soldering-Station.ino:613
        }
        if(current_PWM > MAX_PWM_LIMIT){   
           current_PWM = MAX_PWM_LIMIT;
        }
      } 
      else if(setpoint < temperature)
    12a8:	20 91 20 28 	lds	r18, 0x2820	; 0x802820 <setpoint>
    12ac:	30 91 21 28 	lds	r19, 0x2821	; 0x802821 <setpoint+0x1>
    12b0:	28 17       	cp	r18, r24
    12b2:	39 07       	cpc	r19, r25
    12b4:	08 f0       	brcs	.+2      	; 0x12b8 <pwm_Adjust()+0x178>
    12b6:	be cf       	rjmp	.-132    	; 0x1234 <pwm_Adjust()+0xf4>
D:\Projects\190409-DIY_SOLDERING_IRON\Soldering-Station/Soldering-Station.ino:615
      {
          temp_Diff = (int32_t)temperature - (int32_t)setpoint;
    12b8:	20 91 20 28 	lds	r18, 0x2820	; 0x802820 <setpoint>
    12bc:	30 91 21 28 	lds	r19, 0x2821	; 0x802821 <setpoint+0x1>
    12c0:	82 1b       	sub	r24, r18
    12c2:	93 0b       	sbc	r25, r19
D:\Projects\190409-DIY_SOLDERING_IRON\Soldering-Station/Soldering-Station.ino:616
          if(temp_Diff > 2)
    12c4:	03 97       	sbiw	r24, 0x03	; 3
    12c6:	dc f0       	brlt	.+54     	; 0x12fe <pwm_Adjust()+0x1be>
D:\Projects\190409-DIY_SOLDERING_IRON\Soldering-Station/Soldering-Station.ino:618
          {
            current_PWM = 0;
    12c8:	10 92 8d 28 	sts	0x288D, r1	; 0x80288d <current_PWM>
    12cc:	10 92 8e 28 	sts	0x288E, r1	; 0x80288e <current_PWM+0x1>
    12d0:	10 92 8f 28 	sts	0x288F, r1	; 0x80288f <current_PWM+0x2>
    12d4:	10 92 90 28 	sts	0x2890, r1	; 0x802890 <current_PWM+0x3>
D:\Projects\190409-DIY_SOLDERING_IRON\Soldering-Station/Soldering-Station.ino:633
              } else {
                current_PWM--;
              }
            }
          }
          if(current_PWM < 0) { 
    12d8:	80 91 8d 28 	lds	r24, 0x288D	; 0x80288d <current_PWM>
    12dc:	90 91 8e 28 	lds	r25, 0x288E	; 0x80288e <current_PWM+0x1>
    12e0:	a0 91 8f 28 	lds	r26, 0x288F	; 0x80288f <current_PWM+0x2>
    12e4:	b0 91 90 28 	lds	r27, 0x2890	; 0x802890 <current_PWM+0x3>
    12e8:	b7 ff       	sbrs	r27, 7
    12ea:	a4 cf       	rjmp	.-184    	; 0x1234 <pwm_Adjust()+0xf4>
D:\Projects\190409-DIY_SOLDERING_IRON\Soldering-Station/Soldering-Station.ino:634
             current_PWM = 0;
    12ec:	10 92 8d 28 	sts	0x288D, r1	; 0x80288d <current_PWM>
    12f0:	10 92 8e 28 	sts	0x288E, r1	; 0x80288e <current_PWM+0x1>
    12f4:	10 92 8f 28 	sts	0x288F, r1	; 0x80288f <current_PWM+0x2>
    12f8:	10 92 90 28 	sts	0x2890, r1	; 0x802890 <current_PWM+0x3>
    12fc:	9b cf       	rjmp	.-202    	; 0x1234 <pwm_Adjust()+0xf4>
D:\Projects\190409-DIY_SOLDERING_IRON\Soldering-Station/Soldering-Station.ino:620
          temp_Diff = (int32_t)temperature - (int32_t)setpoint;
          if(temp_Diff > 2)
          {
            current_PWM = 0;
          } else {
            if(current_PWM>0){
    12fe:	c0 90 8d 28 	lds	r12, 0x288D	; 0x80288d <current_PWM>
    1302:	d0 90 8e 28 	lds	r13, 0x288E	; 0x80288e <current_PWM+0x1>
    1306:	e0 90 8f 28 	lds	r14, 0x288F	; 0x80288f <current_PWM+0x2>
    130a:	f0 90 90 28 	lds	r15, 0x2890	; 0x802890 <current_PWM+0x3>
    130e:	1c 14       	cp	r1, r12
    1310:	1d 04       	cpc	r1, r13
    1312:	1e 04       	cpc	r1, r14
    1314:	1f 04       	cpc	r1, r15
    1316:	04 f7       	brge	.-64     	; 0x12d8 <pwm_Adjust()+0x198>
D:\Projects\190409-DIY_SOLDERING_IRON\Soldering-Station/Soldering-Station.ino:621
              if( ((int32_t)current_PWM/(int32_t)7) > 0){              
    1318:	87 e0       	ldi	r24, 0x07	; 7
    131a:	c8 16       	cp	r12, r24
    131c:	d1 04       	cpc	r13, r1
    131e:	e1 04       	cpc	r14, r1
    1320:	f1 04       	cpc	r15, r1
    1322:	b4 f1       	brlt	.+108    	; 0x1390 <pwm_Adjust()+0x250>
D:\Projects\190409-DIY_SOLDERING_IRON\Soldering-Station/Soldering-Station.ino:622
                current_PWM -= (int32_t)current_PWM/(int32_t)7;
    1324:	c7 01       	movw	r24, r14
    1326:	b6 01       	movw	r22, r12
    1328:	29 ef       	ldi	r18, 0xF9	; 249
    132a:	3f ef       	ldi	r19, 0xFF	; 255
    132c:	4f ef       	ldi	r20, 0xFF	; 255
    132e:	5f ef       	ldi	r21, 0xFF	; 255
    1330:	0e 94 44 1b 	call	0x3688	; 0x3688 <__divmodsi4>
    1334:	c2 0e       	add	r12, r18
    1336:	d3 1e       	adc	r13, r19
    1338:	e4 1e       	adc	r14, r20
    133a:	f5 1e       	adc	r15, r21
    133c:	c0 92 8d 28 	sts	0x288D, r12	; 0x80288d <current_PWM>
    1340:	d0 92 8e 28 	sts	0x288E, r13	; 0x80288e <current_PWM+0x1>
    1344:	e0 92 8f 28 	sts	0x288F, r14	; 0x80288f <current_PWM+0x2>
    1348:	f0 92 90 28 	sts	0x2890, r15	; 0x802890 <current_PWM+0x3>
D:\Projects\190409-DIY_SOLDERING_IRON\Soldering-Station/Soldering-Station.ino:623
                if( ((int32_t)current_PWM%(int32_t)7) > 3){
    134c:	c7 01       	movw	r24, r14
    134e:	b6 01       	movw	r22, r12
    1350:	27 e0       	ldi	r18, 0x07	; 7
    1352:	30 e0       	ldi	r19, 0x00	; 0
    1354:	40 e0       	ldi	r20, 0x00	; 0
    1356:	50 e0       	ldi	r21, 0x00	; 0
    1358:	0e 94 44 1b 	call	0x3688	; 0x3688 <__divmodsi4>
    135c:	64 30       	cpi	r22, 0x04	; 4
    135e:	71 05       	cpc	r23, r1
    1360:	81 05       	cpc	r24, r1
    1362:	91 05       	cpc	r25, r1
    1364:	0c f4       	brge	.+2      	; 0x1368 <pwm_Adjust()+0x228>
    1366:	b8 cf       	rjmp	.-144    	; 0x12d8 <pwm_Adjust()+0x198>
D:\Projects\190409-DIY_SOLDERING_IRON\Soldering-Station/Soldering-Station.ino:624
                  if(current_PWM>0){
    1368:	1c 14       	cp	r1, r12
    136a:	1d 04       	cpc	r1, r13
    136c:	1e 04       	cpc	r1, r14
    136e:	1f 04       	cpc	r1, r15
    1370:	0c f0       	brlt	.+2      	; 0x1374 <pwm_Adjust()+0x234>
    1372:	b2 cf       	rjmp	.-156    	; 0x12d8 <pwm_Adjust()+0x198>
D:\Projects\190409-DIY_SOLDERING_IRON\Soldering-Station/Soldering-Station.ino:625
                    current_PWM--;
    1374:	21 e0       	ldi	r18, 0x01	; 1
    1376:	c2 1a       	sub	r12, r18
    1378:	d1 08       	sbc	r13, r1
    137a:	e1 08       	sbc	r14, r1
    137c:	f1 08       	sbc	r15, r1
D:\Projects\190409-DIY_SOLDERING_IRON\Soldering-Station/Soldering-Station.ino:629
                  }
                }
              } else {
                current_PWM--;
    137e:	c0 92 8d 28 	sts	0x288D, r12	; 0x80288d <current_PWM>
    1382:	d0 92 8e 28 	sts	0x288E, r13	; 0x80288e <current_PWM+0x1>
    1386:	e0 92 8f 28 	sts	0x288F, r14	; 0x80288f <current_PWM+0x2>
    138a:	f0 92 90 28 	sts	0x2890, r15	; 0x802890 <current_PWM+0x3>
    138e:	a4 cf       	rjmp	.-184    	; 0x12d8 <pwm_Adjust()+0x198>
    1390:	81 e0       	ldi	r24, 0x01	; 1
    1392:	c8 1a       	sub	r12, r24
    1394:	d1 08       	sbc	r13, r1
    1396:	e1 08       	sbc	r14, r1
    1398:	f1 08       	sbc	r15, r1
    139a:	f1 cf       	rjmp	.-30     	; 0x137e <pwm_Adjust()+0x23e>

0000139c <PWM_Off()>:
_Z7PWM_Offv():
D:\Projects\190409-DIY_SOLDERING_IRON\Soldering-Station/Soldering-Station.ino:555
 Output:      None
 Discription: Sets the PWM to zero Output ( Off ) 
**********************************************************************************************************/
void PWM_Off()
{
  cli();
    139c:	f8 94       	cli
D:\Projects\190409-DIY_SOLDERING_IRON\Soldering-Station/Soldering-Station.ino:556
    adjustPWM_Running=1;
    139e:	81 e0       	ldi	r24, 0x01	; 1
    13a0:	80 93 2a 28 	sts	0x282A, r24	; 0x80282a <adjustPWM_Running>
D:\Projects\190409-DIY_SOLDERING_IRON\Soldering-Station/Soldering-Station.ino:557
    current_PWM=0;
    13a4:	10 92 8d 28 	sts	0x288D, r1	; 0x80288d <current_PWM>
    13a8:	10 92 8e 28 	sts	0x288E, r1	; 0x80288e <current_PWM+0x1>
    13ac:	10 92 8f 28 	sts	0x288F, r1	; 0x80288f <current_PWM+0x2>
    13b0:	10 92 90 28 	sts	0x2890, r1	; 0x802890 <current_PWM+0x3>
SetPWM():
C:\Users\mathiasc\AppData\Local\Temp\arduino_build_312787\sketch/HW_190409.cpp:258
    13b4:	70 e0       	ldi	r23, 0x00	; 0
    13b6:	60 e0       	ldi	r22, 0x00	; 0
    13b8:	8e e5       	ldi	r24, 0x5E	; 94
    13ba:	99 e2       	ldi	r25, 0x29	; 41
    13bc:	0e 94 1d 01 	call	0x23a	; 0x23a <PWM_190409::On(unsigned int)>
Off():
C:\Users\mathiasc\AppData\Local\Temp\arduino_build_312787\sketch/PWM_190409.cpp:38
    13c0:	10 92 38 0a 	sts	0x0A38, r1	; 0x800a38 <__TEXT_REGION_LENGTH__+0x7f4a38>
    13c4:	10 92 39 0a 	sts	0x0A39, r1	; 0x800a39 <__TEXT_REGION_LENGTH__+0x7f4a39>
_Z7PWM_Offv():
D:\Projects\190409-DIY_SOLDERING_IRON\Soldering-Station/Soldering-Station.ino:560
    Station.SetPWM(current_PWM);
    Station.PWM.Off();
    adjustPWM_Running=0;
    13c8:	10 92 2a 28 	sts	0x282A, r1	; 0x80282a <adjustPWM_Running>
D:\Projects\190409-DIY_SOLDERING_IRON\Soldering-Station/Soldering-Station.ino:561
  sei();
    13cc:	78 94       	sei
D:\Projects\190409-DIY_SOLDERING_IRON\Soldering-Station/Soldering-Station.ino:562
}  
    13ce:	08 95       	ret

000013d0 <command_if_get_setpoint()>:
_Z23command_if_get_setpointv():
D:\Projects\190409-DIY_SOLDERING_IRON\Soldering-Station/Soldering-Station.ino:399
 Description: returns the setpoint to a command inteface
 *************************************************************************************************************/   
uint16_t command_if_get_setpoint( void ){
     uint16_t value = 0;
     /* depending on the state we need to decide if we to read the setpoint or LastActiveTemp */
      switch( state ){
    13d0:	80 91 22 28 	lds	r24, 0x2822	; 0x802822 <state>
    13d4:	90 91 23 28 	lds	r25, 0x2823	; 0x802823 <state+0x1>
    13d8:	85 30       	cpi	r24, 0x05	; 5
    13da:	91 05       	cpc	r25, r1
    13dc:	11 f0       	breq	.+4      	; 0x13e2 <command_if_get_setpoint()+0x12>
    13de:	07 97       	sbiw	r24, 0x07	; 7
    13e0:	29 f4       	brne	.+10     	; 0x13ec <command_if_get_setpoint()+0x1c>
D:\Projects\190409-DIY_SOLDERING_IRON\Soldering-Station/Soldering-Station.ino:402
        case SLEEP:
        case POWERSAVE:{
            value = LastActiveTemp ;
    13e2:	80 91 8b 28 	lds	r24, 0x288B	; 0x80288b <LastActiveTemp>
    13e6:	90 91 8c 28 	lds	r25, 0x288C	; 0x80288c <LastActiveTemp+0x1>
    13ea:	08 95       	ret
D:\Projects\190409-DIY_SOLDERING_IRON\Soldering-Station/Soldering-Station.ino:406
        } break;

        default:{
          value = setpoint;
    13ec:	80 91 20 28 	lds	r24, 0x2820	; 0x802820 <setpoint>
    13f0:	90 91 21 28 	lds	r25, 0x2821	; 0x802821 <setpoint+0x1>
D:\Projects\190409-DIY_SOLDERING_IRON\Soldering-Station/Soldering-Station.ino:410
        } break;
      }
      return value;
}
    13f4:	08 95       	ret

000013f6 <UartClass::begin(unsigned long)>:
_ZN9UartClass5beginEm():
C:\Users\mathiasc\AppData\Local\Arduino15\packages\MegaCoreX\hardware\megaavr\1.0.4\cores\coreX-corefiles/UART.h:160

  public:
    inline UartClass(volatile USART_t *hwserial_module, uint8_t hwserial_rx_pin, uint8_t hwserial_tx_pin, uint8_t hwserial_rx_pin_swap, uint8_t hwserial_tx_pin_swap, uint8_t dre_vect_num, uint8_t uart_mux, uint8_t uart_mux_swap);
    bool pins(uint8_t tx, uint8_t rx);
    bool swap(uint8_t state = 1);
    void begin(unsigned long baud) { begin(baud, SERIAL_8N1); }
    13f6:	dc 01       	movw	r26, r24
    13f8:	ed 91       	ld	r30, X+
    13fa:	fc 91       	ld	r31, X
    13fc:	04 88       	ldd	r0, Z+20	; 0x14
    13fe:	f5 89       	ldd	r31, Z+21	; 0x15
    1400:	e0 2d       	mov	r30, r0
    1402:	23 e0       	ldi	r18, 0x03	; 3
    1404:	30 e0       	ldi	r19, 0x00	; 0
    1406:	09 94       	ijmp

00001408 <PWM_190409::ReadPWMValue()>:
_ZN10PWM_19040912ReadPWMValueEv():
C:\Users\mathiasc\AppData\Local\Temp\arduino_build_312787\sketch/PWM_190409.cpp:53
 Discription: Returns the RAW value ot the PWM
**********************************************************************************************************/  
uint16_t PWM_190409::ReadPWMValue( void ) {
    
    //Return current PWM value
    return TCA0.SINGLE.CMP0BUF;
    1408:	80 91 38 0a 	lds	r24, 0x0A38	; 0x800a38 <__TEXT_REGION_LENGTH__+0x7f4a38>
    140c:	90 91 39 0a 	lds	r25, 0x0A39	; 0x800a39 <__TEXT_REGION_LENGTH__+0x7f4a39>
C:\Users\mathiasc\AppData\Local\Temp\arduino_build_312787\sketch/PWM_190409.cpp:55
    
}
    1410:	08 95       	ret

00001412 <EERef::operator*() const>:
_ZNK5EERefdeEv():
C:\Users\mathiasc\AppData\Local\Arduino15\packages\MegaCoreX\hardware\megaavr\1.0.4\libraries\EEPROM\src/EEPROM.h:53
{
  EERef(const int index)
      : index(index) {}

  //Access/read members.
  uint8_t operator*() const { return nvm_read_byte(index); }
    1412:	fc 01       	movw	r30, r24
    1414:	80 81       	ld	r24, Z
    1416:	91 81       	ldd	r25, Z+1	; 0x01
    1418:	fc 01       	movw	r30, r24
    141a:	ff 27       	eor	r31, r31
    141c:	90 fd       	sbrc	r25, 0
    141e:	06 c0       	rjmp	.+12     	; 0x142c <EERef::operator*() const+0x1a>
    1420:	80 e0       	ldi	r24, 0x00	; 0
    1422:	94 e1       	ldi	r25, 0x14	; 20
    1424:	e8 2b       	or	r30, r24
    1426:	f9 2b       	or	r31, r25
    1428:	80 81       	ld	r24, Z
    142a:	08 95       	ret
    142c:	80 e0       	ldi	r24, 0x00	; 0
    142e:	93 e1       	ldi	r25, 0x13	; 19
    1430:	f9 cf       	rjmp	.-14     	; 0x1424 <EERef::operator*() const+0x12>

00001432 <EERef::update(unsigned char)>:
_ZN5EERef6updateEh():
C:\Users\mathiasc\AppData\Local\Arduino15\packages\MegaCoreX\hardware\megaavr\1.0.4\libraries\EEPROM\src/EEPROM.h:70
  EERef &operator&=(uint8_t in) { return *this = **this & in; }
  EERef &operator|=(uint8_t in) { return *this = **this | in; }
  EERef &operator<<=(uint8_t in) { return *this = **this << in; }
  EERef &operator>>=(uint8_t in) { return *this = **this >> in; }

  EERef &update(uint8_t in) { return in != *this ? *this = in : *this; }
    1432:	1f 93       	push	r17
    1434:	cf 93       	push	r28
    1436:	df 93       	push	r29
    1438:	ec 01       	movw	r28, r24
    143a:	16 2f       	mov	r17, r22
_ZNK5EERefcvhEv():
C:\Users\mathiasc\AppData\Local\Arduino15\packages\MegaCoreX\hardware\megaavr\1.0.4\libraries\EEPROM\src/EEPROM.h:54
  EERef(const int index)
      : index(index) {}

  //Access/read members.
  uint8_t operator*() const { return nvm_read_byte(index); }
  operator uint8_t() const { return **this; }
    143c:	0e 94 09 0a 	call	0x1412	; 0x1412 <EERef::operator*() const>
_ZN5EERef6updateEh():
C:\Users\mathiasc\AppData\Local\Arduino15\packages\MegaCoreX\hardware\megaavr\1.0.4\libraries\EEPROM\src/EEPROM.h:70
  EERef &operator&=(uint8_t in) { return *this = **this & in; }
  EERef &operator|=(uint8_t in) { return *this = **this | in; }
  EERef &operator<<=(uint8_t in) { return *this = **this << in; }
  EERef &operator>>=(uint8_t in) { return *this = **this >> in; }

  EERef &update(uint8_t in) { return in != *this ? *this = in : *this; }
    1440:	81 17       	cp	r24, r17
    1442:	b9 f0       	breq	.+46     	; 0x1472 <EERef::update(unsigned char)+0x40>
_ZN5EERefaSEh():
C:\Users\mathiasc\AppData\Local\Arduino15\packages\MegaCoreX\hardware\megaavr\1.0.4\libraries\EEPROM\src/EEPROM.h:58
  uint8_t operator*() const { return nvm_read_byte(index); }
  operator uint8_t() const { return **this; }

  //Assignment/write members.
  EERef &operator=(const EERef &ref) { return *this = *ref; }
  EERef &operator=(uint8_t in) { return nvm_write_byte(index, in), *this; }
    1444:	88 81       	ld	r24, Y
    1446:	99 81       	ldd	r25, Y+1	; 0x01
nvm_write_byte():
C:\Users\mathiasc\AppData\Local\Arduino15\packages\MegaCoreX\hardware\megaavr\1.0.4\libraries\EEPROM\src/EEPROM.h:38

#define nvm_read_byte(idx) *(uint8_t *)((idx & 0xFF) | ((idx & 0x100) ? USER_SIGNATURES_START : EEPROM_START))

void nvm_write_byte(uint16_t idx, uint8_t dat)
{
  *(uint8_t *)((idx & 0xFF) | ((idx & 0x100) ? USER_SIGNATURES_START : EEPROM_START)) = dat;
    1448:	fc 01       	movw	r30, r24
    144a:	ff 27       	eor	r31, r31
    144c:	90 fd       	sbrc	r25, 0
    144e:	16 c0       	rjmp	.+44     	; 0x147c <EERef::update(unsigned char)+0x4a>
_ZN5EERef6updateEh():
    1450:	80 e0       	ldi	r24, 0x00	; 0
    1452:	94 e1       	ldi	r25, 0x14	; 20
nvm_write_byte():
    1454:	e8 2b       	or	r30, r24
    1456:	f9 2b       	or	r31, r25
    1458:	10 83       	st	Z, r17
C:\Users\mathiasc\AppData\Local\Arduino15\packages\MegaCoreX\hardware\megaavr\1.0.4\libraries\EEPROM\src/EEPROM.h:39
  uint8_t oldSREG = SREG;
    145a:	8f b7       	in	r24, 0x3f	; 63
C:\Users\mathiasc\AppData\Local\Arduino15\packages\MegaCoreX\hardware\megaavr\1.0.4\libraries\EEPROM\src/EEPROM.h:40
  cli();
    145c:	f8 94       	cli
C:\Users\mathiasc\AppData\Local\Arduino15\packages\MegaCoreX\hardware\megaavr\1.0.4\libraries\EEPROM\src/EEPROM.h:41
  _PROTECTED_WRITE_SPM(NVMCTRL.CTRLA, NVMCTRL_CMD_PAGEERASEWRITE_gc);
    145e:	9d e9       	ldi	r25, 0x9D	; 157
    1460:	23 e0       	ldi	r18, 0x03	; 3
    1462:	94 bf       	out	0x34, r25	; 52
    1464:	20 93 00 10 	sts	0x1000, r18	; 0x801000 <__TEXT_REGION_LENGTH__+0x7f5000>
C:\Users\mathiasc\AppData\Local\Arduino15\packages\MegaCoreX\hardware\megaavr\1.0.4\libraries\EEPROM\src/EEPROM.h:42
  SREG = oldSREG;
    1468:	8f bf       	out	0x3f, r24	; 63
C:\Users\mathiasc\AppData\Local\Arduino15\packages\MegaCoreX\hardware\megaavr\1.0.4\libraries\EEPROM\src/EEPROM.h:43
  while (NVMCTRL.STATUS & NVMCTRL_EEBUSY_bm)
    146a:	80 91 02 10 	lds	r24, 0x1002	; 0x801002 <__TEXT_REGION_LENGTH__+0x7f5002>
    146e:	81 fd       	sbrc	r24, 1
    1470:	fc cf       	rjmp	.-8      	; 0x146a <EERef::update(unsigned char)+0x38>
_ZN5EERef6updateEh():
C:\Users\mathiasc\AppData\Local\Arduino15\packages\MegaCoreX\hardware\megaavr\1.0.4\libraries\EEPROM\src/EEPROM.h:70
  EERef &operator&=(uint8_t in) { return *this = **this & in; }
  EERef &operator|=(uint8_t in) { return *this = **this | in; }
  EERef &operator<<=(uint8_t in) { return *this = **this << in; }
  EERef &operator>>=(uint8_t in) { return *this = **this >> in; }

  EERef &update(uint8_t in) { return in != *this ? *this = in : *this; }
    1472:	ce 01       	movw	r24, r28
    1474:	df 91       	pop	r29
    1476:	cf 91       	pop	r28
    1478:	1f 91       	pop	r17
    147a:	08 95       	ret
C:\Users\mathiasc\AppData\Local\Arduino15\packages\MegaCoreX\hardware\megaavr\1.0.4\libraries\EEPROM\src/EEPROM.h:38

#define nvm_read_byte(idx) *(uint8_t *)((idx & 0xFF) | ((idx & 0x100) ? USER_SIGNATURES_START : EEPROM_START))

void nvm_write_byte(uint16_t idx, uint8_t dat)
{
  *(uint8_t *)((idx & 0xFF) | ((idx & 0x100) ? USER_SIGNATURES_START : EEPROM_START)) = dat;
    147c:	80 e0       	ldi	r24, 0x00	; 0
    147e:	93 e1       	ldi	r25, 0x13	; 19
    1480:	e9 cf       	rjmp	.-46     	; 0x1454 <EERef::update(unsigned char)+0x22>

00001482 <HW_190409::read_StoreIronConfig() [clone .constprop.61]>:
_ZN9HW_19040920read_StoreIronConfigEv.constprop.61():
C:\Users\mathiasc\AppData\Local\Temp\arduino_build_312787\sketch/HW_190409.cpp:353
 Input:       None
 Output:      uint16_t 
 Description: Read previous saved temperature from EEPROM,
              If no previous value saved then set temperature to 50 degrees
 *************************************************************************************************************/    
SolderingIronType_t HW_190409::read_StoreIronConfig( void )
    1482:	cf 92       	push	r12
    1484:	df 92       	push	r13
    1486:	ef 92       	push	r14
    1488:	ff 92       	push	r15
    148a:	1f 93       	push	r17
    148c:	cf 93       	push	r28
    148e:	df 93       	push	r29
    1490:	00 d0       	rcall	.+0      	; 0x1492 <HW_190409::read_StoreIronConfig() [clone .constprop.61]+0x10>
    1492:	cd b7       	in	r28, 0x3d	; 61
    1494:	de b7       	in	r29, 0x3e	; 62
_ZN5EERefC2Ei():
C:\Users\mathiasc\AppData\Local\Arduino15\packages\MegaCoreX\hardware\megaavr\1.0.4\libraries\EEPROM\src/EEPROM.h:50
}

struct EERef
{
  EERef(const int index)
      : index(index) {}
    1496:	87 e0       	ldi	r24, 0x07	; 7
    1498:	c8 2e       	mov	r12, r24
    149a:	d1 2c       	mov	r13, r1
    149c:	c9 82       	std	Y+1, r12	; 0x01
    149e:	da 82       	std	Y+2, r13	; 0x02
_ZNK5EERefcvhEv():
C:\Users\mathiasc\AppData\Local\Arduino15\packages\MegaCoreX\hardware\megaavr\1.0.4\libraries\EEPROM\src/EEPROM.h:54

  //Access/read members.
  uint8_t operator*() const { return nvm_read_byte(index); }
  operator uint8_t() const { return **this; }
    14a0:	ce 01       	movw	r24, r28
    14a2:	01 96       	adiw	r24, 0x01	; 1
    14a4:	0e 94 09 0a 	call	0x1412	; 0x1412 <EERef::operator*() const>
    14a8:	18 2f       	mov	r17, r24
_ZN5EERefC2Ei():
C:\Users\mathiasc\AppData\Local\Arduino15\packages\MegaCoreX\hardware\megaavr\1.0.4\libraries\EEPROM\src/EEPROM.h:50
}

struct EERef
{
  EERef(const int index)
      : index(index) {}
    14aa:	98 e0       	ldi	r25, 0x08	; 8
    14ac:	e9 2e       	mov	r14, r25
    14ae:	f1 2c       	mov	r15, r1
    14b0:	e9 82       	std	Y+1, r14	; 0x01
    14b2:	fa 82       	std	Y+2, r15	; 0x02
_ZNK5EERefcvhEv():
C:\Users\mathiasc\AppData\Local\Arduino15\packages\MegaCoreX\hardware\megaavr\1.0.4\libraries\EEPROM\src/EEPROM.h:54

  //Access/read members.
  uint8_t operator*() const { return nvm_read_byte(index); }
  operator uint8_t() const { return **this; }
    14b4:	ce 01       	movw	r24, r28
    14b6:	01 96       	adiw	r24, 0x01	; 1
    14b8:	0e 94 09 0a 	call	0x1412	; 0x1412 <EERef::operator*() const>
_ZN9HW_19040920read_StoreIronConfigEv.constprop.61():
C:\Users\mathiasc\AppData\Local\Temp\arduino_build_312787\sketch/HW_190409.cpp:360
  uint8_t mode=0;
  uint8_t moden=0;

   mode = EEPROM.read(7);
   moden= EEPROM.read(8);
   moden = ~moden;
    14bc:	80 95       	com	r24
C:\Users\mathiasc\AppData\Local\Temp\arduino_build_312787\sketch/HW_190409.cpp:362

   if( mode != moden ){
    14be:	81 17       	cp	r24, r17
    14c0:	79 f0       	breq	.+30     	; 0x14e0 <HW_190409::read_StoreIronConfig() [clone .constprop.61]+0x5e>
_ZN5EERefC2Ei():
C:\Users\mathiasc\AppData\Local\Arduino15\packages\MegaCoreX\hardware\megaavr\1.0.4\libraries\EEPROM\src/EEPROM.h:50
}

struct EERef
{
  EERef(const int index)
      : index(index) {}
    14c2:	c9 82       	std	Y+1, r12	; 0x01
    14c4:	da 82       	std	Y+2, r13	; 0x02
_ZN11EEPROMClass6updateEih.isra.1():
C:\Users\mathiasc\AppData\Local\Arduino15\packages\MegaCoreX\hardware\megaavr\1.0.4\libraries\EEPROM\src/EEPROM.h:133
{
  //Basic user access methods.
  EERef operator[](const int idx) { return idx; }
  uint8_t read(int idx) { return EERef(idx); }
  void write(int idx, uint8_t val) { (EERef(idx)) = val; }
  void update(int idx, uint8_t val) { EERef(idx).update(val); }
    14c6:	63 e0       	ldi	r22, 0x03	; 3
    14c8:	ce 01       	movw	r24, r28
    14ca:	01 96       	adiw	r24, 0x01	; 1
    14cc:	0e 94 19 0a 	call	0x1432	; 0x1432 <EERef::update(unsigned char)>
_ZN5EERefC2Ei():
C:\Users\mathiasc\AppData\Local\Arduino15\packages\MegaCoreX\hardware\megaavr\1.0.4\libraries\EEPROM\src/EEPROM.h:50
}

struct EERef
{
  EERef(const int index)
      : index(index) {}
    14d0:	e9 82       	std	Y+1, r14	; 0x01
    14d2:	fa 82       	std	Y+2, r15	; 0x02
_ZN11EEPROMClass6updateEih.isra.1():
C:\Users\mathiasc\AppData\Local\Arduino15\packages\MegaCoreX\hardware\megaavr\1.0.4\libraries\EEPROM\src/EEPROM.h:133
{
  //Basic user access methods.
  EERef operator[](const int idx) { return idx; }
  uint8_t read(int idx) { return EERef(idx); }
  void write(int idx, uint8_t val) { (EERef(idx)) = val; }
  void update(int idx, uint8_t val) { EERef(idx).update(val); }
    14d4:	6c ef       	ldi	r22, 0xFC	; 252
    14d6:	ce 01       	movw	r24, r28
    14d8:	01 96       	adiw	r24, 0x01	; 1
    14da:	0e 94 19 0a 	call	0x1432	; 0x1432 <EERef::update(unsigned char)>
_ZN9HW_19040920read_StoreIronConfigEv.constprop.61():
C:\Users\mathiasc\AppData\Local\Temp\arduino_build_312787\sketch/HW_190409.cpp:363
    mode=IRON_WELLER_RT;
    14de:	13 e0       	ldi	r17, 0x03	; 3
C:\Users\mathiasc\AppData\Local\Temp\arduino_build_312787\sketch/HW_190409.cpp:368
    write_StoreIronConfig(IRON_WELLER_RT);
   }
   return (SolderingIronType_t)(mode);
   
}
    14e0:	81 2f       	mov	r24, r17
    14e2:	90 e0       	ldi	r25, 0x00	; 0
    14e4:	0f 90       	pop	r0
    14e6:	0f 90       	pop	r0
    14e8:	df 91       	pop	r29
    14ea:	cf 91       	pop	r28
    14ec:	1f 91       	pop	r17
    14ee:	ff 90       	pop	r15
    14f0:	ef 90       	pop	r14
    14f2:	df 90       	pop	r13
    14f4:	cf 90       	pop	r12
    14f6:	08 95       	ret

000014f8 <HW_190409::SetSolderingIron(SolderingIronType_t) [clone .constprop.62]>:
_ZN9HW_19040916SetSolderingIronE19SolderingIronType_t.constprop.62():
C:\Users\mathiasc\AppData\Local\Temp\arduino_build_312787\sketch/HW_190409.cpp:283
 Function:    void SetSolderingIron()    
 Input:       SolderingIronType_t
 Output:      None
 Discription: Sets the Iron and configures VON accordingly
**********************************************************************************************************/
void HW_190409::SetSolderingIron(SolderingIronType_t Iron ){
    14f8:	0f 93       	push	r16
    14fa:	1f 93       	push	r17
    14fc:	cf 93       	push	r28
    14fe:	df 93       	push	r29
    1500:	00 d0       	rcall	.+0      	; 0x1502 <HW_190409::SetSolderingIron(SolderingIronType_t) [clone .constprop.62]+0xa>
    1502:	cd b7       	in	r28, 0x3d	; 61
    1504:	de b7       	in	r29, 0x3e	; 62
    1506:	8c 01       	movw	r16, r24
C:\Users\mathiasc\AppData\Local\Temp\arduino_build_312787\sketch/HW_190409.cpp:285

    switch( Iron ){
    1508:	81 30       	cpi	r24, 0x01	; 1
    150a:	91 05       	cpc	r25, r1
    150c:	11 f0       	breq	.+4      	; 0x1512 <HW_190409::SetSolderingIron(SolderingIronType_t) [clone .constprop.62]+0x1a>
    150e:	02 97       	sbiw	r24, 0x02	; 2
    1510:	11 f5       	brne	.+68     	; 0x1556 <HW_190409::SetSolderingIron(SolderingIronType_t) [clone .constprop.62]+0x5e>
SetThermoType():
C:\Users\mathiasc\AppData\Local\Temp\arduino_build_312787\sketch/TEMP_190409.cpp:11
    analogReference(VDD); 
};


void TEMP_190409::SetThermoType( ThermoeElementType_t tp){
   ElementType = tp;
    1512:	00 93 62 29 	sts	0x2962, r16	; 0x802962 <Station+0x8>
    1516:	10 93 63 29 	sts	0x2963, r17	; 0x802963 <Station+0x9>
digitalWrite():
    151a:	61 e0       	ldi	r22, 0x01	; 1
    151c:	8e e1       	ldi	r24, 0x1E	; 30
    151e:	0e 94 41 03 	call	0x682	; 0x682 <digitalWrite.part.2>
_ZN5EERefC2Ei():
C:\Users\mathiasc\AppData\Local\Arduino15\packages\MegaCoreX\hardware\megaavr\1.0.4\libraries\EEPROM\src/EEPROM.h:50
}

struct EERef
{
  EERef(const int index)
      : index(index) {}
    1522:	87 e0       	ldi	r24, 0x07	; 7
    1524:	90 e0       	ldi	r25, 0x00	; 0
    1526:	89 83       	std	Y+1, r24	; 0x01
    1528:	9a 83       	std	Y+2, r25	; 0x02
_ZN11EEPROMClass6updateEih.isra.1():
C:\Users\mathiasc\AppData\Local\Arduino15\packages\MegaCoreX\hardware\megaavr\1.0.4\libraries\EEPROM\src/EEPROM.h:133
{
  //Basic user access methods.
  EERef operator[](const int idx) { return idx; }
  uint8_t read(int idx) { return EERef(idx); }
  void write(int idx, uint8_t val) { (EERef(idx)) = val; }
  void update(int idx, uint8_t val) { EERef(idx).update(val); }
    152a:	60 2f       	mov	r22, r16
    152c:	ce 01       	movw	r24, r28
    152e:	01 96       	adiw	r24, 0x01	; 1
    1530:	0e 94 19 0a 	call	0x1432	; 0x1432 <EERef::update(unsigned char)>
_ZN5EERefC2Ei():
C:\Users\mathiasc\AppData\Local\Arduino15\packages\MegaCoreX\hardware\megaavr\1.0.4\libraries\EEPROM\src/EEPROM.h:50
}

struct EERef
{
  EERef(const int index)
      : index(index) {}
    1534:	88 e0       	ldi	r24, 0x08	; 8
    1536:	90 e0       	ldi	r25, 0x00	; 0
    1538:	89 83       	std	Y+1, r24	; 0x01
    153a:	9a 83       	std	Y+2, r25	; 0x02
write_StoreIronConfig():
C:\Users\mathiasc\AppData\Local\Temp\arduino_build_312787\sketch/HW_190409.cpp:340
 *************************************************************************************************************/    
void HW_190409::write_StoreIronConfig(SolderingIronType_t IronType)
{
            uint8_t mode = (uint8_t)(IronType);
            EEPROM.update(7, ( mode ) );
            EEPROM.update(8, (~mode) );
    153c:	60 2f       	mov	r22, r16
    153e:	60 95       	com	r22
_ZN11EEPROMClass6updateEih.isra.1():
C:\Users\mathiasc\AppData\Local\Arduino15\packages\MegaCoreX\hardware\megaavr\1.0.4\libraries\EEPROM\src/EEPROM.h:133
{
  //Basic user access methods.
  EERef operator[](const int idx) { return idx; }
  uint8_t read(int idx) { return EERef(idx); }
  void write(int idx, uint8_t val) { (EERef(idx)) = val; }
  void update(int idx, uint8_t val) { EERef(idx).update(val); }
    1540:	ce 01       	movw	r24, r28
    1542:	01 96       	adiw	r24, 0x01	; 1
    1544:	0e 94 19 0a 	call	0x1432	; 0x1432 <EERef::update(unsigned char)>
_ZN9HW_19040916SetSolderingIronE19SolderingIronType_t.constprop.62():
C:\Users\mathiasc\AppData\Local\Temp\arduino_build_312787\sketch/HW_190409.cpp:311
        Temp.SetThermoType(Type_K);
        Vin.SetConfiguredVIN(VIN_12V);
      }break;
    }
    write_StoreIronConfig(Iron);
}
    1548:	0f 90       	pop	r0
    154a:	0f 90       	pop	r0
    154c:	df 91       	pop	r29
    154e:	cf 91       	pop	r28
    1550:	1f 91       	pop	r17
    1552:	0f 91       	pop	r16
    1554:	08 95       	ret
SetThermoType():
C:\Users\mathiasc\AppData\Local\Temp\arduino_build_312787\sketch/TEMP_190409.cpp:11
    1556:	82 e0       	ldi	r24, 0x02	; 2
    1558:	90 e0       	ldi	r25, 0x00	; 0
    155a:	80 93 62 29 	sts	0x2962, r24	; 0x802962 <Station+0x8>
    155e:	90 93 63 29 	sts	0x2963, r25	; 0x802963 <Station+0x9>
digitalWrite():
    1562:	60 e0       	ldi	r22, 0x00	; 0
    1564:	db cf       	rjmp	.-74     	; 0x151c <HW_190409::SetSolderingIron(SolderingIronType_t) [clone .constprop.62]+0x24>

00001566 <ProcessRotaryEncoderInput(RotaryEncoderEvent_t)>:
_Z25ProcessRotaryEncoderInput20RotaryEncoderEvent_t():
D:\Projects\190409-DIY_SOLDERING_IRON\Soldering-Station/Soldering-Station.ino:813


void ProcessRotaryEncoderInput( RotaryEncoderEvent_t event ){
//We got an event from the rotary encoder and may have multiple
//things that like to get informed about it....
if(0==RotaryEncoderLocked) {
    1566:	20 91 a0 28 	lds	r18, 0x28A0	; 0x8028a0 <RotaryEncoderLocked>
    156a:	21 11       	cpse	r18, r1
    156c:	80 c0       	rjmp	.+256    	; 0x166e <ProcessRotaryEncoderInput(RotaryEncoderEvent_t)+0x108>
D:\Projects\190409-DIY_SOLDERING_IRON\Soldering-Station/Soldering-Station.ino:814
    switch(event){
    156e:	84 30       	cpi	r24, 0x04	; 4
    1570:	91 05       	cpc	r25, r1
    1572:	09 f4       	brne	.+2      	; 0x1576 <ProcessRotaryEncoderInput(RotaryEncoderEvent_t)+0x10>
    1574:	45 c0       	rjmp	.+138    	; 0x1600 <ProcessRotaryEncoderInput(RotaryEncoderEvent_t)+0x9a>
    1576:	98 f4       	brcc	.+38     	; 0x159e <ProcessRotaryEncoderInput(RotaryEncoderEvent_t)+0x38>
    1578:	82 30       	cpi	r24, 0x02	; 2
    157a:	91 05       	cpc	r25, r1
    157c:	29 f1       	breq	.+74     	; 0x15c8 <ProcessRotaryEncoderInput(RotaryEncoderEvent_t)+0x62>
    157e:	03 97       	sbiw	r24, 0x03	; 3
    1580:	99 f1       	breq	.+102    	; 0x15e8 <ProcessRotaryEncoderInput(RotaryEncoderEvent_t)+0x82>
D:\Projects\190409-DIY_SOLDERING_IRON\Soldering-Station/Soldering-Station.ino:865

      }break;

    }
    /* sainity check */
      if(setpoint<MIN_TEMP){
    1582:	80 91 20 28 	lds	r24, 0x2820	; 0x802820 <setpoint>
    1586:	90 91 21 28 	lds	r25, 0x2821	; 0x802821 <setpoint+0x1>
    158a:	c2 97       	sbiw	r24, 0x32	; 50
    158c:	08 f0       	brcs	.+2      	; 0x1590 <ProcessRotaryEncoderInput(RotaryEncoderEvent_t)+0x2a>
    158e:	65 c0       	rjmp	.+202    	; 0x165a <ProcessRotaryEncoderInput(RotaryEncoderEvent_t)+0xf4>
D:\Projects\190409-DIY_SOLDERING_IRON\Soldering-Station/Soldering-Station.ino:866
            setpoint=MIN_TEMP;
    1590:	82 e3       	ldi	r24, 0x32	; 50
    1592:	90 e0       	ldi	r25, 0x00	; 0
D:\Projects\190409-DIY_SOLDERING_IRON\Soldering-Station/Soldering-Station.ino:868
      } else if( setpoint>MAX_TEMP){
            setpoint=MAX_TEMP;
    1594:	80 93 20 28 	sts	0x2820, r24	; 0x802820 <setpoint>
    1598:	90 93 21 28 	sts	0x2821, r25	; 0x802821 <setpoint+0x1>
    159c:	08 95       	ret
D:\Projects\190409-DIY_SOLDERING_IRON\Soldering-Station/Soldering-Station.ino:814

void ProcessRotaryEncoderInput( RotaryEncoderEvent_t event ){
//We got an event from the rotary encoder and may have multiple
//things that like to get informed about it....
if(0==RotaryEncoderLocked) {
    switch(event){
    159e:	86 30       	cpi	r24, 0x06	; 6
    15a0:	91 05       	cpc	r25, r1
    15a2:	09 f4       	brne	.+2      	; 0x15a6 <ProcessRotaryEncoderInput(RotaryEncoderEvent_t)+0x40>
    15a4:	4a c0       	rjmp	.+148    	; 0x163a <ProcessRotaryEncoderInput(RotaryEncoderEvent_t)+0xd4>
    15a6:	d8 f1       	brcs	.+118    	; 0x161e <ProcessRotaryEncoderInput(RotaryEncoderEvent_t)+0xb8>
    15a8:	07 97       	sbiw	r24, 0x07	; 7
    15aa:	59 f7       	brne	.-42     	; 0x1582 <ProcessRotaryEncoderInput(RotaryEncoderEvent_t)+0x1c>
D:\Projects\190409-DIY_SOLDERING_IRON\Soldering-Station/Soldering-Station.ino:852
            setpoint=MAX_TEMP;
          }
      } break;

      case RE_MOVE_RIGHT_FAST:{
          if(setpoint<(MAX_TEMP-5)){
    15ac:	80 91 20 28 	lds	r24, 0x2820	; 0x802820 <setpoint>
    15b0:	90 91 21 28 	lds	r25, 0x2821	; 0x802821 <setpoint+0x1>
    15b4:	8d 3b       	cpi	r24, 0xBD	; 189
    15b6:	91 40       	sbci	r25, 0x01	; 1
    15b8:	08 f0       	brcs	.+2      	; 0x15bc <ProcessRotaryEncoderInput(RotaryEncoderEvent_t)+0x56>
    15ba:	4c c0       	rjmp	.+152    	; 0x1654 <ProcessRotaryEncoderInput(RotaryEncoderEvent_t)+0xee>
D:\Projects\190409-DIY_SOLDERING_IRON\Soldering-Station/Soldering-Station.ino:853
            setpoint+=5;    
    15bc:	80 91 20 28 	lds	r24, 0x2820	; 0x802820 <setpoint>
    15c0:	90 91 21 28 	lds	r25, 0x2821	; 0x802821 <setpoint+0x1>
    15c4:	05 96       	adiw	r24, 0x05	; 5
    15c6:	0b c0       	rjmp	.+22     	; 0x15de <ProcessRotaryEncoderInput(RotaryEncoderEvent_t)+0x78>
D:\Projects\190409-DIY_SOLDERING_IRON\Soldering-Station/Soldering-Station.ino:816
//We got an event from the rotary encoder and may have multiple
//things that like to get informed about it....
if(0==RotaryEncoderLocked) {
    switch(event){
      case RE_MOVE_LEFT_SLOW:{
        if(setpoint> MIN_TEMP){
    15c8:	80 91 20 28 	lds	r24, 0x2820	; 0x802820 <setpoint>
    15cc:	90 91 21 28 	lds	r25, 0x2821	; 0x802821 <setpoint+0x1>
    15d0:	c3 97       	sbiw	r24, 0x33	; 51
    15d2:	b8 f2       	brcs	.-82     	; 0x1582 <ProcessRotaryEncoderInput(RotaryEncoderEvent_t)+0x1c>
D:\Projects\190409-DIY_SOLDERING_IRON\Soldering-Station/Soldering-Station.ino:817
            setpoint--;    
    15d4:	80 91 20 28 	lds	r24, 0x2820	; 0x802820 <setpoint>
    15d8:	90 91 21 28 	lds	r25, 0x2821	; 0x802821 <setpoint+0x1>
    15dc:	01 97       	sbiw	r24, 0x01	; 1
D:\Projects\190409-DIY_SOLDERING_IRON\Soldering-Station/Soldering-Station.ino:855

      case RE_MOVE_RIGHT_FAST:{
          if(setpoint<(MAX_TEMP-5)){
            setpoint+=5;    
          } else {
            setpoint=MAX_TEMP;
    15de:	80 93 20 28 	sts	0x2820, r24	; 0x802820 <setpoint>
    15e2:	90 93 21 28 	sts	0x2821, r25	; 0x802821 <setpoint+0x1>
    15e6:	cd cf       	rjmp	.-102    	; 0x1582 <ProcessRotaryEncoderInput(RotaryEncoderEvent_t)+0x1c>
D:\Projects\190409-DIY_SOLDERING_IRON\Soldering-Station/Soldering-Station.ino:822
            setpoint--;    
        } 
      }break;

      case RE_MOVE_LEFT_MID:{
          if(setpoint>( MIN_TEMP + 2 ) ){
    15e8:	80 91 20 28 	lds	r24, 0x2820	; 0x802820 <setpoint>
    15ec:	90 91 21 28 	lds	r25, 0x2821	; 0x802821 <setpoint+0x1>
    15f0:	c5 97       	sbiw	r24, 0x35	; 53
    15f2:	90 f0       	brcs	.+36     	; 0x1618 <ProcessRotaryEncoderInput(RotaryEncoderEvent_t)+0xb2>
D:\Projects\190409-DIY_SOLDERING_IRON\Soldering-Station/Soldering-Station.ino:823
            setpoint-=2;    
    15f4:	80 91 20 28 	lds	r24, 0x2820	; 0x802820 <setpoint>
    15f8:	90 91 21 28 	lds	r25, 0x2821	; 0x802821 <setpoint+0x1>
    15fc:	02 97       	sbiw	r24, 0x02	; 2
    15fe:	ef cf       	rjmp	.-34     	; 0x15de <ProcessRotaryEncoderInput(RotaryEncoderEvent_t)+0x78>
D:\Projects\190409-DIY_SOLDERING_IRON\Soldering-Station/Soldering-Station.ino:830
            setpoint=50;
          }
      } break;

    case RE_MOVE_LEFT_FAST:{
          if(setpoint>( MIN_TEMP + 5 ) ){
    1600:	80 91 20 28 	lds	r24, 0x2820	; 0x802820 <setpoint>
    1604:	90 91 21 28 	lds	r25, 0x2821	; 0x802821 <setpoint+0x1>
    1608:	c8 97       	sbiw	r24, 0x38	; 56
    160a:	30 f0       	brcs	.+12     	; 0x1618 <ProcessRotaryEncoderInput(RotaryEncoderEvent_t)+0xb2>
D:\Projects\190409-DIY_SOLDERING_IRON\Soldering-Station/Soldering-Station.ino:831
            setpoint-=5;    
    160c:	80 91 20 28 	lds	r24, 0x2820	; 0x802820 <setpoint>
    1610:	90 91 21 28 	lds	r25, 0x2821	; 0x802821 <setpoint+0x1>
    1614:	05 97       	sbiw	r24, 0x05	; 5
    1616:	e3 cf       	rjmp	.-58     	; 0x15de <ProcessRotaryEncoderInput(RotaryEncoderEvent_t)+0x78>
D:\Projects\190409-DIY_SOLDERING_IRON\Soldering-Station/Soldering-Station.ino:833
          } else {
            setpoint=50;
    1618:	82 e3       	ldi	r24, 0x32	; 50
    161a:	90 e0       	ldi	r25, 0x00	; 0
    161c:	e0 cf       	rjmp	.-64     	; 0x15de <ProcessRotaryEncoderInput(RotaryEncoderEvent_t)+0x78>
D:\Projects\190409-DIY_SOLDERING_IRON\Soldering-Station/Soldering-Station.ino:838
          }     
      } break;

      case RE_MOVE_RIGHT_SLOW:{
        if(setpoint<MAX_TEMP){
    161e:	80 91 20 28 	lds	r24, 0x2820	; 0x802820 <setpoint>
    1622:	90 91 21 28 	lds	r25, 0x2821	; 0x802821 <setpoint+0x1>
    1626:	82 3c       	cpi	r24, 0xC2	; 194
    1628:	91 40       	sbci	r25, 0x01	; 1
    162a:	08 f0       	brcs	.+2      	; 0x162e <ProcessRotaryEncoderInput(RotaryEncoderEvent_t)+0xc8>
    162c:	aa cf       	rjmp	.-172    	; 0x1582 <ProcessRotaryEncoderInput(RotaryEncoderEvent_t)+0x1c>
D:\Projects\190409-DIY_SOLDERING_IRON\Soldering-Station/Soldering-Station.ino:839
            setpoint++;    
    162e:	80 91 20 28 	lds	r24, 0x2820	; 0x802820 <setpoint>
    1632:	90 91 21 28 	lds	r25, 0x2821	; 0x802821 <setpoint+0x1>
    1636:	01 96       	adiw	r24, 0x01	; 1
    1638:	d2 cf       	rjmp	.-92     	; 0x15de <ProcessRotaryEncoderInput(RotaryEncoderEvent_t)+0x78>
D:\Projects\190409-DIY_SOLDERING_IRON\Soldering-Station/Soldering-Station.ino:844
          } 
      } break;

      case RE_MOVE_RIGHT_MID:{
          if(setpoint<(MAX_TEMP-2)){
    163a:	80 91 20 28 	lds	r24, 0x2820	; 0x802820 <setpoint>
    163e:	90 91 21 28 	lds	r25, 0x2821	; 0x802821 <setpoint+0x1>
    1642:	80 3c       	cpi	r24, 0xC0	; 192
    1644:	91 40       	sbci	r25, 0x01	; 1
    1646:	30 f4       	brcc	.+12     	; 0x1654 <ProcessRotaryEncoderInput(RotaryEncoderEvent_t)+0xee>
D:\Projects\190409-DIY_SOLDERING_IRON\Soldering-Station/Soldering-Station.ino:845
            setpoint+=2;    
    1648:	80 91 20 28 	lds	r24, 0x2820	; 0x802820 <setpoint>
    164c:	90 91 21 28 	lds	r25, 0x2821	; 0x802821 <setpoint+0x1>
    1650:	02 96       	adiw	r24, 0x02	; 2
    1652:	c5 cf       	rjmp	.-118    	; 0x15de <ProcessRotaryEncoderInput(RotaryEncoderEvent_t)+0x78>
D:\Projects\190409-DIY_SOLDERING_IRON\Soldering-Station/Soldering-Station.ino:855

      case RE_MOVE_RIGHT_FAST:{
          if(setpoint<(MAX_TEMP-5)){
            setpoint+=5;    
          } else {
            setpoint=MAX_TEMP;
    1654:	82 ec       	ldi	r24, 0xC2	; 194
    1656:	91 e0       	ldi	r25, 0x01	; 1
    1658:	c2 cf       	rjmp	.-124    	; 0x15de <ProcessRotaryEncoderInput(RotaryEncoderEvent_t)+0x78>
D:\Projects\190409-DIY_SOLDERING_IRON\Soldering-Station/Soldering-Station.ino:867

    }
    /* sainity check */
      if(setpoint<MIN_TEMP){
            setpoint=MIN_TEMP;
      } else if( setpoint>MAX_TEMP){
    165a:	80 91 20 28 	lds	r24, 0x2820	; 0x802820 <setpoint>
    165e:	90 91 21 28 	lds	r25, 0x2821	; 0x802821 <setpoint+0x1>
    1662:	83 3c       	cpi	r24, 0xC3	; 195
    1664:	91 40       	sbci	r25, 0x01	; 1
    1666:	00 f1       	brcs	.+64     	; 0x16a8 <ProcessRotaryEncoderInput(RotaryEncoderEvent_t)+0x142>
D:\Projects\190409-DIY_SOLDERING_IRON\Soldering-Station/Soldering-Station.ino:868
            setpoint=MAX_TEMP;
    1668:	82 ec       	ldi	r24, 0xC2	; 194
    166a:	91 e0       	ldi	r25, 0x01	; 1
    166c:	93 cf       	rjmp	.-218    	; 0x1594 <ProcessRotaryEncoderInput(RotaryEncoderEvent_t)+0x2e>
D:\Projects\190409-DIY_SOLDERING_IRON\Soldering-Station/Soldering-Station.ino:873
  }

 } else {
   //For menu interaction we need to add a second set of functiosn to handle input...
   if(1==RotaryEncoderMenuEna){
    166e:	20 91 9f 28 	lds	r18, 0x289F	; 0x80289f <RotaryEncoderMenuEna>
    1672:	21 30       	cpi	r18, 0x01	; 1
    1674:	c9 f4       	brne	.+50     	; 0x16a8 <ProcessRotaryEncoderInput(RotaryEncoderEvent_t)+0x142>
D:\Projects\190409-DIY_SOLDERING_IRON\Soldering-Station/Soldering-Station.ino:874
    switch(event){
    1676:	82 30       	cpi	r24, 0x02	; 2
    1678:	91 05       	cpc	r25, r1
    167a:	b9 f0       	breq	.+46     	; 0x16aa <ProcessRotaryEncoderInput(RotaryEncoderEvent_t)+0x144>
    167c:	85 30       	cpi	r24, 0x05	; 5
    167e:	91 05       	cpc	r25, r1
    1680:	f9 f0       	breq	.+62     	; 0x16c0 <ProcessRotaryEncoderInput(RotaryEncoderEvent_t)+0x15a>
    1682:	01 97       	sbiw	r24, 0x01	; 1
    1684:	89 f4       	brne	.+34     	; 0x16a8 <ProcessRotaryEncoderInput(RotaryEncoderEvent_t)+0x142>
D:\Projects\190409-DIY_SOLDERING_IRON\Soldering-Station/Soldering-Station.ino:902
        Station.SetSolderingIron(mode);
      }break;

      case RE_BTN_PRESS_END:{
        //If this is longer pressed than 30 seconds we will leave the config menu....
        if(btn_press_time>9999){
    1686:	80 91 92 28 	lds	r24, 0x2892	; 0x802892 <btn_press_time>
    168a:	90 91 93 28 	lds	r25, 0x2893	; 0x802893 <btn_press_time+0x1>
    168e:	80 31       	cpi	r24, 0x10	; 16
    1690:	97 42       	sbci	r25, 0x27	; 39
    1692:	50 f0       	brcs	.+20     	; 0x16a8 <ProcessRotaryEncoderInput(RotaryEncoderEvent_t)+0x142>
D:\Projects\190409-DIY_SOLDERING_IRON\Soldering-Station/Soldering-Station.ino:904
          //We change the state to Welcome back.....
          state=WELCOME_TITLE;
    1694:	8b e0       	ldi	r24, 0x0B	; 11
    1696:	90 e0       	ldi	r25, 0x00	; 0
    1698:	80 93 22 28 	sts	0x2822, r24	; 0x802822 <state>
    169c:	90 93 23 28 	sts	0x2823, r25	; 0x802823 <state+0x1>
rotary_EncoderMenuDisable():
D:\Projects\190409-DIY_SOLDERING_IRON\Soldering-Station/Soldering-Station.ino:540
 Output:      None
 Description: Disable pin change interrupts for rotary encoder pin 
 *************************************************************************************************************/    
void rotary_EncoderMenuDisable()
{   
    RotaryEncoderMenuEna=0;
    16a0:	10 92 9f 28 	sts	0x289F, r1	; 0x80289f <RotaryEncoderMenuEna>
rotary_EncoderEnable():
D:\Projects\190409-DIY_SOLDERING_IRON\Soldering-Station/Soldering-Station.ino:501
 Output:      None
 Description: Configure pin change interrupts for rotary encoder pin 
 *************************************************************************************************************/    
void rotary_EncoderEnable()
{   
    RotaryEncoderLocked=0;
    16a4:	10 92 a0 28 	sts	0x28A0, r1	; 0x8028a0 <RotaryEncoderLocked>
_Z25ProcessRotaryEncoderInput20RotaryEncoderEvent_t():
D:\Projects\190409-DIY_SOLDERING_IRON\Soldering-Station/Soldering-Station.ino:918
   }
  }
 }
 

}
    16a8:	08 95       	ret
GetSolderingIron():
C:\Users\mathiasc\AppData\Local\Temp\arduino_build_312787\sketch/HW_190409.cpp:323
 Input:       None
 Output:      SolderingIronType_t
 Discription: Get the currently configured iron form the station
**********************************************************************************************************/
SolderingIronType_t HW_190409::GetSolderingIron( void ){
  return read_StoreIronConfig();
    16aa:	0e 94 41 0a 	call	0x1482	; 0x1482 <HW_190409::read_StoreIronConfig() [clone .constprop.61]>
_Z25ProcessRotaryEncoderInput20RotaryEncoderEvent_t():
D:\Projects\190409-DIY_SOLDERING_IRON\Soldering-Station/Soldering-Station.ino:878
   if(1==RotaryEncoderMenuEna){
    switch(event){
      case RE_MOVE_LEFT_SLOW:{
        //We will change the type...
        uint8_t mode = (uint8_t)Station.GetSolderingIron();
        mode--;
    16ae:	81 50       	subi	r24, 0x01	; 1
D:\Projects\190409-DIY_SOLDERING_IRON\Soldering-Station/Soldering-Station.ino:891
      }break;

      case RE_MOVE_RIGHT_SLOW:{
        uint8_t mode = (uint8_t)Station.GetSolderingIron();
        mode++;
        if(mode<=(uint8_t)IRON_UNKNOWN){
    16b0:	88 23       	and	r24, r24
    16b2:	51 f0       	breq	.+20     	; 0x16c8 <ProcessRotaryEncoderInput(RotaryEncoderEvent_t)+0x162>
    16b4:	84 30       	cpi	r24, 0x04	; 4
    16b6:	08 f0       	brcs	.+2      	; 0x16ba <ProcessRotaryEncoderInput(RotaryEncoderEvent_t)+0x154>
    16b8:	83 e0       	ldi	r24, 0x03	; 3
D:\Projects\190409-DIY_SOLDERING_IRON\Soldering-Station/Soldering-Station.ino:897
          mode=(uint8_t)IRON_HAKKO_FX8801;
        }
        if(mode>=(uint8_t)IRON_CNT){
          mode=((uint8_t)(IRON_CNT)-1);
        }
        Station.SetSolderingIron(mode);
    16ba:	90 e0       	ldi	r25, 0x00	; 0
    16bc:	0c 94 7c 0a 	jmp	0x14f8	; 0x14f8 <HW_190409::SetSolderingIron(SolderingIronType_t) [clone .constprop.62]>
GetSolderingIron():
C:\Users\mathiasc\AppData\Local\Temp\arduino_build_312787\sketch/HW_190409.cpp:323
    16c0:	0e 94 41 0a 	call	0x1482	; 0x1482 <HW_190409::read_StoreIronConfig() [clone .constprop.61]>
_Z25ProcessRotaryEncoderInput20RotaryEncoderEvent_t():
D:\Projects\190409-DIY_SOLDERING_IRON\Soldering-Station/Soldering-Station.ino:890
        Station.SetSolderingIron(mode);
      }break;

      case RE_MOVE_RIGHT_SLOW:{
        uint8_t mode = (uint8_t)Station.GetSolderingIron();
        mode++;
    16c4:	8f 5f       	subi	r24, 0xFF	; 255
    16c6:	f4 cf       	rjmp	.-24     	; 0x16b0 <ProcessRotaryEncoderInput(RotaryEncoderEvent_t)+0x14a>
D:\Projects\190409-DIY_SOLDERING_IRON\Soldering-Station/Soldering-Station.ino:892
        if(mode<=(uint8_t)IRON_UNKNOWN){
          mode=(uint8_t)IRON_HAKKO_FX8801;
    16c8:	81 e0       	ldi	r24, 0x01	; 1
    16ca:	f7 cf       	rjmp	.-18     	; 0x16ba <ProcessRotaryEncoderInput(RotaryEncoderEvent_t)+0x154>

000016cc <Timer_250us_Callback()>:
_Z20Timer_250us_Callbackv():
D:\Projects\190409-DIY_SOLDERING_IRON\Soldering-Station/Soldering-Station.ino:698
 Input:       None
 Output:      None 
 Description: Handels the fault monitor, powersave and the rotary encoder, updates the display temp
**********************************************************************************************************/
void Timer_250us_Callback( void )
{
    16cc:	cf 93       	push	r28
    16ce:	df 93       	push	r29
D:\Projects\190409-DIY_SOLDERING_IRON\Soldering-Station/Soldering-Station.ino:706
   static uint8_t input_a_buffer=0;
   static uint16_t calldelta=0;
   static uint8_t ms_prescaler=0;
   
   //This will generate 1ms Ticks for us
   if(ms_prescaler>=3){
    16d0:	80 91 3d 28 	lds	r24, 0x283D	; 0x80283d <Timer_250us_Callback()::ms_prescaler>
    16d4:	83 30       	cpi	r24, 0x03	; 3
    16d6:	08 f4       	brcc	.+2      	; 0x16da <Timer_250us_Callback()+0xe>
    16d8:	69 c1       	rjmp	.+722    	; 0x19ac <__DATA_REGION_LENGTH__+0x1ac>
D:\Projects\190409-DIY_SOLDERING_IRON\Soldering-Station/Soldering-Station.ino:707
    ms_prescaler=0;
    16da:	10 92 3d 28 	sts	0x283D, r1	; 0x80283d <Timer_250us_Callback()::ms_prescaler>
D:\Projects\190409-DIY_SOLDERING_IRON\Soldering-Station/Soldering-Station.ino:708
    Ticks++;
    16de:	80 91 3b 28 	lds	r24, 0x283B	; 0x80283b <Ticks>
    16e2:	90 91 3c 28 	lds	r25, 0x283C	; 0x80283c <Ticks+0x1>
    16e6:	01 96       	adiw	r24, 0x01	; 1
    16e8:	80 93 3b 28 	sts	0x283B, r24	; 0x80283b <Ticks>
    16ec:	90 93 3c 28 	sts	0x283C, r25	; 0x80283c <Ticks+0x1>
D:\Projects\190409-DIY_SOLDERING_IRON\Soldering-Station/Soldering-Station.ino:709
    if(delay_ms>0){
    16f0:	80 91 a1 28 	lds	r24, 0x28A1	; 0x8028a1 <delay_ms>
    16f4:	90 91 a2 28 	lds	r25, 0x28A2	; 0x8028a2 <delay_ms+0x1>
    16f8:	89 2b       	or	r24, r25
    16fa:	49 f0       	breq	.+18     	; 0x170e <Timer_250us_Callback()+0x42>
D:\Projects\190409-DIY_SOLDERING_IRON\Soldering-Station/Soldering-Station.ino:710
      delay_ms--;
    16fc:	80 91 a1 28 	lds	r24, 0x28A1	; 0x8028a1 <delay_ms>
    1700:	90 91 a2 28 	lds	r25, 0x28A2	; 0x8028a2 <delay_ms+0x1>
    1704:	01 97       	sbiw	r24, 0x01	; 1
    1706:	80 93 a1 28 	sts	0x28A1, r24	; 0x8028a1 <delay_ms>
    170a:	90 93 a2 28 	sts	0x28A2, r25	; 0x8028a2 <delay_ms+0x1>
D:\Projects\190409-DIY_SOLDERING_IRON\Soldering-Station/Soldering-Station.ino:714
    }

    //This generates 1 second ticks 
    if(onesecond_prescaler>1000){
    170e:	80 91 39 28 	lds	r24, 0x2839	; 0x802839 <Timer_250us_Callback()::onesecond_prescaler>
    1712:	90 91 3a 28 	lds	r25, 0x283A	; 0x80283a <Timer_250us_Callback()::onesecond_prescaler+0x1>
    1716:	89 3e       	cpi	r24, 0xE9	; 233
    1718:	23 e0       	ldi	r18, 0x03	; 3
    171a:	92 07       	cpc	r25, r18
    171c:	08 f4       	brcc	.+2      	; 0x1720 <Timer_250us_Callback()+0x54>
    171e:	3a c1       	rjmp	.+628    	; 0x1994 <__DATA_REGION_LENGTH__+0x194>
D:\Projects\190409-DIY_SOLDERING_IRON\Soldering-Station/Soldering-Station.ino:715
       onesecond_prescaler=0;
    1720:	10 92 39 28 	sts	0x2839, r1	; 0x802839 <Timer_250us_Callback()::onesecond_prescaler>
    1724:	10 92 3a 28 	sts	0x283A, r1	; 0x80283a <Timer_250us_Callback()::onesecond_prescaler+0x1>
D:\Projects\190409-DIY_SOLDERING_IRON\Soldering-Station/Soldering-Station.ino:716
       timestamp++;
    1728:	80 91 9c 28 	lds	r24, 0x289C	; 0x80289c <timestamp>
    172c:	90 91 9d 28 	lds	r25, 0x289D	; 0x80289d <timestamp+0x1>
    1730:	01 96       	adiw	r24, 0x01	; 1
    1732:	80 93 9c 28 	sts	0x289C, r24	; 0x80289c <timestamp>
    1736:	90 93 9d 28 	sts	0x289D, r25	; 0x80289d <timestamp+0x1>
D:\Projects\190409-DIY_SOLDERING_IRON\Soldering-Station/Soldering-Station.ino:717
       display_Temp = Station.Temp.GetLastValue();
    173a:	80 91 60 29 	lds	r24, 0x2960	; 0x802960 <Station+0x6>
    173e:	90 91 61 29 	lds	r25, 0x2961	; 0x802961 <Station+0x7>
    1742:	80 93 99 28 	sts	0x2899, r24	; 0x802899 <display_Temp>
    1746:	90 93 9a 28 	sts	0x289A, r25	; 0x80289a <display_Temp+0x1>
D:\Projects\190409-DIY_SOLDERING_IRON\Soldering-Station/Soldering-Station.ino:718
       if(powerSave_C == POWERSAVE_TIMEOUT )
    174a:	80 91 37 28 	lds	r24, 0x2837	; 0x802837 <powerSave_C>
    174e:	90 91 38 28 	lds	r25, 0x2838	; 0x802838 <powerSave_C+0x1>
    1752:	88 35       	cpi	r24, 0x58	; 88
    1754:	92 40       	sbci	r25, 0x02	; 2
    1756:	11 f5       	brne	.+68     	; 0x179c <Timer_250us_Callback()+0xd0>
D:\Projects\190409-DIY_SOLDERING_IRON\Soldering-Station/Soldering-Station.ino:720
       {
            powerSave_F = true;   
    1758:	81 e0       	ldi	r24, 0x01	; 1
    175a:	80 93 91 28 	sts	0x2891, r24	; 0x802891 <powerSave_F>
D:\Projects\190409-DIY_SOLDERING_IRON\Soldering-Station/Soldering-Station.ino:726
       }else if ( powerSave_C > POWERSAVE_TIMEOUT ) {
          _NOP();
       } else {
          powerSave_C++;
       }
       faultMonitor( HeatPwr_Percent, Station.Temp.GetLastValue(),setpoint);
    175e:	40 91 20 28 	lds	r20, 0x2820	; 0x802820 <setpoint>
    1762:	50 91 21 28 	lds	r21, 0x2821	; 0x802821 <setpoint+0x1>
GetLastValue():
C:\Users\mathiasc\AppData\Local\Temp\arduino_build_312787\sketch/TEMP_190409.cpp:142
 Input:       None
 Output:      uint16_t Temp in C
 Discription: Returns the last read the Temp in C
**********************************************************************************************************/
uint16_t TEMP_190409::GetLastValue( void ){
    return LastReadTemp;
    1766:	20 91 60 29 	lds	r18, 0x2960	; 0x802960 <Station+0x6>
    176a:	30 91 61 29 	lds	r19, 0x2961	; 0x802961 <Station+0x7>
_Z20Timer_250us_Callbackv():
D:\Projects\190409-DIY_SOLDERING_IRON\Soldering-Station/Soldering-Station.ino:726
    176e:	80 91 9b 28 	lds	r24, 0x289B	; 0x80289b <HeatPwr_Percent>
faultMonitor():
D:\Projects\190409-DIY_SOLDERING_IRON\Soldering-Station/Soldering-Station.ino:940

  /* this is what we need only during the call of this function */
  int32_t delta_t_target= (int32_t)target-(int32_t)temperature;
  int32_t delta_t_temp=(int32_t)temperature-(int32_t)prev_temp;

  switch( state ) {
    1772:	e0 91 22 28 	lds	r30, 0x2822	; 0x802822 <state>
    1776:	f0 91 23 28 	lds	r31, 0x2823	; 0x802823 <state+0x1>
    177a:	e9 30       	cpi	r30, 0x09	; 9
    177c:	f1 05       	cpc	r31, r1
    177e:	08 f0       	brcs	.+2      	; 0x1782 <Timer_250us_Callback()+0xb6>
    1780:	07 c1       	rjmp	.+526    	; 0x1990 <__DATA_REGION_LENGTH__+0x190>
    1782:	eb 53       	subi	r30, 0x3B	; 59
    1784:	f4 4f       	sbci	r31, 0xF4	; 244
    1786:	0c 94 63 1b 	jmp	0x36c6	; 0x36c6 <__tablejump2__>
    178a:	e1 0b       	sbc	r30, r17
    178c:	ae 0c       	add	r10, r14
    178e:	bc 0c       	add	r11, r12
    1790:	ae 0c       	add	r10, r14
    1792:	b5 0c       	add	r11, r5
    1794:	e1 0b       	sbc	r30, r17
    1796:	e1 0b       	sbc	r30, r17
    1798:	31 0c       	add	r3, r1
    179a:	31 0c       	add	r3, r1
_Z20Timer_250us_Callbackv():
D:\Projects\190409-DIY_SOLDERING_IRON\Soldering-Station/Soldering-Station.ino:721
       timestamp++;
       display_Temp = Station.Temp.GetLastValue();
       if(powerSave_C == POWERSAVE_TIMEOUT )
       {
            powerSave_F = true;   
       }else if ( powerSave_C > POWERSAVE_TIMEOUT ) {
    179c:	80 91 37 28 	lds	r24, 0x2837	; 0x802837 <powerSave_C>
    17a0:	90 91 38 28 	lds	r25, 0x2838	; 0x802838 <powerSave_C+0x1>
    17a4:	89 35       	cpi	r24, 0x59	; 89
    17a6:	92 40       	sbci	r25, 0x02	; 2
    17a8:	10 f0       	brcs	.+4      	; 0x17ae <Timer_250us_Callback()+0xe2>
D:\Projects\190409-DIY_SOLDERING_IRON\Soldering-Station/Soldering-Station.ino:722
          _NOP();
    17aa:	00 00       	nop
    17ac:	d8 cf       	rjmp	.-80     	; 0x175e <Timer_250us_Callback()+0x92>
D:\Projects\190409-DIY_SOLDERING_IRON\Soldering-Station/Soldering-Station.ino:724
       } else {
          powerSave_C++;
    17ae:	80 91 37 28 	lds	r24, 0x2837	; 0x802837 <powerSave_C>
    17b2:	90 91 38 28 	lds	r25, 0x2838	; 0x802838 <powerSave_C+0x1>
    17b6:	01 96       	adiw	r24, 0x01	; 1
    17b8:	80 93 37 28 	sts	0x2837, r24	; 0x802837 <powerSave_C>
    17bc:	90 93 38 28 	sts	0x2838, r25	; 0x802838 <powerSave_C+0x1>
    17c0:	ce cf       	rjmp	.-100    	; 0x175e <Timer_250us_Callback()+0x92>
faultMonitor():
D:\Projects\190409-DIY_SOLDERING_IRON\Soldering-Station/Soldering-Station.ino:946
 
    case POWERSAVE:
    case POWERSAVE_WAIT:
    case NOFAULT:{
      /* we need the current temp, the dest temp and the heatpower */
      if( (heatpwr_percent>0) && (delta_t_target>5) ){
    17c2:	88 23       	and	r24, r24
    17c4:	09 f4       	brne	.+2      	; 0x17c8 <Timer_250us_Callback()+0xfc>
    17c6:	4a c0       	rjmp	.+148    	; 0x185c <__DATA_REGION_LENGTH__+0x5c>
D:\Projects\190409-DIY_SOLDERING_IRON\Soldering-Station/Soldering-Station.ino:937
  static uint8_t failcount=0; 
  static uint8_t recovery_delay=0;
  static uint8_t undervoltage_cnt=0;

  /* this is what we need only during the call of this function */
  int32_t delta_t_target= (int32_t)target-(int32_t)temperature;
    17c8:	c9 01       	movw	r24, r18
    17ca:	b0 e0       	ldi	r27, 0x00	; 0
    17cc:	a0 e0       	ldi	r26, 0x00	; 0
    17ce:	70 e0       	ldi	r23, 0x00	; 0
    17d0:	60 e0       	ldi	r22, 0x00	; 0
    17d2:	48 1b       	sub	r20, r24
    17d4:	59 0b       	sbc	r21, r25
    17d6:	6a 0b       	sbc	r22, r26
    17d8:	7b 0b       	sbc	r23, r27
D:\Projects\190409-DIY_SOLDERING_IRON\Soldering-Station/Soldering-Station.ino:946
 
    case POWERSAVE:
    case POWERSAVE_WAIT:
    case NOFAULT:{
      /* we need the current temp, the dest temp and the heatpower */
      if( (heatpwr_percent>0) && (delta_t_target>5) ){
    17da:	46 30       	cpi	r20, 0x06	; 6
    17dc:	51 05       	cpc	r21, r1
    17de:	61 05       	cpc	r22, r1
    17e0:	71 05       	cpc	r23, r1
    17e2:	e4 f1       	brlt	.+120    	; 0x185c <__DATA_REGION_LENGTH__+0x5c>
D:\Projects\190409-DIY_SOLDERING_IRON\Soldering-Station/Soldering-Station.ino:938
  static uint8_t recovery_delay=0;
  static uint8_t undervoltage_cnt=0;

  /* this is what we need only during the call of this function */
  int32_t delta_t_target= (int32_t)target-(int32_t)temperature;
  int32_t delta_t_temp=(int32_t)temperature-(int32_t)prev_temp;
    17e4:	40 91 30 28 	lds	r20, 0x2830	; 0x802830 <faultMonitor(unsigned char, unsigned int, unsigned int)::prev_temp>
    17e8:	50 91 31 28 	lds	r21, 0x2831	; 0x802831 <faultMonitor(unsigned char, unsigned int, unsigned int)::prev_temp+0x1>
    17ec:	84 1b       	sub	r24, r20
    17ee:	95 0b       	sbc	r25, r21
    17f0:	a1 09       	sbc	r26, r1
    17f2:	b1 09       	sbc	r27, r1
D:\Projects\190409-DIY_SOLDERING_IRON\Soldering-Station/Soldering-Station.ino:948
    case POWERSAVE_WAIT:
    case NOFAULT:{
      /* we need the current temp, the dest temp and the heatpower */
      if( (heatpwr_percent>0) && (delta_t_target>5) ){
        /* We assume we are heating, as we havent reached the target now */
        if( (delta_t_temp<3) && ( delta_t_temp >=0 ) ){
    17f4:	83 30       	cpi	r24, 0x03	; 3
    17f6:	91 05       	cpc	r25, r1
    17f8:	a1 05       	cpc	r26, r1
    17fa:	b1 05       	cpc	r27, r1
    17fc:	50 f5       	brcc	.+84     	; 0x1852 <__DATA_REGION_LENGTH__+0x52>
D:\Projects\190409-DIY_SOLDERING_IRON\Soldering-Station/Soldering-Station.ino:950
          /* We take this as error */
          failcount++;
    17fe:	80 91 2f 28 	lds	r24, 0x282F	; 0x80282f <faultMonitor(unsigned char, unsigned int, unsigned int)::failcount>
    1802:	8f 5f       	subi	r24, 0xFF	; 255
    1804:	80 93 2f 28 	sts	0x282F, r24	; 0x80282f <faultMonitor(unsigned char, unsigned int, unsigned int)::failcount>
D:\Projects\190409-DIY_SOLDERING_IRON\Soldering-Station/Soldering-Station.ino:964
      } else {
        /* seems working fine */
        failcount=0;
      }
      
      if(failcount>6){
    1808:	80 91 2f 28 	lds	r24, 0x282F	; 0x80282f <faultMonitor(unsigned char, unsigned int, unsigned int)::failcount>
    180c:	87 30       	cpi	r24, 0x07	; 7
    180e:	70 f0       	brcs	.+28     	; 0x182c <__DATA_REGION_LENGTH__+0x2c>
D:\Projects\190409-DIY_SOLDERING_IRON\Soldering-Station/Soldering-Station.ino:965
         ErrNo=1;
    1810:	81 e0       	ldi	r24, 0x01	; 1
    1812:	80 93 8a 28 	sts	0x288A, r24	; 0x80288a <ErrNo>
D:\Projects\190409-DIY_SOLDERING_IRON\Soldering-Station/Soldering-Station.ino:966
         failcount=0;
    1816:	10 92 2f 28 	sts	0x282F, r1	; 0x80282f <faultMonitor(unsigned char, unsigned int, unsigned int)::failcount>
D:\Projects\190409-DIY_SOLDERING_IRON\Soldering-Station/Soldering-Station.ino:967
         state=TEMPSENS_FAIL;
    181a:	81 e0       	ldi	r24, 0x01	; 1
    181c:	90 e0       	ldi	r25, 0x00	; 0
    181e:	80 93 22 28 	sts	0x2822, r24	; 0x802822 <state>
    1822:	90 93 23 28 	sts	0x2823, r25	; 0x802823 <state+0x1>
D:\Projects\190409-DIY_SOLDERING_IRON\Soldering-Station/Soldering-Station.ino:968
         recovery_delay=10;
    1826:	8a e0       	ldi	r24, 0x0A	; 10
    1828:	80 93 2e 28 	sts	0x282E, r24	; 0x80282e <faultMonitor(unsigned char, unsigned int, unsigned int)::recovery_delay>
D:\Projects\190409-DIY_SOLDERING_IRON\Soldering-Station/Soldering-Station.ino:971
       }

       if(temperature>600){
    182c:	29 35       	cpi	r18, 0x59	; 89
    182e:	82 e0       	ldi	r24, 0x02	; 2
    1830:	38 07       	cpc	r19, r24
    1832:	60 f0       	brcs	.+24     	; 0x184c <__DATA_REGION_LENGTH__+0x4c>
D:\Projects\190409-DIY_SOLDERING_IRON\Soldering-Station/Soldering-Station.ino:972
        ErrNo=3;
    1834:	83 e0       	ldi	r24, 0x03	; 3
    1836:	80 93 8a 28 	sts	0x288A, r24	; 0x80288a <ErrNo>
D:\Projects\190409-DIY_SOLDERING_IRON\Soldering-Station/Soldering-Station.ino:973
        state=TEMPSENS_FAIL;
    183a:	81 e0       	ldi	r24, 0x01	; 1
    183c:	90 e0       	ldi	r25, 0x00	; 0
    183e:	80 93 22 28 	sts	0x2822, r24	; 0x802822 <state>
    1842:	90 93 23 28 	sts	0x2823, r25	; 0x802823 <state+0x1>
D:\Projects\190409-DIY_SOLDERING_IRON\Soldering-Station/Soldering-Station.ino:974
        recovery_delay=10;
    1846:	8a e0       	ldi	r24, 0x0A	; 10
    1848:	80 93 2e 28 	sts	0x282E, r24	; 0x80282e <faultMonitor(unsigned char, unsigned int, unsigned int)::recovery_delay>
D:\Projects\190409-DIY_SOLDERING_IRON\Soldering-Station/Soldering-Station.ino:1028

    case UNDERVOLTAGE:{

      if(Station.CheckLimits()!=UNDERVOLTAGE){
       state=NOFAULT;
       undervoltage_cnt=0;
    184c:	10 92 2d 28 	sts	0x282D, r1	; 0x80282d <faultMonitor(unsigned char, unsigned int, unsigned int)::undervoltage_cnt>
    1850:	18 c0       	rjmp	.+48     	; 0x1882 <__DATA_REGION_LENGTH__+0x82>
D:\Projects\190409-DIY_SOLDERING_IRON\Soldering-Station/Soldering-Station.ino:953
        if( (delta_t_temp<3) && ( delta_t_temp >=0 ) ){
          /* We take this as error */
          failcount++;
        } else {
          
          if(delta_t_temp> -10){
    1852:	87 3f       	cpi	r24, 0xF7	; 247
    1854:	9f 4f       	sbci	r25, 0xFF	; 255
    1856:	af 4f       	sbci	r26, 0xFF	; 255
    1858:	bf 4f       	sbci	r27, 0xFF	; 255
    185a:	8c f2       	brlt	.-94     	; 0x17fe <Timer_250us_Callback()+0x132>
D:\Projects\190409-DIY_SOLDERING_IRON\Soldering-Station/Soldering-Station.ino:954
            failcount=0;
    185c:	10 92 2f 28 	sts	0x282F, r1	; 0x80282f <faultMonitor(unsigned char, unsigned int, unsigned int)::failcount>
    1860:	d3 cf       	rjmp	.-90     	; 0x1808 <__DATA_REGION_LENGTH__+0x8>
D:\Projects\190409-DIY_SOLDERING_IRON\Soldering-Station/Soldering-Station.ino:993
    break;
    case SLEEP:
    case SLEEP_WAIT:{
  

      if(temperature>600){
    1862:	29 35       	cpi	r18, 0x59	; 89
    1864:	42 e0       	ldi	r20, 0x02	; 2
    1866:	34 07       	cpc	r19, r20
    1868:	60 f0       	brcs	.+24     	; 0x1882 <__DATA_REGION_LENGTH__+0x82>
D:\Projects\190409-DIY_SOLDERING_IRON\Soldering-Station/Soldering-Station.ino:994
        ErrNo=3;
    186a:	83 e0       	ldi	r24, 0x03	; 3
    186c:	80 93 8a 28 	sts	0x288A, r24	; 0x80288a <ErrNo>
D:\Projects\190409-DIY_SOLDERING_IRON\Soldering-Station/Soldering-Station.ino:995
        state=TEMPSENS_FAIL;
    1870:	81 e0       	ldi	r24, 0x01	; 1
    1872:	90 e0       	ldi	r25, 0x00	; 0
    1874:	80 93 22 28 	sts	0x2822, r24	; 0x802822 <state>
    1878:	90 93 23 28 	sts	0x2823, r25	; 0x802823 <state+0x1>
D:\Projects\190409-DIY_SOLDERING_IRON\Soldering-Station/Soldering-Station.ino:996
        recovery_delay=10;
    187c:	8a e0       	ldi	r24, 0x0A	; 10
D:\Projects\190409-DIY_SOLDERING_IRON\Soldering-Station/Soldering-Station.ino:1009
         }
    } break;

    case WAIT:{
      if(recovery_delay>0){
              recovery_delay--;
    187e:	80 93 2e 28 	sts	0x282E, r24	; 0x80282e <faultMonitor(unsigned char, unsigned int, unsigned int)::recovery_delay>
D:\Projects\190409-DIY_SOLDERING_IRON\Soldering-Station/Soldering-Station.ino:1036
    default:{
      _NOP();
    } break;
  }
  
  prev_temp = temperature; 
    1882:	20 93 30 28 	sts	0x2830, r18	; 0x802830 <faultMonitor(unsigned char, unsigned int, unsigned int)::prev_temp>
    1886:	30 93 31 28 	sts	0x2831, r19	; 0x802831 <faultMonitor(unsigned char, unsigned int, unsigned int)::prev_temp+0x1>
_Z20Timer_250us_Callbackv():
D:\Projects\190409-DIY_SOLDERING_IRON\Soldering-Station/Soldering-Station.ino:732
   } else {
    onesecond_prescaler++;
   }

   //This will gernate 100ms ticks
   if(_100ms_prescaler>=10){
    188a:	80 91 35 28 	lds	r24, 0x2835	; 0x802835 <Timer_250us_Callback()::_100ms_prescaler>
    188e:	90 91 36 28 	lds	r25, 0x2836	; 0x802836 <Timer_250us_Callback()::_100ms_prescaler+0x1>
    1892:	8a 30       	cpi	r24, 0x0A	; 10
    1894:	91 05       	cpc	r25, r1
    1896:	08 f4       	brcc	.+2      	; 0x189a <__DATA_REGION_LENGTH__+0x9a>
    1898:	83 c0       	rjmp	.+262    	; 0x19a0 <__DATA_REGION_LENGTH__+0x1a0>
D:\Projects\190409-DIY_SOLDERING_IRON\Soldering-Station/Soldering-Station.ino:733
    _100ms_prescaler=0;
    189a:	10 92 35 28 	sts	0x2835, r1	; 0x802835 <Timer_250us_Callback()::_100ms_prescaler>
    189e:	10 92 36 28 	sts	0x2836, r1	; 0x802836 <Timer_250us_Callback()::_100ms_prescaler+0x1>
digitalRead():
    18a2:	84 e0       	ldi	r24, 0x04	; 4
    18a4:	0e 94 36 04 	call	0x86c	; 0x86c <digitalRead.part.3>
_Z20Timer_250us_Callbackv():
D:\Projects\190409-DIY_SOLDERING_IRON\Soldering-Station/Soldering-Station.ino:742
   }
  } else {
    ms_prescaler++;
  }

  if(  digitalRead( ROTARY_BTN ) == LOW ){
    18a8:	81 11       	cpse	r24, r1
    18aa:	84 c0       	rjmp	.+264    	; 0x19b4 <__DATA_REGION_LENGTH__+0x1b4>
D:\Projects\190409-DIY_SOLDERING_IRON\Soldering-Station/Soldering-Station.ino:743
    if(btn_press_time==0){
    18ac:	80 91 92 28 	lds	r24, 0x2892	; 0x802892 <btn_press_time>
    18b0:	90 91 93 28 	lds	r25, 0x2893	; 0x802893 <btn_press_time+0x1>
    18b4:	89 2b       	or	r24, r25
    18b6:	21 f4       	brne	.+8      	; 0x18c0 <__DATA_REGION_LENGTH__+0xc0>
D:\Projects\190409-DIY_SOLDERING_IRON\Soldering-Station/Soldering-Station.ino:744
      ProcessRotaryEncoderInput(RE_BTN_PRESS_BEGIN);  
    18b8:	90 e0       	ldi	r25, 0x00	; 0
    18ba:	80 e0       	ldi	r24, 0x00	; 0
    18bc:	0e 94 b3 0a 	call	0x1566	; 0x1566 <ProcessRotaryEncoderInput(RotaryEncoderEvent_t)>
D:\Projects\190409-DIY_SOLDERING_IRON\Soldering-Station/Soldering-Station.ino:746
    }
    if(btn_press_time<UINT16_MAX){
    18c0:	80 91 92 28 	lds	r24, 0x2892	; 0x802892 <btn_press_time>
    18c4:	90 91 93 28 	lds	r25, 0x2893	; 0x802893 <btn_press_time+0x1>
    18c8:	01 96       	adiw	r24, 0x01	; 1
    18ca:	49 f0       	breq	.+18     	; 0x18de <__DATA_REGION_LENGTH__+0xde>
D:\Projects\190409-DIY_SOLDERING_IRON\Soldering-Station/Soldering-Station.ino:747
      btn_press_time++;
    18cc:	80 91 92 28 	lds	r24, 0x2892	; 0x802892 <btn_press_time>
    18d0:	90 91 93 28 	lds	r25, 0x2893	; 0x802893 <btn_press_time+0x1>
    18d4:	01 96       	adiw	r24, 0x01	; 1
    18d6:	80 93 92 28 	sts	0x2892, r24	; 0x802892 <btn_press_time>
    18da:	90 93 93 28 	sts	0x2893, r25	; 0x802893 <btn_press_time+0x1>
D:\Projects\190409-DIY_SOLDERING_IRON\Soldering-Station/Soldering-Station.ino:759
    }
    btn_press_time=0;
  }

   /* We limit the buffer to 4bit / 4 sampels */ 
   input_a_buffer=input_a_buffer<<1;
    18de:	c0 91 34 28 	lds	r28, 0x2834	; 0x802834 <Timer_250us_Callback()::input_a_buffer>
    18e2:	cc 0f       	add	r28, r28
D:\Projects\190409-DIY_SOLDERING_IRON\Soldering-Station/Soldering-Station.ino:760
   input_a_buffer=input_a_buffer&0x0F;
    18e4:	cf 70       	andi	r28, 0x0F	; 15
    18e6:	c0 93 34 28 	sts	0x2834, r28	; 0x802834 <Timer_250us_Callback()::input_a_buffer>
digitalRead():
    18ea:	86 e0       	ldi	r24, 0x06	; 6
    18ec:	0e 94 36 04 	call	0x86c	; 0x86c <digitalRead.part.3>
_Z20Timer_250us_Callbackv():
D:\Projects\190409-DIY_SOLDERING_IRON\Soldering-Station/Soldering-Station.ino:762
   
   if(LOW==digitalRead( ROTARY_TERM_B )){  
    18f0:	88 23       	and	r24, r24
    18f2:	19 f0       	breq	.+6      	; 0x18fa <__DATA_REGION_LENGTH__+0xfa>
D:\Projects\190409-DIY_SOLDERING_IRON\Soldering-Station/Soldering-Station.ino:765
    input_a_buffer=input_a_buffer|0x00;
   } else {
    input_a_buffer=input_a_buffer|0x01;
    18f4:	c1 60       	ori	r28, 0x01	; 1
    18f6:	c0 93 34 28 	sts	0x2834, r28	; 0x802834 <Timer_250us_Callback()::input_a_buffer>
D:\Projects\190409-DIY_SOLDERING_IRON\Soldering-Station/Soldering-Station.ino:768
   }

   if( (0x03==input_a_buffer) ){ /* Rising edge */
    18fa:	80 91 34 28 	lds	r24, 0x2834	; 0x802834 <Timer_250us_Callback()::input_a_buffer>
    18fe:	83 30       	cpi	r24, 0x03	; 3
    1900:	f1 f4       	brne	.+60     	; 0x193e <__DATA_REGION_LENGTH__+0x13e>
    1902:	c0 91 32 28 	lds	r28, 0x2832	; 0x802832 <Timer_250us_Callback()::calldelta>
    1906:	d0 91 33 28 	lds	r29, 0x2833	; 0x802833 <Timer_250us_Callback()::calldelta+0x1>
digitalRead():
    190a:	85 e0       	ldi	r24, 0x05	; 5
    190c:	0e 94 36 04 	call	0x86c	; 0x86c <digitalRead.part.3>
_Z20Timer_250us_Callbackv():
D:\Projects\190409-DIY_SOLDERING_IRON\Soldering-Station/Soldering-Station.ino:773
  /*  We ssume terminal B as stable
   *  if it is LOW now we moved CW else
   *  CCW
   */
    if( ROTARY_CW_LEVEL == digitalRead( ROTARY_TERM_A )){
    1910:	81 11       	cpse	r24, r1
    1912:	60 c0       	rjmp	.+192    	; 0x19d4 <__DATA_REGION_LENGTH__+0x1d4>
D:\Projects\190409-DIY_SOLDERING_IRON\Soldering-Station/Soldering-Station.ino:774
       if(calldelta < 10) {
    1914:	ca 30       	cpi	r28, 0x0A	; 10
    1916:	d1 05       	cpc	r29, r1
    1918:	70 f0       	brcs	.+28     	; 0x1936 <__DATA_REGION_LENGTH__+0x136>
D:\Projects\190409-DIY_SOLDERING_IRON\Soldering-Station/Soldering-Station.ino:777
         /* We do nothing and ignore it, may bounced */
       } else if(calldelta<50){
        ProcessRotaryEncoderInput(RE_MOVE_LEFT_FAST);
    191a:	84 e0       	ldi	r24, 0x04	; 4
    191c:	90 e0       	ldi	r25, 0x00	; 0
D:\Projects\190409-DIY_SOLDERING_IRON\Soldering-Station/Soldering-Station.ino:776
   *  CCW
   */
    if( ROTARY_CW_LEVEL == digitalRead( ROTARY_TERM_A )){
       if(calldelta < 10) {
         /* We do nothing and ignore it, may bounced */
       } else if(calldelta<50){
    191e:	c2 33       	cpi	r28, 0x32	; 50
    1920:	d1 05       	cpc	r29, r1
    1922:	38 f0       	brcs	.+14     	; 0x1932 <__DATA_REGION_LENGTH__+0x132>
D:\Projects\190409-DIY_SOLDERING_IRON\Soldering-Station/Soldering-Station.ino:779
        ProcessRotaryEncoderInput(RE_MOVE_LEFT_FAST);
      } else if ( calldelta < 250 ){
        ProcessRotaryEncoderInput(RE_MOVE_LEFT_MID);
    1924:	83 e0       	ldi	r24, 0x03	; 3
    1926:	90 e0       	ldi	r25, 0x00	; 0
D:\Projects\190409-DIY_SOLDERING_IRON\Soldering-Station/Soldering-Station.ino:778
    if( ROTARY_CW_LEVEL == digitalRead( ROTARY_TERM_A )){
       if(calldelta < 10) {
         /* We do nothing and ignore it, may bounced */
       } else if(calldelta<50){
        ProcessRotaryEncoderInput(RE_MOVE_LEFT_FAST);
      } else if ( calldelta < 250 ){
    1928:	ca 3f       	cpi	r28, 0xFA	; 250
    192a:	d1 05       	cpc	r29, r1
    192c:	10 f0       	brcs	.+4      	; 0x1932 <__DATA_REGION_LENGTH__+0x132>
D:\Projects\190409-DIY_SOLDERING_IRON\Soldering-Station/Soldering-Station.ino:781
        ProcessRotaryEncoderInput(RE_MOVE_LEFT_MID);
      } else {
       ProcessRotaryEncoderInput(RE_MOVE_LEFT_SLOW); 
    192e:	82 e0       	ldi	r24, 0x02	; 2
    1930:	90 e0       	ldi	r25, 0x00	; 0
    1932:	0e 94 b3 0a 	call	0x1566	; 0x1566 <ProcessRotaryEncoderInput(RotaryEncoderEvent_t)>
D:\Projects\190409-DIY_SOLDERING_IRON\Soldering-Station/Soldering-Station.ino:783
      }
      calldelta=0;
    1936:	10 92 32 28 	sts	0x2832, r1	; 0x802832 <Timer_250us_Callback()::calldelta>
    193a:	10 92 33 28 	sts	0x2833, r1	; 0x802833 <Timer_250us_Callback()::calldelta+0x1>
D:\Projects\190409-DIY_SOLDERING_IRON\Soldering-Station/Soldering-Station.ino:802
      calldelta=0;
    }
    
  }
  /* This is to prevent an interger overflow */
  if(calldelta<UINT16_MAX){
    193e:	80 91 32 28 	lds	r24, 0x2832	; 0x802832 <Timer_250us_Callback()::calldelta>
    1942:	90 91 33 28 	lds	r25, 0x2833	; 0x802833 <Timer_250us_Callback()::calldelta+0x1>
    1946:	8f 3f       	cpi	r24, 0xFF	; 255
    1948:	98 07       	cpc	r25, r24
    194a:	29 f0       	breq	.+10     	; 0x1956 <__DATA_REGION_LENGTH__+0x156>
D:\Projects\190409-DIY_SOLDERING_IRON\Soldering-Station/Soldering-Station.ino:803
    calldelta++;
    194c:	01 96       	adiw	r24, 0x01	; 1
    194e:	80 93 32 28 	sts	0x2832, r24	; 0x802832 <Timer_250us_Callback()::calldelta>
    1952:	90 93 33 28 	sts	0x2833, r25	; 0x802833 <Timer_250us_Callback()::calldelta+0x1>
D:\Projects\190409-DIY_SOLDERING_IRON\Soldering-Station/Soldering-Station.ino:805
  }
}
    1956:	df 91       	pop	r29
    1958:	cf 91       	pop	r28
    195a:	08 95       	ret
faultMonitor():
D:\Projects\190409-DIY_SOLDERING_IRON\Soldering-Station/Soldering-Station.ino:1008
              recovery_delay--;
         }
    } break;

    case WAIT:{
      if(recovery_delay>0){
    195c:	80 91 2e 28 	lds	r24, 0x282E	; 0x80282e <faultMonitor(unsigned char, unsigned int, unsigned int)::recovery_delay>
    1960:	88 23       	and	r24, r24
    1962:	09 f4       	brne	.+2      	; 0x1966 <__DATA_REGION_LENGTH__+0x166>
    1964:	8e cf       	rjmp	.-228    	; 0x1882 <__DATA_REGION_LENGTH__+0x82>
D:\Projects\190409-DIY_SOLDERING_IRON\Soldering-Station/Soldering-Station.ino:1009
              recovery_delay--;
    1966:	81 50       	subi	r24, 0x01	; 1
    1968:	8a cf       	rjmp	.-236    	; 0x187e <__DATA_REGION_LENGTH__+0x7e>
D:\Projects\190409-DIY_SOLDERING_IRON\Soldering-Station/Soldering-Station.ino:1015
         }
    } break;


    case RECOVER:{
      if(recovery_delay>0){
    196a:	80 91 2e 28 	lds	r24, 0x282E	; 0x80282e <faultMonitor(unsigned char, unsigned int, unsigned int)::recovery_delay>
    196e:	88 23       	and	r24, r24
    1970:	41 f0       	breq	.+16     	; 0x1982 <__DATA_REGION_LENGTH__+0x182>
D:\Projects\190409-DIY_SOLDERING_IRON\Soldering-Station/Soldering-Station.ino:1016
        recovery_delay--;
    1972:	81 50       	subi	r24, 0x01	; 1
    1974:	80 93 2e 28 	sts	0x282E, r24	; 0x80282e <faultMonitor(unsigned char, unsigned int, unsigned int)::recovery_delay>
D:\Projects\190409-DIY_SOLDERING_IRON\Soldering-Station/Soldering-Station.ino:1027
    }

    case UNDERVOLTAGE:{

      if(Station.CheckLimits()!=UNDERVOLTAGE){
       state=NOFAULT;
    1978:	10 92 22 28 	sts	0x2822, r1	; 0x802822 <state>
    197c:	10 92 23 28 	sts	0x2823, r1	; 0x802823 <state+0x1>
    1980:	65 cf       	rjmp	.-310    	; 0x184c <__DATA_REGION_LENGTH__+0x4c>
D:\Projects\190409-DIY_SOLDERING_IRON\Soldering-Station/Soldering-Station.ino:1018

    case RECOVER:{
      if(recovery_delay>0){
        recovery_delay--;
      } else {
        failcount=0;
    1982:	10 92 2f 28 	sts	0x282F, r1	; 0x80282f <faultMonitor(unsigned char, unsigned int, unsigned int)::failcount>
D:\Projects\190409-DIY_SOLDERING_IRON\Soldering-Station/Soldering-Station.ino:1019
        state=NOFAULT;
    1986:	10 92 22 28 	sts	0x2822, r1	; 0x802822 <state>
    198a:	10 92 23 28 	sts	0x2823, r1	; 0x802823 <state+0x1>
    198e:	f4 cf       	rjmp	.-24     	; 0x1978 <__DATA_REGION_LENGTH__+0x178>
D:\Projects\190409-DIY_SOLDERING_IRON\Soldering-Station/Soldering-Station.ino:1032
       state=NOFAULT;
       undervoltage_cnt=0;
      }
    } break;
    default:{
      _NOP();
    1990:	00 00       	nop
    1992:	77 cf       	rjmp	.-274    	; 0x1882 <__DATA_REGION_LENGTH__+0x82>
_Z20Timer_250us_Callbackv():
D:\Projects\190409-DIY_SOLDERING_IRON\Soldering-Station/Soldering-Station.ino:728
       } else {
          powerSave_C++;
       }
       faultMonitor( HeatPwr_Percent, Station.Temp.GetLastValue(),setpoint);
   } else {
    onesecond_prescaler++;
    1994:	01 96       	adiw	r24, 0x01	; 1
    1996:	80 93 39 28 	sts	0x2839, r24	; 0x802839 <Timer_250us_Callback()::onesecond_prescaler>
    199a:	90 93 3a 28 	sts	0x283A, r25	; 0x80283a <Timer_250us_Callback()::onesecond_prescaler+0x1>
    199e:	75 cf       	rjmp	.-278    	; 0x188a <__DATA_REGION_LENGTH__+0x8a>
D:\Projects\190409-DIY_SOLDERING_IRON\Soldering-Station/Soldering-Station.ino:736
   //This will gernate 100ms ticks
   if(_100ms_prescaler>=10){
    _100ms_prescaler=0;
  
   } else {
    _100ms_prescaler++;
    19a0:	01 96       	adiw	r24, 0x01	; 1
    19a2:	80 93 35 28 	sts	0x2835, r24	; 0x802835 <Timer_250us_Callback()::_100ms_prescaler>
    19a6:	90 93 36 28 	sts	0x2836, r25	; 0x802836 <Timer_250us_Callback()::_100ms_prescaler+0x1>
    19aa:	7b cf       	rjmp	.-266    	; 0x18a2 <__DATA_REGION_LENGTH__+0xa2>
D:\Projects\190409-DIY_SOLDERING_IRON\Soldering-Station/Soldering-Station.ino:739
   }
  } else {
    ms_prescaler++;
    19ac:	8f 5f       	subi	r24, 0xFF	; 255
    19ae:	80 93 3d 28 	sts	0x283D, r24	; 0x80283d <Timer_250us_Callback()::ms_prescaler>
    19b2:	77 cf       	rjmp	.-274    	; 0x18a2 <__DATA_REGION_LENGTH__+0xa2>
D:\Projects\190409-DIY_SOLDERING_IRON\Soldering-Station/Soldering-Station.ino:751
    if(btn_press_time<UINT16_MAX){
      btn_press_time++;
    }
  } else {
    //We use this to generate Button press events
    if(btn_press_time>200){
    19b4:	80 91 92 28 	lds	r24, 0x2892	; 0x802892 <btn_press_time>
    19b8:	90 91 93 28 	lds	r25, 0x2893	; 0x802893 <btn_press_time+0x1>
    19bc:	89 3c       	cpi	r24, 0xC9	; 201
    19be:	91 05       	cpc	r25, r1
    19c0:	20 f0       	brcs	.+8      	; 0x19ca <__DATA_REGION_LENGTH__+0x1ca>
D:\Projects\190409-DIY_SOLDERING_IRON\Soldering-Station/Soldering-Station.ino:753
      //We generate the button pressed events
      ProcessRotaryEncoderInput(RE_BTN_PRESS_END);
    19c2:	81 e0       	ldi	r24, 0x01	; 1
    19c4:	90 e0       	ldi	r25, 0x00	; 0
    19c6:	0e 94 b3 0a 	call	0x1566	; 0x1566 <ProcessRotaryEncoderInput(RotaryEncoderEvent_t)>
D:\Projects\190409-DIY_SOLDERING_IRON\Soldering-Station/Soldering-Station.ino:755
    }
    btn_press_time=0;
    19ca:	10 92 92 28 	sts	0x2892, r1	; 0x802892 <btn_press_time>
    19ce:	10 92 93 28 	sts	0x2893, r1	; 0x802893 <btn_press_time+0x1>
    19d2:	85 cf       	rjmp	.-246    	; 0x18de <__DATA_REGION_LENGTH__+0xde>
D:\Projects\190409-DIY_SOLDERING_IRON\Soldering-Station/Soldering-Station.ino:787
      }
      calldelta=0;
         
    
    } else {
       if(calldelta < 10) {
    19d4:	ca 30       	cpi	r28, 0x0A	; 10
    19d6:	d1 05       	cpc	r29, r1
    19d8:	08 f4       	brcc	.+2      	; 0x19dc <__DATA_REGION_LENGTH__+0x1dc>
    19da:	ad cf       	rjmp	.-166    	; 0x1936 <__DATA_REGION_LENGTH__+0x136>
D:\Projects\190409-DIY_SOLDERING_IRON\Soldering-Station/Soldering-Station.ino:790
         /* We do nothing and ignore it, may bounced */
       } else if(calldelta<50){
         ProcessRotaryEncoderInput(RE_MOVE_RIGHT_FAST);
    19dc:	87 e0       	ldi	r24, 0x07	; 7
    19de:	90 e0       	ldi	r25, 0x00	; 0
D:\Projects\190409-DIY_SOLDERING_IRON\Soldering-Station/Soldering-Station.ino:789
         
    
    } else {
       if(calldelta < 10) {
         /* We do nothing and ignore it, may bounced */
       } else if(calldelta<50){
    19e0:	c2 33       	cpi	r28, 0x32	; 50
    19e2:	d1 05       	cpc	r29, r1
    19e4:	08 f4       	brcc	.+2      	; 0x19e8 <__DATA_REGION_LENGTH__+0x1e8>
    19e6:	a5 cf       	rjmp	.-182    	; 0x1932 <__DATA_REGION_LENGTH__+0x132>
D:\Projects\190409-DIY_SOLDERING_IRON\Soldering-Station/Soldering-Station.ino:793
         ProcessRotaryEncoderInput(RE_MOVE_RIGHT_FAST);
        
      } else if ( calldelta < 250 ){
        ProcessRotaryEncoderInput(RE_MOVE_RIGHT_MID);
    19e8:	86 e0       	ldi	r24, 0x06	; 6
    19ea:	90 e0       	ldi	r25, 0x00	; 0
D:\Projects\190409-DIY_SOLDERING_IRON\Soldering-Station/Soldering-Station.ino:792
       if(calldelta < 10) {
         /* We do nothing and ignore it, may bounced */
       } else if(calldelta<50){
         ProcessRotaryEncoderInput(RE_MOVE_RIGHT_FAST);
        
      } else if ( calldelta < 250 ){
    19ec:	ca 3f       	cpi	r28, 0xFA	; 250
    19ee:	d1 05       	cpc	r29, r1
    19f0:	08 f4       	brcc	.+2      	; 0x19f4 <__DATA_REGION_LENGTH__+0x1f4>
    19f2:	9f cf       	rjmp	.-194    	; 0x1932 <__DATA_REGION_LENGTH__+0x132>
D:\Projects\190409-DIY_SOLDERING_IRON\Soldering-Station/Soldering-Station.ino:795
        ProcessRotaryEncoderInput(RE_MOVE_RIGHT_MID);
      } else {
        ProcessRotaryEncoderInput(RE_MOVE_RIGHT_SLOW);
    19f4:	85 e0       	ldi	r24, 0x05	; 5
    19f6:	90 e0       	ldi	r25, 0x00	; 0
    19f8:	9c cf       	rjmp	.-200    	; 0x1932 <__DATA_REGION_LENGTH__+0x132>

000019fa <analogReference.constprop.33>:
analogReference.constprop.33():
C:\Users\mathiasc\AppData\Local\Arduino15\packages\MegaCoreX\hardware\megaavr\1.0.4\cores\coreX-corefiles/wiring_analog.c:35
{
  switch (mode)
  {
    case EXTERNAL:
    case VDD:
      ADC0.CTRLC = (ADC0.CTRLC & ~(ADC_REFSEL_gm)) | mode | ADC_SAMPCAP_bm; // Per datasheet, recommended SAMPCAP=1 at ref > 1v - we don't *KNOW* the external reference will be >1v, but it's probably more likely...
    19fa:	e0 e0       	ldi	r30, 0x00	; 0
    19fc:	f6 e0       	ldi	r31, 0x06	; 6
    19fe:	82 81       	ldd	r24, Z+2	; 0x02
    1a00:	8f 7c       	andi	r24, 0xCF	; 207
    1a02:	80 65       	ori	r24, 0x50	; 80
    1a04:	82 83       	std	Z+2, r24	; 0x02
C:\Users\mathiasc\AppData\Local\Arduino15\packages\MegaCoreX\hardware\megaavr\1.0.4\cores\coreX-corefiles/wiring_analog.c:52
      ADC0.CTRLC = (ADC0.CTRLC & ~(ADC_REFSEL_gm)) | INTERNAL | ADC_SAMPCAP_bm; // Per datasheet, recommended SAMPCAP=1 at ref > 1v
      break;
    default:
      ADC0.CTRLC = (ADC0.CTRLC & ~(ADC_REFSEL_gm)) | VDD | ADC_SAMPCAP_bm; // Per datasheet, recommended SAMPCAP=1 at ref > 1v - we don't *KNOW* the external reference will be >1v, but it's probably more likely...
  }
}
    1a06:	08 95       	ret

00001a08 <TM1637::displayStr(char*, unsigned int) [clone .constprop.27]>:
_ZN6TM163710displayStrEPcj.constprop.27():
C:\Users\mathiasc\Documents\Arduino\libraries\Grove_4-Digit_Display/TM1637.cpp:255
    } else {
        point(false);
    }
}

void TM1637::displayStr(char str[], uint16_t loop_delay) {
    1a08:	ef 92       	push	r14
    1a0a:	ff 92       	push	r15
    1a0c:	0f 93       	push	r16
    1a0e:	1f 93       	push	r17
    1a10:	cf 93       	push	r28
    1a12:	df 93       	push	r29
    1a14:	7c 01       	movw	r14, r24
C:\Users\mathiasc\Documents\Arduino\libraries\Grove_4-Digit_Display/TM1637.cpp:256
    for (int i = 0; i < strlen(str); i++) {
    1a16:	10 e0       	ldi	r17, 0x00	; 0
    1a18:	00 e0       	ldi	r16, 0x00	; 0
    1a1a:	e7 01       	movw	r28, r14
    1a1c:	09 90       	ld	r0, Y+
    1a1e:	00 20       	and	r0, r0
    1a20:	e9 f7       	brne	.-6      	; 0x1a1c <TM1637::displayStr(char*, unsigned int) [clone .constprop.27]+0x14>
    1a22:	21 97       	sbiw	r28, 0x01	; 1
    1a24:	ce 19       	sub	r28, r14
    1a26:	df 09       	sbc	r29, r15
    1a28:	80 91 48 29 	lds	r24, 0x2948	; 0x802948 <tm1637+0x4>
    1a2c:	90 91 49 29 	lds	r25, 0x2949	; 0x802949 <tm1637+0x5>
    1a30:	0c 17       	cp	r16, r28
    1a32:	1d 07       	cpc	r17, r29
    1a34:	58 f5       	brcc	.+86     	; 0x1a8c <TM1637::displayStr(char*, unsigned int) [clone .constprop.27]+0x84>
C:\Users\mathiasc\Documents\Arduino\libraries\Grove_4-Digit_Display/TM1637.cpp:257
        if (i + 1 > DIGITS) {
    1a36:	08 17       	cp	r16, r24
    1a38:	19 07       	cpc	r17, r25
    1a3a:	f4 f0       	brlt	.+60     	; 0x1a78 <TM1637::displayStr(char*, unsigned int) [clone .constprop.27]+0x70>
C:\Users\mathiasc\Documents\Arduino\libraries\Grove_4-Digit_Display/TM1637.cpp:258
            delay(loop_delay); //loop delay
    1a3c:	64 ef       	ldi	r22, 0xF4	; 244
    1a3e:	71 e0       	ldi	r23, 0x01	; 1
    1a40:	80 e0       	ldi	r24, 0x00	; 0
    1a42:	90 e0       	ldi	r25, 0x00	; 0
    1a44:	0e 94 5a 06 	call	0xcb4	; 0xcb4 <delay>
    1a48:	d0 e0       	ldi	r29, 0x00	; 0
    1a4a:	c0 e0       	ldi	r28, 0x00	; 0
    1a4c:	9e 01       	movw	r18, r28
C:\Users\mathiasc\Documents\Arduino\libraries\Grove_4-Digit_Display/TM1637.cpp:259
            for (int d = 0; d < DIGITS; d++) {
    1a4e:	80 91 48 29 	lds	r24, 0x2948	; 0x802948 <tm1637+0x4>
    1a52:	90 91 49 29 	lds	r25, 0x2949	; 0x802949 <tm1637+0x5>
    1a56:	21 96       	adiw	r28, 0x01	; 1
    1a58:	28 17       	cp	r18, r24
    1a5a:	39 07       	cpc	r19, r25
    1a5c:	a4 f4       	brge	.+40     	; 0x1a86 <TM1637::displayStr(char*, unsigned int) [clone .constprop.27]+0x7e>
C:\Users\mathiasc\Documents\Arduino\libraries\Grove_4-Digit_Display/TM1637.cpp:260
                display(d, str[d + i + 1 - DIGITS]); //loop display
    1a5e:	f8 01       	movw	r30, r16
    1a60:	ec 0f       	add	r30, r28
    1a62:	fd 1f       	adc	r31, r29
    1a64:	e8 1b       	sub	r30, r24
    1a66:	f9 0b       	sbc	r31, r25
    1a68:	ee 0d       	add	r30, r14
    1a6a:	ff 1d       	adc	r31, r15
    1a6c:	60 81       	ld	r22, Z
    1a6e:	8c 2f       	mov	r24, r28
    1a70:	81 50       	subi	r24, 0x01	; 1
    1a72:	0e 94 c8 04 	call	0x990	; 0x990 <TM1637::display(unsigned char, signed char) [clone .constprop.55]>
    1a76:	ea cf       	rjmp	.-44     	; 0x1a4c <TM1637::displayStr(char*, unsigned int) [clone .constprop.27]+0x44>
C:\Users\mathiasc\Documents\Arduino\libraries\Grove_4-Digit_Display/TM1637.cpp:263
            }
        } else {
            display(i, str[i]);
    1a78:	f7 01       	movw	r30, r14
    1a7a:	e0 0f       	add	r30, r16
    1a7c:	f1 1f       	adc	r31, r17
    1a7e:	60 81       	ld	r22, Z
    1a80:	80 2f       	mov	r24, r16
    1a82:	0e 94 c8 04 	call	0x990	; 0x990 <TM1637::display(unsigned char, signed char) [clone .constprop.55]>
C:\Users\mathiasc\Documents\Arduino\libraries\Grove_4-Digit_Display/TM1637.cpp:256
        point(false);
    }
}

void TM1637::displayStr(char str[], uint16_t loop_delay) {
    for (int i = 0; i < strlen(str); i++) {
    1a86:	0f 5f       	subi	r16, 0xFF	; 255
    1a88:	1f 4f       	sbci	r17, 0xFF	; 255
    1a8a:	c7 cf       	rjmp	.-114    	; 0x1a1a <TM1637::displayStr(char*, unsigned int) [clone .constprop.27]+0x12>
C:\Users\mathiasc\Documents\Arduino\libraries\Grove_4-Digit_Display/TM1637.cpp:268
            display(i, str[i]);
        }
    }

    // display nothing
    for (int i = strlen(str); i < DIGITS; i++) {
    1a8c:	80 91 48 29 	lds	r24, 0x2948	; 0x802948 <tm1637+0x4>
    1a90:	90 91 49 29 	lds	r25, 0x2949	; 0x802949 <tm1637+0x5>
    1a94:	c8 17       	cp	r28, r24
    1a96:	d9 07       	cpc	r29, r25
    1a98:	34 f4       	brge	.+12     	; 0x1aa6 <TM1637::displayStr(char*, unsigned int) [clone .constprop.27]+0x9e>
C:\Users\mathiasc\Documents\Arduino\libraries\Grove_4-Digit_Display/TM1637.cpp:269
        display(i, 0x7f);
    1a9a:	6f e7       	ldi	r22, 0x7F	; 127
    1a9c:	8c 2f       	mov	r24, r28
    1a9e:	0e 94 c8 04 	call	0x990	; 0x990 <TM1637::display(unsigned char, signed char) [clone .constprop.55]>
C:\Users\mathiasc\Documents\Arduino\libraries\Grove_4-Digit_Display/TM1637.cpp:268
            display(i, str[i]);
        }
    }

    // display nothing
    for (int i = strlen(str); i < DIGITS; i++) {
    1aa2:	21 96       	adiw	r28, 0x01	; 1
    1aa4:	f3 cf       	rjmp	.-26     	; 0x1a8c <TM1637::displayStr(char*, unsigned int) [clone .constprop.27]+0x84>
C:\Users\mathiasc\Documents\Arduino\libraries\Grove_4-Digit_Display/TM1637.cpp:271
        display(i, 0x7f);
    }
}
    1aa6:	df 91       	pop	r29
    1aa8:	cf 91       	pop	r28
    1aaa:	1f 91       	pop	r17
    1aac:	0f 91       	pop	r16
    1aae:	ff 90       	pop	r15
    1ab0:	ef 90       	pop	r14
    1ab2:	08 95       	ret

00001ab4 <FE_190409::display_show_sleep(unsigned int)>:
_ZN9FE_19040918display_show_sleepEj():
C:\Users\mathiasc\Documents\Arduino\libraries\Grove_4-Digit_Display/TM1637.cpp:291
}

// Whether to light the clock point ":".
// To take effect the next time it displays.
void TM1637::point(boolean PointFlag) {
    _PointFlag = PointFlag;
    1ab4:	10 92 47 29 	sts	0x2947, r1	; 0x802947 <tm1637+0x3>
C:\Users\mathiasc\AppData\Local\Temp\arduino_build_312787\sketch/frontend_190408.cpp:263
 Discription: Displays the sleep animaton, depending on the timestamp
**********************************************************************************************************/
void FE_190409::display_show_sleep( uint16_t timestamp){

  tm1637.point(false);
  tm1637.displayStr("----");
    1ab8:	87 ee       	ldi	r24, 0xE7	; 231
    1aba:	9b e7       	ldi	r25, 0x7B	; 123
    1abc:	0c 94 04 0d 	jmp	0x1a08	; 0x1a08 <TM1637::displayStr(char*, unsigned int) [clone .constprop.27]>

00001ac0 <display_Sleep()>:
_Z13display_Sleepv():
D:\Projects\190409-DIY_SOLDERING_IRON\Soldering-Station/Soldering-Station.ino:681
 Output:      None
 Description: This will show the screensaver
 *************************************************************************************************************/    
void display_Sleep()
{
      PWM_Off();     //switch PWM off until rotary switch is pressed
    1ac0:	0e 94 ce 09 	call	0x139c	; 0x139c <PWM_Off()>
D:\Projects\190409-DIY_SOLDERING_IRON\Soldering-Station/Soldering-Station.ino:683
      /* Update display */
      Station.Frontend.display_show_sleep(timestamp);
    1ac4:	60 91 9c 28 	lds	r22, 0x289C	; 0x80289c <timestamp>
    1ac8:	70 91 9d 28 	lds	r23, 0x289D	; 0x80289d <timestamp+0x1>
    1acc:	8a e5       	ldi	r24, 0x5A	; 90
    1ace:	99 e2       	ldi	r25, 0x29	; 41
    1ad0:	0e 94 5a 0d 	call	0x1ab4	; 0x1ab4 <FE_190409::display_show_sleep(unsigned int)>
D:\Projects\190409-DIY_SOLDERING_IRON\Soldering-Station/Soldering-Station.ino:685
      /* End of update */
      Station.Temp.Read(ADC_AVG); /* we now can safe read the temperatur */
    1ad4:	0c 94 95 07 	jmp	0xf2a	; 0xf2a <TEMP_190409::Read(unsigned char) [clone .constprop.34]>

00001ad8 <FE_190409::display_show_TempError(unsigned char)>:
_ZN9FE_19040922display_show_TempErrorEh():
C:\Users\mathiasc\AppData\Local\Temp\arduino_build_312787\sketch/frontend_190408.cpp:220
 Function:    void display_show_TempError()
 Input:       uint8_t ErrNo
 Output:      None
 Discription: Shows the temperaturerror screen
**********************************************************************************************************/
void FE_190409::display_show_TempError(uint8_t ErrNo){
    1ad8:	cf 93       	push	r28
    1ada:	df 93       	push	r29
    1adc:	cd b7       	in	r28, 0x3d	; 61
    1ade:	de b7       	in	r29, 0x3e	; 62
    1ae0:	25 97       	sbiw	r28, 0x05	; 5
    1ae2:	cd bf       	out	0x3d, r28	; 61
    1ae4:	de bf       	out	0x3e, r29	; 62
    1ae6:	86 2f       	mov	r24, r22
C:\Users\mathiasc\AppData\Local\Temp\arduino_build_312787\sketch/frontend_190408.cpp:221
    char err_str[] = "E-0 ";
    1ae8:	95 e0       	ldi	r25, 0x05	; 5
    1aea:	e7 ea       	ldi	r30, 0xA7	; 167
    1aec:	f8 e7       	ldi	r31, 0x78	; 120
    1aee:	de 01       	movw	r26, r28
    1af0:	11 96       	adiw	r26, 0x01	; 1
    1af2:	01 90       	ld	r0, Z+
    1af4:	0d 92       	st	X+, r0
    1af6:	9a 95       	dec	r25
    1af8:	e1 f7       	brne	.-8      	; 0x1af2 <FE_190409::display_show_TempError(unsigned char)+0x1a>
    1afa:	20 e3       	ldi	r18, 0x30	; 48
    1afc:	26 0f       	add	r18, r22
C:\Users\mathiasc\AppData\Local\Temp\arduino_build_312787\sketch/frontend_190408.cpp:222
    if(ErrNo<10){
    1afe:	6a 30       	cpi	r22, 0x0A	; 10
    1b00:	68 f4       	brcc	.+26     	; 0x1b1c <FE_190409::display_show_TempError(unsigned char)+0x44>
C:\Users\mathiasc\AppData\Local\Temp\arduino_build_312787\sketch/frontend_190408.cpp:228
        err_str[3]=48+ErrNo;
    } else {
        uint8_t ten = ErrNo / 10;
        uint8_t sgl = ErrNo - ( 10 * ten );
        err_str[2]=48+ten;
        err_str[3]=48+sgl;
    1b02:	2c 83       	std	Y+4, r18	; 0x04
point():
C:\Users\mathiasc\Documents\Arduino\libraries\Grove_4-Digit_Display/TM1637.cpp:291
    1b04:	10 92 47 29 	sts	0x2947, r1	; 0x802947 <tm1637+0x3>
_ZN9FE_19040922display_show_TempErrorEh():
C:\Users\mathiasc\AppData\Local\Temp\arduino_build_312787\sketch/frontend_190408.cpp:233

        
    }
    tm1637.point(false);       
    tm1637.displayStr(err_str);
    1b08:	ce 01       	movw	r24, r28
    1b0a:	01 96       	adiw	r24, 0x01	; 1
    1b0c:	0e 94 04 0d 	call	0x1a08	; 0x1a08 <TM1637::displayStr(char*, unsigned int) [clone .constprop.27]>
C:\Users\mathiasc\AppData\Local\Temp\arduino_build_312787\sketch/frontend_190408.cpp:235

}
    1b10:	25 96       	adiw	r28, 0x05	; 5
    1b12:	cd bf       	out	0x3d, r28	; 61
    1b14:	de bf       	out	0x3e, r29	; 62
    1b16:	df 91       	pop	r29
    1b18:	cf 91       	pop	r28
    1b1a:	08 95       	ret
C:\Users\mathiasc\AppData\Local\Temp\arduino_build_312787\sketch/frontend_190408.cpp:225
void FE_190409::display_show_TempError(uint8_t ErrNo){
    char err_str[] = "E-0 ";
    if(ErrNo<10){
        err_str[3]=48+ErrNo;
    } else {
        uint8_t ten = ErrNo / 10;
    1b1c:	6a e0       	ldi	r22, 0x0A	; 10
    1b1e:	0e 94 02 1b 	call	0x3604	; 0x3604 <__udivmodqi4>
C:\Users\mathiasc\AppData\Local\Temp\arduino_build_312787\sketch/frontend_190408.cpp:227
        uint8_t sgl = ErrNo - ( 10 * ten );
        err_str[2]=48+ten;
    1b22:	90 e3       	ldi	r25, 0x30	; 48
    1b24:	98 0f       	add	r25, r24
    1b26:	9b 83       	std	Y+3, r25	; 0x03
C:\Users\mathiasc\AppData\Local\Temp\arduino_build_312787\sketch/frontend_190408.cpp:228
        err_str[3]=48+sgl;
    1b28:	96 ef       	ldi	r25, 0xF6	; 246
    1b2a:	89 9f       	mul	r24, r25
    1b2c:	20 0d       	add	r18, r0
    1b2e:	11 24       	eor	r1, r1
    1b30:	e8 cf       	rjmp	.-48     	; 0x1b02 <FE_190409::display_show_TempError(unsigned char)+0x2a>

00001b32 <FE_190409::display_title()>:
_ZN9FE_19040913display_titleEv():
C:\Users\mathiasc\AppData\Local\Temp\arduino_build_312787\sketch/frontend_190408.cpp:70
 Input:       None
 Output:      None
 Discription: Shows the welcome title
**********************************************************************************************************/
void FE_190409::display_title( void ){
        tm1637.displayStr("boot");
    1b32:	8c ea       	ldi	r24, 0xAC	; 172
    1b34:	98 e7       	ldi	r25, 0x78	; 120
    1b36:	0c 94 04 0d 	jmp	0x1a08	; 0x1a08 <TM1637::displayStr(char*, unsigned int) [clone .constprop.27]>

00001b3a <FE_190409::display_welcome_logo()>:
_ZN9FE_19040920display_welcome_logoEv():
C:\Users\mathiasc\AppData\Local\Temp\arduino_build_312787\sketch/frontend_190408.cpp:58
 Input:       None
 Output:      None
 Discription: Shows the welcome logo
**********************************************************************************************************/
void FE_190409::display_welcome_logo( void ) {
    tm1637.displayStr("F1_7");
    1b3a:	81 eb       	ldi	r24, 0xB1	; 177
    1b3c:	98 e7       	ldi	r25, 0x78	; 120
    1b3e:	0c 94 04 0d 	jmp	0x1a08	; 0x1a08 <TM1637::displayStr(char*, unsigned int) [clone .constprop.27]>

00001b42 <Print::write(char const*) [clone .part.2] [clone .constprop.22]>:
_ZN5Print5writeEPKc.part.2.constprop.22():
C:\Users\mathiasc\AppData\Local\Arduino15\packages\MegaCoreX\hardware\megaavr\1.0.4\cores\coreX-corefiles\api/Print.h:49
    void clearWriteError() { setWriteError(0); }

    virtual size_t write(uint8_t) = 0;
    size_t write(const char *str) {
      if (str == NULL) return 0;
      return write((const uint8_t *)str, strlen(str));
    1b42:	fc 01       	movw	r30, r24
    1b44:	01 90       	ld	r0, Z+
    1b46:	00 20       	and	r0, r0
    1b48:	e9 f7       	brne	.-6      	; 0x1b44 <Print::write(char const*) [clone .part.2] [clone .constprop.22]+0x2>
    1b4a:	31 97       	sbiw	r30, 0x01	; 1
    1b4c:	af 01       	movw	r20, r30
    1b4e:	48 1b       	sub	r20, r24
    1b50:	59 0b       	sbc	r21, r25
    1b52:	bc 01       	movw	r22, r24
    1b54:	87 ea       	ldi	r24, 0xA7	; 167
    1b56:	98 e2       	ldi	r25, 0x28	; 40
    1b58:	0c 94 37 01 	jmp	0x26e	; 0x26e <Print::write(unsigned char const*, unsigned int)>

00001b5c <Print::printNumber(unsigned long, unsigned char) [clone .constprop.17]>:
_ZN5Print11printNumberEmh.constprop.17():
C:\Users\mathiasc\AppData\Local\Arduino15\packages\MegaCoreX\hardware\megaavr\1.0.4\cores\coreX-corefiles\api/Print.cpp:245
  return vfprintf_P(&f, (const char *)format, ap);
}

// Private Methods /////////////////////////////////////////////////////////////

size_t Print::printNumber(unsigned long n, uint8_t base)
    1b5c:	8f 92       	push	r8
    1b5e:	9f 92       	push	r9
    1b60:	af 92       	push	r10
    1b62:	bf 92       	push	r11
    1b64:	0f 93       	push	r16
    1b66:	1f 93       	push	r17
    1b68:	cf 93       	push	r28
    1b6a:	df 93       	push	r29
    1b6c:	cd b7       	in	r28, 0x3d	; 61
    1b6e:	de b7       	in	r29, 0x3e	; 62
    1b70:	a1 97       	sbiw	r28, 0x21	; 33
    1b72:	cd bf       	out	0x3d, r28	; 61
    1b74:	de bf       	out	0x3e, r29	; 62
C:\Users\mathiasc\AppData\Local\Arduino15\packages\MegaCoreX\hardware\megaavr\1.0.4\cores\coreX-corefiles\api/Print.cpp:250
{
  char buf[8 * sizeof(long) + 1]; // Assumes 8-bit chars plus zero byte.
  char *str = &buf[sizeof(buf) - 1];

  *str = '\0';
    1b76:	19 a2       	std	Y+33, r1	; 0x21
C:\Users\mathiasc\AppData\Local\Arduino15\packages\MegaCoreX\hardware\megaavr\1.0.4\cores\coreX-corefiles\api/Print.cpp:253

  // prevent crash if called with base == 1
  if (base < 2) base = 10;
    1b78:	42 30       	cpi	r20, 0x02	; 2
    1b7a:	08 f4       	brcc	.+2      	; 0x1b7e <Print::printNumber(unsigned long, unsigned char) [clone .constprop.17]+0x22>
    1b7c:	4a e0       	ldi	r20, 0x0A	; 10
    1b7e:	8e 01       	movw	r16, r28
    1b80:	0f 5d       	subi	r16, 0xDF	; 223
    1b82:	1f 4f       	sbci	r17, 0xFF	; 255
C:\Users\mathiasc\AppData\Local\Arduino15\packages\MegaCoreX\hardware\megaavr\1.0.4\cores\coreX-corefiles\api/Print.cpp:257

  do
  {
    char c = n % base;
    1b84:	84 2e       	mov	r8, r20
    1b86:	91 2c       	mov	r9, r1
    1b88:	b1 2c       	mov	r11, r1
    1b8a:	a1 2c       	mov	r10, r1
    1b8c:	a5 01       	movw	r20, r10
    1b8e:	94 01       	movw	r18, r8
    1b90:	0e 94 22 1b 	call	0x3644	; 0x3644 <__udivmodsi4>
    1b94:	e6 2f       	mov	r30, r22
C:\Users\mathiasc\AppData\Local\Arduino15\packages\MegaCoreX\hardware\megaavr\1.0.4\cores\coreX-corefiles\api/Print.cpp:258
    n /= base;
    1b96:	b9 01       	movw	r22, r18
    1b98:	ca 01       	movw	r24, r20
C:\Users\mathiasc\AppData\Local\Arduino15\packages\MegaCoreX\hardware\megaavr\1.0.4\cores\coreX-corefiles\api/Print.cpp:260

    *--str = c < 10 ? c + '0' : c + 'A' - 10;
    1b9a:	ea 30       	cpi	r30, 0x0A	; 10
    1b9c:	dc f4       	brge	.+54     	; 0x1bd4 <Print::printNumber(unsigned long, unsigned char) [clone .constprop.17]+0x78>
    1b9e:	e0 5d       	subi	r30, 0xD0	; 208
    1ba0:	d8 01       	movw	r26, r16
    1ba2:	ee 93       	st	-X, r30
    1ba4:	8d 01       	movw	r16, r26
C:\Users\mathiasc\AppData\Local\Arduino15\packages\MegaCoreX\hardware\megaavr\1.0.4\cores\coreX-corefiles\api/Print.cpp:261
  } while (n);
    1ba6:	23 2b       	or	r18, r19
    1ba8:	24 2b       	or	r18, r20
    1baa:	25 2b       	or	r18, r21
    1bac:	79 f7       	brne	.-34     	; 0x1b8c <Print::printNumber(unsigned long, unsigned char) [clone .constprop.17]+0x30>
C:\Users\mathiasc\AppData\Local\Arduino15\packages\MegaCoreX\hardware\megaavr\1.0.4\cores\coreX-corefiles\api/Print.h:48
    int getWriteError() { return write_error; }
    void clearWriteError() { setWriteError(0); }

    virtual size_t write(uint8_t) = 0;
    size_t write(const char *str) {
      if (str == NULL) return 0;
    1bae:	90 e0       	ldi	r25, 0x00	; 0
    1bb0:	80 e0       	ldi	r24, 0x00	; 0
write():
    1bb2:	10 97       	sbiw	r26, 0x00	; 0
    1bb4:	19 f0       	breq	.+6      	; 0x1bbc <Print::printNumber(unsigned long, unsigned char) [clone .constprop.17]+0x60>
    1bb6:	cd 01       	movw	r24, r26
    1bb8:	0e 94 a1 0d 	call	0x1b42	; 0x1b42 <Print::write(char const*) [clone .part.2] [clone .constprop.22]>
_ZN5Print11printNumberEmh.constprop.17():
C:\Users\mathiasc\AppData\Local\Arduino15\packages\MegaCoreX\hardware\megaavr\1.0.4\cores\coreX-corefiles\api/Print.cpp:264

  return write(str);
}
    1bbc:	a1 96       	adiw	r28, 0x21	; 33
    1bbe:	cd bf       	out	0x3d, r28	; 61
    1bc0:	de bf       	out	0x3e, r29	; 62
    1bc2:	df 91       	pop	r29
    1bc4:	cf 91       	pop	r28
    1bc6:	1f 91       	pop	r17
    1bc8:	0f 91       	pop	r16
    1bca:	bf 90       	pop	r11
    1bcc:	af 90       	pop	r10
    1bce:	9f 90       	pop	r9
    1bd0:	8f 90       	pop	r8
    1bd2:	08 95       	ret
C:\Users\mathiasc\AppData\Local\Arduino15\packages\MegaCoreX\hardware\megaavr\1.0.4\cores\coreX-corefiles\api/Print.cpp:260
  do
  {
    char c = n % base;
    n /= base;

    *--str = c < 10 ? c + '0' : c + 'A' - 10;
    1bd4:	e9 5c       	subi	r30, 0xC9	; 201
    1bd6:	e4 cf       	rjmp	.-56     	; 0x1ba0 <Print::printNumber(unsigned long, unsigned char) [clone .constprop.17]+0x44>

00001bd8 <Print::print(int, int) [clone .constprop.6]>:
_ZN5Print5printEii.constprop.6():
C:\Users\mathiasc\AppData\Local\Arduino15\packages\MegaCoreX\hardware\megaavr\1.0.4\cores\coreX-corefiles\api/Print.cpp:82
size_t Print::print(unsigned char b, int base)
{
  return print((unsigned long)b, base);
}

size_t Print::print(int n, int base)
    1bd8:	cf 92       	push	r12
    1bda:	df 92       	push	r13
    1bdc:	ef 92       	push	r14
    1bde:	ff 92       	push	r15
    1be0:	cf 93       	push	r28
    1be2:	df 93       	push	r29
C:\Users\mathiasc\AppData\Local\Arduino15\packages\MegaCoreX\hardware\megaavr\1.0.4\cores\coreX-corefiles\api/Print.cpp:84
{
  return print((long)n, base);
    1be4:	6c 01       	movw	r12, r24
    1be6:	99 0f       	add	r25, r25
    1be8:	ee 08       	sbc	r14, r14
    1bea:	ff 08       	sbc	r15, r15
print():
C:\Users\mathiasc\AppData\Local\Arduino15\packages\MegaCoreX\hardware\megaavr\1.0.4\cores\coreX-corefiles\api/Print.cpp:100
  {
    return write(n);
  }
  else if (base == 10)
  {
    if (n < 0)
    1bec:	f7 fe       	sbrs	r15, 7
    1bee:	19 c0       	rjmp	.+50     	; 0x1c22 <Print::print(int, int) [clone .constprop.6]+0x4a>
C:\Users\mathiasc\AppData\Local\Arduino15\packages\MegaCoreX\hardware\megaavr\1.0.4\cores\coreX-corefiles\api/Print.cpp:74
  return write(str);
}

size_t Print::print(char c)
{
  return write(c);
    1bf0:	6d e2       	ldi	r22, 0x2D	; 45
    1bf2:	87 ea       	ldi	r24, 0xA7	; 167
    1bf4:	98 e2       	ldi	r25, 0x28	; 40
    1bf6:	0e 94 37 02 	call	0x46e	; 0x46e <UartClass::write(unsigned char)>
    1bfa:	ec 01       	movw	r28, r24
C:\Users\mathiasc\AppData\Local\Arduino15\packages\MegaCoreX\hardware\megaavr\1.0.4\cores\coreX-corefiles\api/Print.cpp:103
  else if (base == 10)
  {
    if (n < 0)
    {
      int t = print('-');
      n = -n;
    1bfc:	66 27       	eor	r22, r22
    1bfe:	77 27       	eor	r23, r23
    1c00:	cb 01       	movw	r24, r22
    1c02:	6c 19       	sub	r22, r12
    1c04:	7d 09       	sbc	r23, r13
    1c06:	8e 09       	sbc	r24, r14
    1c08:	9f 09       	sbc	r25, r15
C:\Users\mathiasc\AppData\Local\Arduino15\packages\MegaCoreX\hardware\megaavr\1.0.4\cores\coreX-corefiles\api/Print.cpp:104
      return printNumber(n, 10) + t;
    1c0a:	4a e0       	ldi	r20, 0x0A	; 10
    1c0c:	0e 94 ae 0d 	call	0x1b5c	; 0x1b5c <Print::printNumber(unsigned long, unsigned char) [clone .constprop.17]>
    1c10:	8c 0f       	add	r24, r28
    1c12:	9d 1f       	adc	r25, r29
_ZN5Print5printEii.constprop.6():
C:\Users\mathiasc\AppData\Local\Arduino15\packages\MegaCoreX\hardware\megaavr\1.0.4\cores\coreX-corefiles\api/Print.cpp:85
}

size_t Print::print(int n, int base)
{
  return print((long)n, base);
}
    1c14:	df 91       	pop	r29
    1c16:	cf 91       	pop	r28
    1c18:	ff 90       	pop	r15
    1c1a:	ef 90       	pop	r14
    1c1c:	df 90       	pop	r13
    1c1e:	cf 90       	pop	r12
    1c20:	08 95       	ret
print():
C:\Users\mathiasc\AppData\Local\Arduino15\packages\MegaCoreX\hardware\megaavr\1.0.4\cores\coreX-corefiles\api/Print.cpp:106
    {
      int t = print('-');
      n = -n;
      return printNumber(n, 10) + t;
    }
    return printNumber(n, 10);
    1c22:	4a e0       	ldi	r20, 0x0A	; 10
    1c24:	c7 01       	movw	r24, r14
    1c26:	b6 01       	movw	r22, r12
_ZN5Print5printEii.constprop.6():
C:\Users\mathiasc\AppData\Local\Arduino15\packages\MegaCoreX\hardware\megaavr\1.0.4\cores\coreX-corefiles\api/Print.cpp:85
}

size_t Print::print(int n, int base)
{
  return print((long)n, base);
}
    1c28:	df 91       	pop	r29
    1c2a:	cf 91       	pop	r28
    1c2c:	ff 90       	pop	r15
    1c2e:	ef 90       	pop	r14
    1c30:	df 90       	pop	r13
    1c32:	cf 90       	pop	r12
print():
C:\Users\mathiasc\AppData\Local\Arduino15\packages\MegaCoreX\hardware\megaavr\1.0.4\cores\coreX-corefiles\api/Print.cpp:106
    {
      int t = print('-');
      n = -n;
      return printNumber(n, 10) + t;
    }
    return printNumber(n, 10);
    1c34:	0c 94 ae 0d 	jmp	0x1b5c	; 0x1b5c <Print::printNumber(unsigned long, unsigned char) [clone .constprop.17]>

00001c38 <Print::println(char const*) [clone .constprop.19]>:
_ZN5Print7printlnEPKc.constprop.19():
C:\Users\mathiasc\AppData\Local\Arduino15\packages\MegaCoreX\hardware\megaavr\1.0.4\cores\coreX-corefiles\api/Print.cpp:151
  size_t n = print(s);
  n += println();
  return n;
}

size_t Print::println(const char c[])
    1c38:	cf 93       	push	r28
    1c3a:	df 93       	push	r29
write():
    1c3c:	0e 94 a1 0d 	call	0x1b42	; 0x1b42 <Print::write(char const*) [clone .part.2] [clone .constprop.22]>
    1c40:	ec 01       	movw	r28, r24
    1c42:	86 eb       	ldi	r24, 0xB6	; 182
    1c44:	98 e7       	ldi	r25, 0x78	; 120
    1c46:	0e 94 a1 0d 	call	0x1b42	; 0x1b42 <Print::write(char const*) [clone .part.2] [clone .constprop.22]>
_ZN5Print7printlnEPKc.constprop.19():
C:\Users\mathiasc\AppData\Local\Arduino15\packages\MegaCoreX\hardware\megaavr\1.0.4\cores\coreX-corefiles\api/Print.cpp:156
{
  size_t n = print(c);
  n += println();
  return n;
}
    1c4a:	8c 0f       	add	r24, r28
    1c4c:	9d 1f       	adc	r25, r29
    1c4e:	df 91       	pop	r29
    1c50:	cf 91       	pop	r28
    1c52:	08 95       	ret

00001c54 <Print::print(char const*) [clone .constprop.12]>:
_ZN5Print5printEPKc.constprop.12():
C:\Users\mathiasc\AppData\Local\Arduino15\packages\MegaCoreX\hardware\megaavr\1.0.4\cores\coreX-corefiles\api/Print.cpp:67
size_t Print::print(const String &s)
{
  return write(s.c_str(), s.length());
}

size_t Print::print(const char str[])
    1c54:	0c 94 a1 0d 	jmp	0x1b42	; 0x1b42 <Print::write(char const*) [clone .part.2] [clone .constprop.22]>

00001c58 <PrintErrorLocation(unsigned char, unsigned char)>:
_Z18PrintErrorLocationhh():
C:\Users\mathiasc\AppData\Local\Temp\arduino_build_312787\sketch/serialcli.cpp:129
 Function:    void PrintErrorLocation()
 Input:       uint8_t startidx, uint8_t current_index 
 Output:      None 
 Description: Show the location of a parsing error
**********************************************************************************************************/
void PrintErrorLocation(uint8_t startidx, uint8_t current_index  ){
    1c58:	0f 93       	push	r16
    1c5a:	1f 93       	push	r17
    1c5c:	cf 93       	push	r28
    1c5e:	df 93       	push	r29
    1c60:	c8 2f       	mov	r28, r24
    1c62:	d6 2f       	mov	r29, r22
C:\Users\mathiasc\AppData\Local\Temp\arduino_build_312787\sketch/serialcli.cpp:130
          Serial.print(F(" Syntax error near:\""));
    1c64:	89 eb       	ldi	r24, 0xB9	; 185
    1c66:	98 e7       	ldi	r25, 0x78	; 120
    1c68:	0e 94 2a 0e 	call	0x1c54	; 0x1c54 <Print::print(char const*) [clone .constprop.12]>
    1c6c:	0c 2f       	mov	r16, r28
    1c6e:	10 e0       	ldi	r17, 0x00	; 0
    1c70:	08 5b       	subi	r16, 0xB8	; 184
    1c72:	17 4d       	sbci	r17, 0xD7	; 215
C:\Users\mathiasc\AppData\Local\Temp\arduino_build_312787\sketch/serialcli.cpp:131
                        for(uint8_t c = startidx;c<current_index;c++){
    1c74:	cd 17       	cp	r28, r29
    1c76:	a0 f4       	brcc	.+40     	; 0x1ca0 <PrintErrorLocation(unsigned char, unsigned char)+0x48>
C:\Users\mathiasc\AppData\Local\Temp\arduino_build_312787\sketch/serialcli.cpp:132
                            if( msgbuffer[c]=='\n' ) {
    1c78:	f8 01       	movw	r30, r16
    1c7a:	61 91       	ld	r22, Z+
    1c7c:	8f 01       	movw	r16, r30
C:\Users\mathiasc\AppData\Local\Temp\arduino_build_312787\sketch/serialcli.cpp:133
                                Serial.print(F("[NEW LINE]"));
    1c7e:	8e ec       	ldi	r24, 0xCE	; 206
    1c80:	98 e7       	ldi	r25, 0x78	; 120
C:\Users\mathiasc\AppData\Local\Temp\arduino_build_312787\sketch/serialcli.cpp:132
 Description: Show the location of a parsing error
**********************************************************************************************************/
void PrintErrorLocation(uint8_t startidx, uint8_t current_index  ){
          Serial.print(F(" Syntax error near:\""));
                        for(uint8_t c = startidx;c<current_index;c++){
                            if( msgbuffer[c]=='\n' ) {
    1c82:	6a 30       	cpi	r22, 0x0A	; 10
    1c84:	21 f0       	breq	.+8      	; 0x1c8e <PrintErrorLocation(unsigned char, unsigned char)+0x36>
C:\Users\mathiasc\AppData\Local\Temp\arduino_build_312787\sketch/serialcli.cpp:134
                                Serial.print(F("[NEW LINE]"));
                            } else if ( msgbuffer[c]=='\r'){
    1c86:	6d 30       	cpi	r22, 0x0D	; 13
    1c88:	31 f4       	brne	.+12     	; 0x1c96 <PrintErrorLocation(unsigned char, unsigned char)+0x3e>
C:\Users\mathiasc\AppData\Local\Temp\arduino_build_312787\sketch/serialcli.cpp:135
                            Serial.print(F("[RETURN]"));
    1c8a:	89 ed       	ldi	r24, 0xD9	; 217
    1c8c:	98 e7       	ldi	r25, 0x78	; 120
    1c8e:	0e 94 2a 0e 	call	0x1c54	; 0x1c54 <Print::print(char const*) [clone .constprop.12]>
C:\Users\mathiasc\AppData\Local\Temp\arduino_build_312787\sketch/serialcli.cpp:131
 Output:      None 
 Description: Show the location of a parsing error
**********************************************************************************************************/
void PrintErrorLocation(uint8_t startidx, uint8_t current_index  ){
          Serial.print(F(" Syntax error near:\""));
                        for(uint8_t c = startidx;c<current_index;c++){
    1c92:	cf 5f       	subi	r28, 0xFF	; 255
    1c94:	ef cf       	rjmp	.-34     	; 0x1c74 <PrintErrorLocation(unsigned char, unsigned char)+0x1c>
C:\Users\mathiasc\AppData\Local\Temp\arduino_build_312787\sketch/serialcli.cpp:137
                            if( msgbuffer[c]=='\n' ) {
                                Serial.print(F("[NEW LINE]"));
                            } else if ( msgbuffer[c]=='\r'){
                            Serial.print(F("[RETURN]"));
                            } else {
                                Serial.write( msgbuffer[c]);
    1c96:	87 ea       	ldi	r24, 0xA7	; 167
    1c98:	98 e2       	ldi	r25, 0x28	; 40
    1c9a:	0e 94 37 02 	call	0x46e	; 0x46e <UartClass::write(unsigned char)>
    1c9e:	f9 cf       	rjmp	.-14     	; 0x1c92 <PrintErrorLocation(unsigned char, unsigned char)+0x3a>
C:\Users\mathiasc\AppData\Local\Temp\arduino_build_312787\sketch/serialcli.cpp:140
                            }
                        }
                    Serial.println("\"");
    1ca0:	8c ec       	ldi	r24, 0xCC	; 204
    1ca2:	98 e7       	ldi	r25, 0x78	; 120
C:\Users\mathiasc\AppData\Local\Temp\arduino_build_312787\sketch/serialcli.cpp:141
}
    1ca4:	df 91       	pop	r29
    1ca6:	cf 91       	pop	r28
    1ca8:	1f 91       	pop	r17
    1caa:	0f 91       	pop	r16
C:\Users\mathiasc\AppData\Local\Temp\arduino_build_312787\sketch/serialcli.cpp:140
                            Serial.print(F("[RETURN]"));
                            } else {
                                Serial.write( msgbuffer[c]);
                            }
                        }
                    Serial.println("\"");
    1cac:	0c 94 1c 0e 	jmp	0x1c38	; 0x1c38 <Print::println(char const*) [clone .constprop.19]>

00001cb0 <FE_190409::display_show_Temperatur(unsigned int, unsigned char, unsigned int, fsmstate_t, unsigned int)>:
_ZN9FE_19040923display_show_TemperaturEjhj10fsmstate_tj():
C:\Users\mathiasc\AppData\Local\Temp\arduino_build_312787\sketch/frontend_190408.cpp:150
 Function:    void display_show_Temperatur()
 Input:       uint16_t dispTemperature, uint8_t HeatPwr_Percent, uint16_t setpoint, fsmstate_t state, uint16_t timestamp
 Output:      None
 Discription: Shows the Mainscreen with temperatur
**********************************************************************************************************/
void FE_190409::display_show_Temperatur(uint16_t dispTemperature, uint8_t HeatPwr_Percent, uint16_t setpoint, fsmstate_t state, uint16_t timestamp ){
    1cb0:	4f 92       	push	r4
    1cb2:	5f 92       	push	r5
    1cb4:	6f 92       	push	r6
    1cb6:	7f 92       	push	r7
    1cb8:	9f 92       	push	r9
    1cba:	af 92       	push	r10
    1cbc:	bf 92       	push	r11
    1cbe:	cf 92       	push	r12
    1cc0:	df 92       	push	r13
    1cc2:	ef 92       	push	r14
    1cc4:	ff 92       	push	r15
    1cc6:	0f 93       	push	r16
    1cc8:	1f 93       	push	r17
    1cca:	cf 93       	push	r28
    1ccc:	df 93       	push	r29
    1cce:	ec 01       	movw	r28, r24
    1cd0:	6b 01       	movw	r12, r22
    1cd2:	79 01       	movw	r14, r18
C:\Users\mathiasc\AppData\Local\Temp\arduino_build_312787\sketch/frontend_190408.cpp:154
    static uint16_t current_setpoint;
    static float dispval = 0;
    
    if(setpoint != current_setpoint){
    1cd4:	80 91 42 28 	lds	r24, 0x2842	; 0x802842 <FE_190409::display_show_Temperatur(unsigned int, unsigned char, unsigned int, fsmstate_t, unsigned int)::current_setpoint>
    1cd8:	90 91 43 28 	lds	r25, 0x2843	; 0x802843 <FE_190409::display_show_Temperatur(unsigned int, unsigned char, unsigned int, fsmstate_t, unsigned int)::current_setpoint+0x1>
    1cdc:	82 17       	cp	r24, r18
    1cde:	93 07       	cpc	r25, r19
    1ce0:	f1 f0       	breq	.+60     	; 0x1d1e <FE_190409::display_show_Temperatur(unsigned int, unsigned char, unsigned int, fsmstate_t, unsigned int)+0x6e>
C:\Users\mathiasc\AppData\Local\Temp\arduino_build_312787\sketch/frontend_190408.cpp:156
        //We display for at least 2 ticks the new setpoint
         current_setpoint = setpoint;
    1ce2:	20 93 42 28 	sts	0x2842, r18	; 0x802842 <FE_190409::display_show_Temperatur(unsigned int, unsigned char, unsigned int, fsmstate_t, unsigned int)::current_setpoint>
    1ce6:	30 93 43 28 	sts	0x2843, r19	; 0x802843 <FE_190409::display_show_Temperatur(unsigned int, unsigned char, unsigned int, fsmstate_t, unsigned int)::current_setpoint+0x1>
C:\Users\mathiasc\AppData\Local\Temp\arduino_build_312787\sketch/frontend_190408.cpp:157
         display_timout = 2000;
    1cea:	80 ed       	ldi	r24, 0xD0	; 208
    1cec:	97 e0       	ldi	r25, 0x07	; 7
    1cee:	8a 83       	std	Y+2, r24	; 0x02
    1cf0:	9b 83       	std	Y+3, r25	; 0x03
set():
C:\Users\mathiasc\Documents\Arduino\libraries\Grove_4-Digit_Display/TM1637.cpp:282
    display(0x03, 0x7f);
}

// To take effect the next time it displays.
void TM1637::set(uint8_t brightness, uint8_t set_data, uint8_t set_addr) {
    cmd_set_data = set_data;
    1cf2:	80 e4       	ldi	r24, 0x40	; 64
    1cf4:	80 93 44 29 	sts	0x2944, r24	; 0x802944 <tm1637>
C:\Users\mathiasc\Documents\Arduino\libraries\Grove_4-Digit_Display/TM1637.cpp:283
    cmd_set_addr = set_addr;
    1cf8:	80 ec       	ldi	r24, 0xC0	; 192
    1cfa:	80 93 45 29 	sts	0x2945, r24	; 0x802945 <tm1637+0x1>
C:\Users\mathiasc\Documents\Arduino\libraries\Grove_4-Digit_Display/TM1637.cpp:285
    //Set the brightness and it takes effect the next time it displays.
    cmd_disp_ctrl = 0x88 + brightness;
    1cfe:	8f e8       	ldi	r24, 0x8F	; 143
    1d00:	80 93 46 29 	sts	0x2946, r24	; 0x802946 <tm1637+0x2>
_ZN9FE_19040923display_show_TemperaturEjhj10fsmstate_tj():
C:\Users\mathiasc\AppData\Local\Temp\arduino_build_312787\sketch/frontend_190408.cpp:159
         tm1637.set(BRIGHTEST);//BRIGHT_TYPICAL = 2,BRIGHT_DARKEST = 0,BRIGHTEST = 7;
         dispval = setpoint;
    1d04:	b9 01       	movw	r22, r18
    1d06:	90 e0       	ldi	r25, 0x00	; 0
    1d08:	80 e0       	ldi	r24, 0x00	; 0
    1d0a:	0e 94 ba 19 	call	0x3374	; 0x3374 <__floatunsisf>
    1d0e:	60 93 3e 28 	sts	0x283E, r22	; 0x80283e <FE_190409::display_show_Temperatur(unsigned int, unsigned char, unsigned int, fsmstate_t, unsigned int)::dispval>
    1d12:	70 93 3f 28 	sts	0x283F, r23	; 0x80283f <FE_190409::display_show_Temperatur(unsigned int, unsigned char, unsigned int, fsmstate_t, unsigned int)::dispval+0x1>
    1d16:	80 93 40 28 	sts	0x2840, r24	; 0x802840 <FE_190409::display_show_Temperatur(unsigned int, unsigned char, unsigned int, fsmstate_t, unsigned int)::dispval+0x2>
    1d1a:	90 93 41 28 	sts	0x2841, r25	; 0x802841 <FE_190409::display_show_Temperatur(unsigned int, unsigned char, unsigned int, fsmstate_t, unsigned int)::dispval+0x3>
C:\Users\mathiasc\AppData\Local\Temp\arduino_build_312787\sketch/frontend_190408.cpp:163
         
    } 
    
    if(display_timout > 0){
    1d1e:	8a 81       	ldd	r24, Y+2	; 0x02
    1d20:	9b 81       	ldd	r25, Y+3	; 0x03
    1d22:	89 2b       	or	r24, r25
    1d24:	09 f4       	brne	.+2      	; 0x1d28 <FE_190409::display_show_Temperatur(unsigned int, unsigned char, unsigned int, fsmstate_t, unsigned int)+0x78>
    1d26:	4f c0       	rjmp	.+158    	; 0x1dc6 <FE_190409::display_show_Temperatur(unsigned int, unsigned char, unsigned int, fsmstate_t, unsigned int)+0x116>
C:\Users\mathiasc\AppData\Local\Temp\arduino_build_312787\sketch/frontend_190408.cpp:165
            //We do nothing right now
            dispval = setpoint;
    1d28:	b7 01       	movw	r22, r14
    1d2a:	90 e0       	ldi	r25, 0x00	; 0
    1d2c:	80 e0       	ldi	r24, 0x00	; 0
    1d2e:	0e 94 ba 19 	call	0x3374	; 0x3374 <__floatunsisf>
    1d32:	60 93 3e 28 	sts	0x283E, r22	; 0x80283e <FE_190409::display_show_Temperatur(unsigned int, unsigned char, unsigned int, fsmstate_t, unsigned int)::dispval>
    1d36:	70 93 3f 28 	sts	0x283F, r23	; 0x80283f <FE_190409::display_show_Temperatur(unsigned int, unsigned char, unsigned int, fsmstate_t, unsigned int)::dispval+0x1>
    1d3a:	80 93 40 28 	sts	0x2840, r24	; 0x802840 <FE_190409::display_show_Temperatur(unsigned int, unsigned char, unsigned int, fsmstate_t, unsigned int)::dispval+0x2>
    1d3e:	90 93 41 28 	sts	0x2841, r25	; 0x802841 <FE_190409::display_show_Temperatur(unsigned int, unsigned char, unsigned int, fsmstate_t, unsigned int)::dispval+0x3>
C:\Users\mathiasc\AppData\Local\Temp\arduino_build_312787\sketch/frontend_190408.cpp:180

    // Displays number with decimal places (no decimal point implementation)
    // Colon is used instead of decimal point if decimal == 2
    // Be aware of int size limitations (up to +-2^15 = +-32767)
    uint8_t DIGITS = 4;
    int number = round(fabs(dispval) * pow(10, 0));
    1d42:	60 91 3e 28 	lds	r22, 0x283E	; 0x80283e <FE_190409::display_show_Temperatur(unsigned int, unsigned char, unsigned int, fsmstate_t, unsigned int)::dispval>
    1d46:	70 91 3f 28 	lds	r23, 0x283F	; 0x80283f <FE_190409::display_show_Temperatur(unsigned int, unsigned char, unsigned int, fsmstate_t, unsigned int)::dispval+0x1>
    1d4a:	80 91 40 28 	lds	r24, 0x2840	; 0x802840 <FE_190409::display_show_Temperatur(unsigned int, unsigned char, unsigned int, fsmstate_t, unsigned int)::dispval+0x2>
    1d4e:	90 91 41 28 	lds	r25, 0x2841	; 0x802841 <FE_190409::display_show_Temperatur(unsigned int, unsigned char, unsigned int, fsmstate_t, unsigned int)::dispval+0x3>
    1d52:	9f 77       	andi	r25, 0x7F	; 127
    1d54:	0e 94 8d 1a 	call	0x351a	; 0x351a <round>
    1d58:	0e 94 84 19 	call	0x3308	; 0x3308 <__fixsfsi>
    1d5c:	8b 01       	movw	r16, r22
    1d5e:	c3 e0       	ldi	r28, 0x03	; 3
    1d60:	d0 e0       	ldi	r29, 0x00	; 0
C:\Users\mathiasc\AppData\Local\Temp\arduino_build_312787\sketch/frontend_190408.cpp:196
            }
  
            number /= 10;
          } else {
                if(dispTemperature<setpoint){
                  uint8_t timediv=millis()/500;
    1d62:	84 ef       	ldi	r24, 0xF4	; 244
    1d64:	48 2e       	mov	r4, r24
    1d66:	55 24       	eor	r5, r5
    1d68:	53 94       	inc	r5
    1d6a:	61 2c       	mov	r6, r1
    1d6c:	71 2c       	mov	r7, r1
point():
C:\Users\mathiasc\Documents\Arduino\libraries\Grove_4-Digit_Display/TM1637.cpp:291
}

// Whether to light the clock point ":".
// To take effect the next time it displays.
void TM1637::point(boolean PointFlag) {
    _PointFlag = PointFlag;
    1d6e:	99 24       	eor	r9, r9
    1d70:	93 94       	inc	r9
_ZN9FE_19040923display_show_TemperaturEjhj10fsmstate_tj():
C:\Users\mathiasc\AppData\Local\Temp\arduino_build_312787\sketch/frontend_190408.cpp:193
                tm1637.display(j, number % 10);
            } else {
                tm1637.display(j, 0x7f);    // display nothing
            }
  
            number /= 10;
    1d72:	9a e0       	ldi	r25, 0x0A	; 10
    1d74:	a9 2e       	mov	r10, r25
    1d76:	b1 2c       	mov	r11, r1
C:\Users\mathiasc\AppData\Local\Temp\arduino_build_312787\sketch/frontend_190408.cpp:185
    int number = round(fabs(dispval) * pow(10, 0));

    for (int i = 0; i < DIGITS; ++i) {
        int j = DIGITS - i - 1;

          if(j!=0){
    1d78:	20 97       	sbiw	r28, 0x00	; 0
    1d7a:	e1 f1       	breq	.+120    	; 0x1df4 <FE_190409::display_show_Temperatur(unsigned int, unsigned char, unsigned int, fsmstate_t, unsigned int)+0x144>
point():
C:\Users\mathiasc\Documents\Arduino\libraries\Grove_4-Digit_Display/TM1637.cpp:291
    1d7c:	10 92 47 29 	sts	0x2947, r1	; 0x802947 <tm1637+0x3>
_ZN9FE_19040923display_show_TemperaturEjhj10fsmstate_tj():
C:\Users\mathiasc\AppData\Local\Temp\arduino_build_312787\sketch/frontend_190408.cpp:190
            tm1637.point(false);
            if (number != 0) {
                tm1637.display(j, number % 10);
            } else {
                tm1637.display(j, 0x7f);    // display nothing
    1d80:	6f e7       	ldi	r22, 0x7F	; 127
C:\Users\mathiasc\AppData\Local\Temp\arduino_build_312787\sketch/frontend_190408.cpp:187
    for (int i = 0; i < DIGITS; ++i) {
        int j = DIGITS - i - 1;

          if(j!=0){
            tm1637.point(false);
            if (number != 0) {
    1d82:	01 15       	cp	r16, r1
    1d84:	11 05       	cpc	r17, r1
    1d86:	29 f0       	breq	.+10     	; 0x1d92 <FE_190409::display_show_Temperatur(unsigned int, unsigned char, unsigned int, fsmstate_t, unsigned int)+0xe2>
C:\Users\mathiasc\AppData\Local\Temp\arduino_build_312787\sketch/frontend_190408.cpp:188
                tm1637.display(j, number % 10);
    1d88:	c8 01       	movw	r24, r16
    1d8a:	b5 01       	movw	r22, r10
    1d8c:	0e 94 0e 1b 	call	0x361c	; 0x361c <__divmodhi4>
    1d90:	68 2f       	mov	r22, r24
C:\Users\mathiasc\AppData\Local\Temp\arduino_build_312787\sketch/frontend_190408.cpp:190
            } else {
                tm1637.display(j, 0x7f);    // display nothing
    1d92:	8c 2f       	mov	r24, r28
    1d94:	0e 94 c8 04 	call	0x990	; 0x990 <TM1637::display(unsigned char, signed char) [clone .constprop.55]>
C:\Users\mathiasc\AppData\Local\Temp\arduino_build_312787\sketch/frontend_190408.cpp:193
            }
  
            number /= 10;
    1d98:	c8 01       	movw	r24, r16
    1d9a:	b5 01       	movw	r22, r10
    1d9c:	0e 94 0e 1b 	call	0x361c	; 0x361c <__divmodhi4>
    1da0:	8b 01       	movw	r16, r22
    1da2:	21 97       	sbiw	r28, 0x01	; 1
    1da4:	48 f7       	brcc	.-46     	; 0x1d78 <FE_190409::display_show_Temperatur(unsigned int, unsigned char, unsigned int, fsmstate_t, unsigned int)+0xc8>
C:\Users\mathiasc\AppData\Local\Temp\arduino_build_312787\sketch/frontend_190408.cpp:210
                tm1637.display(0, ' ');    // display nothing
          }
    }


}
    1da6:	df 91       	pop	r29
    1da8:	cf 91       	pop	r28
    1daa:	1f 91       	pop	r17
    1dac:	0f 91       	pop	r16
    1dae:	ff 90       	pop	r15
    1db0:	ef 90       	pop	r14
    1db2:	df 90       	pop	r13
    1db4:	cf 90       	pop	r12
    1db6:	bf 90       	pop	r11
    1db8:	af 90       	pop	r10
    1dba:	9f 90       	pop	r9
    1dbc:	7f 90       	pop	r7
    1dbe:	6f 90       	pop	r6
    1dc0:	5f 90       	pop	r5
    1dc2:	4f 90       	pop	r4
    1dc4:	08 95       	ret
C:\Users\mathiasc\AppData\Local\Temp\arduino_build_312787\sketch/frontend_190408.cpp:167
    
    if(display_timout > 0){
            //We do nothing right now
            dispval = setpoint;
    } else {
            dispval = dispTemperature;
    1dc6:	b6 01       	movw	r22, r12
    1dc8:	90 e0       	ldi	r25, 0x00	; 0
    1dca:	80 e0       	ldi	r24, 0x00	; 0
    1dcc:	0e 94 ba 19 	call	0x3374	; 0x3374 <__floatunsisf>
    1dd0:	60 93 3e 28 	sts	0x283E, r22	; 0x80283e <FE_190409::display_show_Temperatur(unsigned int, unsigned char, unsigned int, fsmstate_t, unsigned int)::dispval>
    1dd4:	70 93 3f 28 	sts	0x283F, r23	; 0x80283f <FE_190409::display_show_Temperatur(unsigned int, unsigned char, unsigned int, fsmstate_t, unsigned int)::dispval+0x1>
    1dd8:	80 93 40 28 	sts	0x2840, r24	; 0x802840 <FE_190409::display_show_Temperatur(unsigned int, unsigned char, unsigned int, fsmstate_t, unsigned int)::dispval+0x2>
    1ddc:	90 93 41 28 	sts	0x2841, r25	; 0x802841 <FE_190409::display_show_Temperatur(unsigned int, unsigned char, unsigned int, fsmstate_t, unsigned int)::dispval+0x3>
set():
C:\Users\mathiasc\Documents\Arduino\libraries\Grove_4-Digit_Display/TM1637.cpp:282
    display(0x03, 0x7f);
}

// To take effect the next time it displays.
void TM1637::set(uint8_t brightness, uint8_t set_data, uint8_t set_addr) {
    cmd_set_data = set_data;
    1de0:	80 e4       	ldi	r24, 0x40	; 64
    1de2:	80 93 44 29 	sts	0x2944, r24	; 0x802944 <tm1637>
C:\Users\mathiasc\Documents\Arduino\libraries\Grove_4-Digit_Display/TM1637.cpp:283
    cmd_set_addr = set_addr;
    1de6:	80 ec       	ldi	r24, 0xC0	; 192
    1de8:	80 93 45 29 	sts	0x2945, r24	; 0x802945 <tm1637+0x1>
C:\Users\mathiasc\Documents\Arduino\libraries\Grove_4-Digit_Display/TM1637.cpp:285
    //Set the brightness and it takes effect the next time it displays.
    cmd_disp_ctrl = 0x88 + brightness;
    1dec:	8a e8       	ldi	r24, 0x8A	; 138
    1dee:	80 93 46 29 	sts	0x2946, r24	; 0x802946 <tm1637+0x2>
    1df2:	a7 cf       	rjmp	.-178    	; 0x1d42 <FE_190409::display_show_Temperatur(unsigned int, unsigned char, unsigned int, fsmstate_t, unsigned int)+0x92>
_ZN9FE_19040923display_show_TemperaturEjhj10fsmstate_tj():
C:\Users\mathiasc\AppData\Local\Temp\arduino_build_312787\sketch/frontend_190408.cpp:195
                tm1637.display(j, 0x7f);    // display nothing
            }
  
            number /= 10;
          } else {
                if(dispTemperature<setpoint){
    1df4:	ce 14       	cp	r12, r14
    1df6:	df 04       	cpc	r13, r15
    1df8:	88 f4       	brcc	.+34     	; 0x1e1c <FE_190409::display_show_Temperatur(unsigned int, unsigned char, unsigned int, fsmstate_t, unsigned int)+0x16c>
millis():
C:\Users\mathiasc\AppData\Local\Arduino15\packages\MegaCoreX\hardware\megaavr\1.0.4\cores\coreX-corefiles/wiring.c:87
{
  unsigned long m;

  // disable interrupts while we read timer0_millis or we might get an
  // inconsistent value (e.g. in the middle of a write to timer_millis)
  uint8_t status = SREG;
    1dfa:	2f b7       	in	r18, 0x3f	; 63
C:\Users\mathiasc\AppData\Local\Arduino15\packages\MegaCoreX\hardware\megaavr\1.0.4\cores\coreX-corefiles/wiring.c:88
  cli();
    1dfc:	f8 94       	cli
C:\Users\mathiasc\AppData\Local\Arduino15\packages\MegaCoreX\hardware\megaavr\1.0.4\cores\coreX-corefiles/wiring.c:90

  m = timer_millis;
    1dfe:	60 91 a3 28 	lds	r22, 0x28A3	; 0x8028a3 <timer_millis>
    1e02:	70 91 a4 28 	lds	r23, 0x28A4	; 0x8028a4 <timer_millis+0x1>
    1e06:	80 91 a5 28 	lds	r24, 0x28A5	; 0x8028a5 <timer_millis+0x2>
    1e0a:	90 91 a6 28 	lds	r25, 0x28A6	; 0x8028a6 <timer_millis+0x3>
C:\Users\mathiasc\AppData\Local\Arduino15\packages\MegaCoreX\hardware\megaavr\1.0.4\cores\coreX-corefiles/wiring.c:92

  SREG = status;
    1e0e:	2f bf       	out	0x3f, r18	; 63
_ZN9FE_19040923display_show_TemperaturEjhj10fsmstate_tj():
C:\Users\mathiasc\AppData\Local\Temp\arduino_build_312787\sketch/frontend_190408.cpp:196
                  uint8_t timediv=millis()/500;
    1e10:	a3 01       	movw	r20, r6
    1e12:	92 01       	movw	r18, r4
    1e14:	0e 94 22 1b 	call	0x3644	; 0x3644 <__udivmodsi4>
C:\Users\mathiasc\AppData\Local\Temp\arduino_build_312787\sketch/frontend_190408.cpp:197
                  if(timediv%2==0){
    1e18:	20 fd       	sbrc	r18, 0
    1e1a:	07 c0       	rjmp	.+14     	; 0x1e2a <FE_190409::display_show_Temperatur(unsigned int, unsigned char, unsigned int, fsmstate_t, unsigned int)+0x17a>
point():
C:\Users\mathiasc\Documents\Arduino\libraries\Grove_4-Digit_Display/TM1637.cpp:291
}

// Whether to light the clock point ":".
// To take effect the next time it displays.
void TM1637::point(boolean PointFlag) {
    _PointFlag = PointFlag;
    1e1c:	10 92 47 29 	sts	0x2947, r1	; 0x802947 <tm1637+0x3>
_ZN9FE_19040923display_show_TemperaturEjhj10fsmstate_tj():
C:\Users\mathiasc\AppData\Local\Temp\arduino_build_312787\sketch/frontend_190408.cpp:205
                    tm1637.point(true);
                  }
                } else {
                  tm1637.point(false);
                }
                tm1637.display(0, ' ');    // display nothing
    1e20:	60 e2       	ldi	r22, 0x20	; 32
    1e22:	80 e0       	ldi	r24, 0x00	; 0
    1e24:	0e 94 c8 04 	call	0x990	; 0x990 <TM1637::display(unsigned char, signed char) [clone .constprop.55]>
    1e28:	bc cf       	rjmp	.-136    	; 0x1da2 <FE_190409::display_show_Temperatur(unsigned int, unsigned char, unsigned int, fsmstate_t, unsigned int)+0xf2>
point():
C:\Users\mathiasc\Documents\Arduino\libraries\Grove_4-Digit_Display/TM1637.cpp:291
    1e2a:	90 92 47 29 	sts	0x2947, r9	; 0x802947 <tm1637+0x3>
    1e2e:	f8 cf       	rjmp	.-16     	; 0x1e20 <FE_190409::display_show_Temperatur(unsigned int, unsigned char, unsigned int, fsmstate_t, unsigned int)+0x170>

00001e30 <__vector_18>:
__vector_18():
C:\Users\mathiasc\AppData\Local\Arduino15\packages\MegaCoreX\hardware\megaavr\1.0.4\cores\coreX-corefiles/UART0.cpp:50
#error "Don't know what the Data Received interrupt vector is called for Serial"
#endif

#if defined(HWSERIAL0_DRE_VECTOR)
ISR(HWSERIAL0_DRE_VECTOR)
{
    1e30:	1f 92       	push	r1
    1e32:	0f 92       	push	r0
    1e34:	0f b6       	in	r0, 0x3f	; 63
    1e36:	0f 92       	push	r0
    1e38:	11 24       	eor	r1, r1
    1e3a:	2f 93       	push	r18
    1e3c:	3f 93       	push	r19
    1e3e:	4f 93       	push	r20
    1e40:	5f 93       	push	r21
    1e42:	6f 93       	push	r22
    1e44:	7f 93       	push	r23
    1e46:	8f 93       	push	r24
    1e48:	9f 93       	push	r25
    1e4a:	af 93       	push	r26
    1e4c:	bf 93       	push	r27
    1e4e:	ef 93       	push	r30
    1e50:	ff 93       	push	r31
C:\Users\mathiasc\AppData\Local\Arduino15\packages\MegaCoreX\hardware\megaavr\1.0.4\cores\coreX-corefiles/UART0.cpp:51
  Serial._tx_data_empty_irq();
    1e52:	87 ea       	ldi	r24, 0xA7	; 167
    1e54:	98 e2       	ldi	r25, 0x28	; 40
    1e56:	0e 94 f2 01 	call	0x3e4	; 0x3e4 <UartClass::_tx_data_empty_irq()>
C:\Users\mathiasc\AppData\Local\Arduino15\packages\MegaCoreX\hardware\megaavr\1.0.4\cores\coreX-corefiles/UART0.cpp:52
}
    1e5a:	ff 91       	pop	r31
    1e5c:	ef 91       	pop	r30
    1e5e:	bf 91       	pop	r27
    1e60:	af 91       	pop	r26
    1e62:	9f 91       	pop	r25
    1e64:	8f 91       	pop	r24
    1e66:	7f 91       	pop	r23
    1e68:	6f 91       	pop	r22
    1e6a:	5f 91       	pop	r21
    1e6c:	4f 91       	pop	r20
    1e6e:	3f 91       	pop	r19
    1e70:	2f 91       	pop	r18
    1e72:	0f 90       	pop	r0
    1e74:	0f be       	out	0x3f, r0	; 63
    1e76:	0f 90       	pop	r0
    1e78:	1f 90       	pop	r1
    1e7a:	18 95       	reti

00001e7c <__vector_17>:
__vector_17():
C:\Users\mathiasc\AppData\Local\Arduino15\packages\MegaCoreX\hardware\megaavr\1.0.4\cores\coreX-corefiles/UART0.cpp:41

#if defined(HAVE_HWSERIAL0)

#if defined(HWSERIAL0_RXC_VECTOR)
ISR(HWSERIAL0_RXC_VECTOR)
{
    1e7c:	1f 92       	push	r1
    1e7e:	0f 92       	push	r0
    1e80:	0f b6       	in	r0, 0x3f	; 63
    1e82:	0f 92       	push	r0
    1e84:	11 24       	eor	r1, r1
    1e86:	2f 93       	push	r18
    1e88:	8f 93       	push	r24
    1e8a:	9f 93       	push	r25
    1e8c:	ef 93       	push	r30
    1e8e:	ff 93       	push	r31
_rx_complete_irq():
C:\Users\mathiasc\AppData\Local\Arduino15\packages\MegaCoreX\hardware\megaavr\1.0.4\cores\coreX-corefiles/UART_private.h:59
// Actual interrupt handlers //////////////////////////////////////////////////////////////

void UartClass::_rx_complete_irq(void)
{
  //if (bit_is_clear(*_rxdatah, USART_PERR_bp)) {
  if (!(((*_hwserial_module).RXDATAH) & USART_PERR_bm)) {
    1e90:	e0 91 b3 28 	lds	r30, 0x28B3	; 0x8028b3 <Serial+0xc>
    1e94:	f0 91 b4 28 	lds	r31, 0x28B4	; 0x8028b4 <Serial+0xd>
    1e98:	81 81       	ldd	r24, Z+1	; 0x01
    1e9a:	81 fd       	sbrc	r24, 1
    1e9c:	1b c0       	rjmp	.+54     	; 0x1ed4 <__vector_17+0x58>
C:\Users\mathiasc\AppData\Local\Arduino15\packages\MegaCoreX\hardware\megaavr\1.0.4\cores\coreX-corefiles/UART_private.h:62
    // No Parity error, read byte and store it in the buffer if there is
    // room
    unsigned char c = (*_hwserial_module).RXDATAL;
    1e9e:	90 81       	ld	r25, Z
C:\Users\mathiasc\AppData\Local\Arduino15\packages\MegaCoreX\hardware\megaavr\1.0.4\cores\coreX-corefiles/UART_private.h:63
    rx_buffer_index_t i = (unsigned int)(_rx_buffer_head + 1) % SERIAL_RX_BUFFER_SIZE;
    1ea0:	80 91 bd 28 	lds	r24, 0x28BD	; 0x8028bd <Serial+0x16>
    1ea4:	8f 5f       	subi	r24, 0xFF	; 255
    1ea6:	8f 73       	andi	r24, 0x3F	; 63
C:\Users\mathiasc\AppData\Local\Arduino15\packages\MegaCoreX\hardware\megaavr\1.0.4\cores\coreX-corefiles/UART_private.h:69

    // if we should be storing the received character into the location
    // just before the tail (meaning that the head would advance to the
    // current location of the tail), we're about to overflow the buffer
    // and so we don't write the character or advance the head.
    if (i != _rx_buffer_tail)
    1ea8:	20 91 be 28 	lds	r18, 0x28BE	; 0x8028be <Serial+0x17>
    1eac:	82 17       	cp	r24, r18
    1eae:	41 f0       	breq	.+16     	; 0x1ec0 <__vector_17+0x44>
C:\Users\mathiasc\AppData\Local\Arduino15\packages\MegaCoreX\hardware\megaavr\1.0.4\cores\coreX-corefiles/UART_private.h:71
    {
      _rx_buffer[_rx_buffer_head] = c;
    1eb0:	e0 91 bd 28 	lds	r30, 0x28BD	; 0x8028bd <Serial+0x16>
    1eb4:	f0 e0       	ldi	r31, 0x00	; 0
    1eb6:	e9 55       	subi	r30, 0x59	; 89
    1eb8:	f7 4d       	sbci	r31, 0xD7	; 215
    1eba:	95 8f       	std	Z+29, r25	; 0x1d
C:\Users\mathiasc\AppData\Local\Arduino15\packages\MegaCoreX\hardware\megaavr\1.0.4\cores\coreX-corefiles/UART_private.h:72
      _rx_buffer_head = i;
    1ebc:	80 93 bd 28 	sts	0x28BD, r24	; 0x8028bd <Serial+0x16>
__vector_17():
C:\Users\mathiasc\AppData\Local\Arduino15\packages\MegaCoreX\hardware\megaavr\1.0.4\cores\coreX-corefiles/UART0.cpp:43
  Serial._rx_complete_irq();
}
    1ec0:	ff 91       	pop	r31
    1ec2:	ef 91       	pop	r30
    1ec4:	9f 91       	pop	r25
    1ec6:	8f 91       	pop	r24
    1ec8:	2f 91       	pop	r18
    1eca:	0f 90       	pop	r0
    1ecc:	0f be       	out	0x3f, r0	; 63
    1ece:	0f 90       	pop	r0
    1ed0:	1f 90       	pop	r1
    1ed2:	18 95       	reti
_rx_complete_irq():
C:\Users\mathiasc\AppData\Local\Arduino15\packages\MegaCoreX\hardware\megaavr\1.0.4\cores\coreX-corefiles/UART_private.h:78
    }
  } 
  else
  {
    // Parity error, read byte but discard it
    (*_hwserial_module).RXDATAL;
    1ed4:	80 81       	ld	r24, Z
    1ed6:	f4 cf       	rjmp	.-24     	; 0x1ec0 <__vector_17+0x44>

00001ed8 <__vector_25>:
__vector_25():
C:\Users\mathiasc\AppData\Local\Arduino15\packages\MegaCoreX\hardware\megaavr\1.0.4\cores\coreX-corefiles/wiring.c:74
#elif defined(MILLIS_USE_TIMERB2)
ISR(TCB2_INT_vect)
#else // fallback or defined(MILLIS_USE_TIMERB3)
ISR(TCB3_INT_vect)
#endif
{
    1ed8:	1f 92       	push	r1
    1eda:	0f 92       	push	r0
    1edc:	0f b6       	in	r0, 0x3f	; 63
    1ede:	0f 92       	push	r0
    1ee0:	11 24       	eor	r1, r1
    1ee2:	8f 93       	push	r24
    1ee4:	9f 93       	push	r25
    1ee6:	af 93       	push	r26
    1ee8:	bf 93       	push	r27
C:\Users\mathiasc\AppData\Local\Arduino15\packages\MegaCoreX\hardware\megaavr\1.0.4\cores\coreX-corefiles/wiring.c:75
  timer_millis++;
    1eea:	80 91 a3 28 	lds	r24, 0x28A3	; 0x8028a3 <timer_millis>
    1eee:	90 91 a4 28 	lds	r25, 0x28A4	; 0x8028a4 <timer_millis+0x1>
    1ef2:	a0 91 a5 28 	lds	r26, 0x28A5	; 0x8028a5 <timer_millis+0x2>
    1ef6:	b0 91 a6 28 	lds	r27, 0x28A6	; 0x8028a6 <timer_millis+0x3>
    1efa:	01 96       	adiw	r24, 0x01	; 1
    1efc:	a1 1d       	adc	r26, r1
    1efe:	b1 1d       	adc	r27, r1
    1f00:	80 93 a3 28 	sts	0x28A3, r24	; 0x8028a3 <timer_millis>
    1f04:	90 93 a4 28 	sts	0x28A4, r25	; 0x8028a4 <timer_millis+0x1>
    1f08:	a0 93 a5 28 	sts	0x28A5, r26	; 0x8028a5 <timer_millis+0x2>
    1f0c:	b0 93 a6 28 	sts	0x28A6, r27	; 0x8028a6 <timer_millis+0x3>
C:\Users\mathiasc\AppData\Local\Arduino15\packages\MegaCoreX\hardware\megaavr\1.0.4\cores\coreX-corefiles/wiring.c:78

  /* Clear flag */
  _timer->INTFLAGS = TCB_CAPT_bm;
    1f10:	81 e0       	ldi	r24, 0x01	; 1
    1f12:	80 93 a6 0a 	sts	0x0AA6, r24	; 0x800aa6 <__TEXT_REGION_LENGTH__+0x7f4aa6>
C:\Users\mathiasc\AppData\Local\Arduino15\packages\MegaCoreX\hardware\megaavr\1.0.4\cores\coreX-corefiles/wiring.c:79
}
    1f16:	bf 91       	pop	r27
    1f18:	af 91       	pop	r26
    1f1a:	9f 91       	pop	r25
    1f1c:	8f 91       	pop	r24
    1f1e:	0f 90       	pop	r0
    1f20:	0f be       	out	0x3f, r0	; 63
    1f22:	0f 90       	pop	r0
    1f24:	1f 90       	pop	r1
    1f26:	18 95       	reti

00001f28 <__vector_36>:
__vector_36():
C:\Users\mathiasc\AppData\Local\Temp\arduino_build_312787\sketch/HW_190409.cpp:19
 Input:       void* 
 Output:      None
 Discription: Interrupt with callback for 100us timing and callback
**********************************************************************************************************/
volatile uint32_t ticks=0;
ISR( TCB3_INT_vect ){
    1f28:	1f 92       	push	r1
    1f2a:	0f 92       	push	r0
    1f2c:	0f b6       	in	r0, 0x3f	; 63
    1f2e:	0f 92       	push	r0
    1f30:	11 24       	eor	r1, r1
    1f32:	2f 93       	push	r18
    1f34:	3f 93       	push	r19
    1f36:	4f 93       	push	r20
    1f38:	5f 93       	push	r21
    1f3a:	6f 93       	push	r22
    1f3c:	7f 93       	push	r23
    1f3e:	8f 93       	push	r24
    1f40:	9f 93       	push	r25
    1f42:	af 93       	push	r26
    1f44:	bf 93       	push	r27
    1f46:	cf 93       	push	r28
    1f48:	df 93       	push	r29
    1f4a:	ef 93       	push	r30
    1f4c:	ff 93       	push	r31
C:\Users\mathiasc\AppData\Local\Temp\arduino_build_312787\sketch/HW_190409.cpp:22
  static uint8_t divider = 0;
  //Inrease ticks
  ticks++;
    1f4e:	80 91 26 28 	lds	r24, 0x2826	; 0x802826 <ticks>
    1f52:	90 91 27 28 	lds	r25, 0x2827	; 0x802827 <ticks+0x1>
    1f56:	a0 91 28 28 	lds	r26, 0x2828	; 0x802828 <ticks+0x2>
    1f5a:	b0 91 29 28 	lds	r27, 0x2829	; 0x802829 <ticks+0x3>
    1f5e:	01 96       	adiw	r24, 0x01	; 1
    1f60:	a1 1d       	adc	r26, r1
    1f62:	b1 1d       	adc	r27, r1
    1f64:	80 93 26 28 	sts	0x2826, r24	; 0x802826 <ticks>
    1f68:	90 93 27 28 	sts	0x2827, r25	; 0x802827 <ticks+0x1>
    1f6c:	a0 93 28 28 	sts	0x2828, r26	; 0x802828 <ticks+0x2>
    1f70:	b0 93 29 28 	sts	0x2829, r27	; 0x802829 <ticks+0x3>
C:\Users\mathiasc\AppData\Local\Temp\arduino_build_312787\sketch/HW_190409.cpp:24
  /* Clear flag */
  TCB3.INTFLAGS = TCB_CAPT_bm;
    1f74:	81 e0       	ldi	r24, 0x01	; 1
    1f76:	80 93 b6 0a 	sts	0x0AB6, r24	; 0x800ab6 <__TEXT_REGION_LENGTH__+0x7f4ab6>
C:\Users\mathiasc\AppData\Local\Temp\arduino_build_312787\sketch/HW_190409.cpp:25
  if(__cb_250us_Timer != nullptr){
    1f7a:	e0 91 46 28 	lds	r30, 0x2846	; 0x802846 <__cb_250us_Timer>
    1f7e:	f0 91 47 28 	lds	r31, 0x2847	; 0x802847 <__cb_250us_Timer+0x1>
    1f82:	30 97       	sbiw	r30, 0x00	; 0
    1f84:	09 f0       	breq	.+2      	; 0x1f88 <__vector_36+0x60>
C:\Users\mathiasc\AppData\Local\Temp\arduino_build_312787\sketch/HW_190409.cpp:26
      __cb_250us_Timer();
    1f86:	09 95       	icall
C:\Users\mathiasc\AppData\Local\Temp\arduino_build_312787\sketch/HW_190409.cpp:29
      
  }
  if(divider<3){
    1f88:	80 91 25 28 	lds	r24, 0x2825	; 0x802825 <__vector_36::divider>
    1f8c:	83 30       	cpi	r24, 0x03	; 3
    1f8e:	b0 f4       	brcc	.+44     	; 0x1fbc <__vector_36+0x94>
C:\Users\mathiasc\AppData\Local\Temp\arduino_build_312787\sketch/HW_190409.cpp:30
    divider++;
    1f90:	8f 5f       	subi	r24, 0xFF	; 255
    1f92:	80 93 25 28 	sts	0x2825, r24	; 0x802825 <__vector_36::divider>
C:\Users\mathiasc\AppData\Local\Temp\arduino_build_312787\sketch/HW_190409.cpp:37
    divider = 0;
    if(__cb_fe1ms_Timer != nullptr){
      __cb_fe1ms_Timer->display_1ms_tick();  
    }
  }
}
    1f96:	ff 91       	pop	r31
    1f98:	ef 91       	pop	r30
    1f9a:	df 91       	pop	r29
    1f9c:	cf 91       	pop	r28
    1f9e:	bf 91       	pop	r27
    1fa0:	af 91       	pop	r26
    1fa2:	9f 91       	pop	r25
    1fa4:	8f 91       	pop	r24
    1fa6:	7f 91       	pop	r23
    1fa8:	6f 91       	pop	r22
    1faa:	5f 91       	pop	r21
    1fac:	4f 91       	pop	r20
    1fae:	3f 91       	pop	r19
    1fb0:	2f 91       	pop	r18
    1fb2:	0f 90       	pop	r0
    1fb4:	0f be       	out	0x3f, r0	; 63
    1fb6:	0f 90       	pop	r0
    1fb8:	1f 90       	pop	r1
    1fba:	18 95       	reti
C:\Users\mathiasc\AppData\Local\Temp\arduino_build_312787\sketch/HW_190409.cpp:32
      
  }
  if(divider<3){
    divider++;
  } else {
    divider = 0;
    1fbc:	10 92 25 28 	sts	0x2825, r1	; 0x802825 <__vector_36::divider>
C:\Users\mathiasc\AppData\Local\Temp\arduino_build_312787\sketch/HW_190409.cpp:33
    if(__cb_fe1ms_Timer != nullptr){
    1fc0:	c0 91 44 28 	lds	r28, 0x2844	; 0x802844 <__cb_fe1ms_Timer>
    1fc4:	d0 91 45 28 	lds	r29, 0x2845	; 0x802845 <__cb_fe1ms_Timer+0x1>
    1fc8:	20 97       	sbiw	r28, 0x00	; 0
    1fca:	29 f3       	breq	.-54     	; 0x1f96 <__vector_36+0x6e>
display_1ms_tick():
C:\Users\mathiasc\AppData\Local\Temp\arduino_build_312787\sketch/frontend_190408.cpp:17
 Output:      None
 Discription: To be called every 1ms for internal timing
**********************************************************************************************************/
void FE_190409::display_1ms_tick( void ){
   static uint8_t value=0;
   if(value>0){
    1fcc:	80 91 24 28 	lds	r24, 0x2824	; 0x802824 <__data_end>
    1fd0:	88 23       	and	r24, r24
    1fd2:	81 f0       	breq	.+32     	; 0x1ff4 <__vector_36+0xcc>
C:\Users\mathiasc\AppData\Local\Temp\arduino_build_312787\sketch/frontend_190408.cpp:18
    value=0;
    1fd4:	10 92 24 28 	sts	0x2824, r1	; 0x802824 <__data_end>
digitalWrite():
    1fd8:	60 e0       	ldi	r22, 0x00	; 0
    1fda:	82 e1       	ldi	r24, 0x12	; 18
    1fdc:	0e 94 41 03 	call	0x682	; 0x682 <digitalWrite.part.2>
display_1ms_tick():
C:\Users\mathiasc\AppData\Local\Temp\arduino_build_312787\sketch/frontend_190408.cpp:24
    digitalWrite(18, LOW);
   } else {
    value++;
    digitalWrite(18, HIGH);
   }
    if(display_timout>0){
    1fe0:	8a 81       	ldd	r24, Y+2	; 0x02
    1fe2:	9b 81       	ldd	r25, Y+3	; 0x03
    1fe4:	89 2b       	or	r24, r25
    1fe6:	b9 f2       	breq	.-82     	; 0x1f96 <__vector_36+0x6e>
C:\Users\mathiasc\AppData\Local\Temp\arduino_build_312787\sketch/frontend_190408.cpp:25
        display_timout--;
    1fe8:	8a 81       	ldd	r24, Y+2	; 0x02
    1fea:	9b 81       	ldd	r25, Y+3	; 0x03
    1fec:	01 97       	sbiw	r24, 0x01	; 1
    1fee:	8a 83       	std	Y+2, r24	; 0x02
    1ff0:	9b 83       	std	Y+3, r25	; 0x03
    1ff2:	d1 cf       	rjmp	.-94     	; 0x1f96 <__vector_36+0x6e>
C:\Users\mathiasc\AppData\Local\Temp\arduino_build_312787\sketch/frontend_190408.cpp:21
   static uint8_t value=0;
   if(value>0){
    value=0;
    digitalWrite(18, LOW);
   } else {
    value++;
    1ff4:	81 e0       	ldi	r24, 0x01	; 1
    1ff6:	80 93 24 28 	sts	0x2824, r24	; 0x802824 <__data_end>
digitalWrite():
    1ffa:	61 e0       	ldi	r22, 0x01	; 1
    1ffc:	ee cf       	rjmp	.-36     	; 0x1fda <__vector_36+0xb2>

00001ffe <global constructors keyed to 65535_0_CURRENT_190409.cpp.o.3932>:
_GLOBAL__I_65535_0_CURRENT_190409.cpp.o.3932():
    1ffe:	1f 93       	push	r17
    2000:	cf 93       	push	r28
    2002:	df 93       	push	r29
    2004:	e7 ea       	ldi	r30, 0xA7	; 167
    2006:	f8 e2       	ldi	r31, 0x28	; 40
    2008:	12 82       	std	Z+2, r1	; 0x02
    200a:	13 82       	std	Z+3, r1	; 0x03
    200c:	88 ee       	ldi	r24, 0xE8	; 232
    200e:	93 e0       	ldi	r25, 0x03	; 3
    2010:	a0 e0       	ldi	r26, 0x00	; 0
    2012:	b0 e0       	ldi	r27, 0x00	; 0
    2014:	84 83       	std	Z+4, r24	; 0x04
    2016:	95 83       	std	Z+5, r25	; 0x05
    2018:	a6 83       	std	Z+6, r26	; 0x06
    201a:	b7 83       	std	Z+7, r27	; 0x07
    201c:	8f e1       	ldi	r24, 0x1F	; 31
    201e:	98 e7       	ldi	r25, 0x78	; 120
    2020:	80 83       	st	Z, r24
    2022:	91 83       	std	Z+1, r25	; 0x01
    2024:	80 e0       	ldi	r24, 0x00	; 0
    2026:	98 e0       	ldi	r25, 0x08	; 8
    2028:	84 87       	std	Z+12, r24	; 0x0c
    202a:	95 87       	std	Z+13, r25	; 0x0d
    202c:	81 e0       	ldi	r24, 0x01	; 1
    202e:	86 87       	std	Z+14, r24	; 0x0e
    2030:	17 86       	std	Z+15, r1	; 0x0f
    2032:	10 8a       	std	Z+16, r1	; 0x10
    2034:	95 e0       	ldi	r25, 0x05	; 5
    2036:	91 8b       	std	Z+17, r25	; 0x11
    2038:	94 e0       	ldi	r25, 0x04	; 4
    203a:	92 8b       	std	Z+18, r25	; 0x12
    203c:	83 8b       	std	Z+19, r24	; 0x13
    203e:	14 8a       	std	Z+20, r1	; 0x14
    2040:	15 8a       	std	Z+21, r1	; 0x15
    2042:	16 8a       	std	Z+22, r1	; 0x16
    2044:	17 8a       	std	Z+23, r1	; 0x17
    2046:	10 8e       	std	Z+24, r1	; 0x18
    2048:	11 8e       	std	Z+25, r1	; 0x19
    204a:	82 e1       	ldi	r24, 0x12	; 18
    204c:	82 8f       	std	Z+26, r24	; 0x1a
    204e:	13 8e       	std	Z+27, r1	; 0x1b
    2050:	14 8e       	std	Z+28, r1	; 0x1c
    2052:	c4 e4       	ldi	r28, 0x44	; 68
    2054:	d9 e2       	ldi	r29, 0x29	; 41
    2056:	84 e0       	ldi	r24, 0x04	; 4
    2058:	90 e0       	ldi	r25, 0x00	; 0
    205a:	8c 83       	std	Y+4, r24	; 0x04
    205c:	9d 83       	std	Y+5, r25	; 0x05
    205e:	83 e0       	ldi	r24, 0x03	; 3
    2060:	8e 83       	std	Y+6, r24	; 0x06
    2062:	12 e0       	ldi	r17, 0x02	; 2
    2064:	1f 83       	std	Y+7, r17	; 0x07
    2066:	61 e0       	ldi	r22, 0x01	; 1
    2068:	0e 94 dd 02 	call	0x5ba	; 0x5ba <pinMode.part.1>
    206c:	61 e0       	ldi	r22, 0x01	; 1
    206e:	8f 81       	ldd	r24, Y+7	; 0x07
    2070:	0e 94 11 03 	call	0x622	; 0x622 <pinMode>
    2074:	60 e0       	ldi	r22, 0x00	; 0
    2076:	8f e0       	ldi	r24, 0x0F	; 15
    2078:	0e 94 dd 02 	call	0x5ba	; 0x5ba <pinMode.part.1>
    207c:	ec e4       	ldi	r30, 0x4C	; 76
    207e:	f9 e2       	ldi	r31, 0x29	; 41
    2080:	10 83       	st	Z, r17
    2082:	88 e4       	ldi	r24, 0x48	; 72
    2084:	94 e0       	ldi	r25, 0x04	; 4
    2086:	81 83       	std	Z+1, r24	; 0x01
    2088:	92 83       	std	Z+2, r25	; 0x02
    208a:	0e 94 0e 01 	call	0x21c	; 0x21c <OneWire::reset_search() [clone .constprop.43]>
    208e:	ca e5       	ldi	r28, 0x5A	; 90
    2090:	d9 e2       	ldi	r29, 0x29	; 41
    2092:	89 e9       	ldi	r24, 0x99	; 153
    2094:	98 e7       	ldi	r25, 0x78	; 120
    2096:	88 83       	st	Y, r24
    2098:	99 83       	std	Y+1, r25	; 0x01
    209a:	1a 82       	std	Y+2, r1	; 0x02
    209c:	1b 82       	std	Y+3, r1	; 0x03
    209e:	8f e8       	ldi	r24, 0x8F	; 143
    20a0:	98 e7       	ldi	r25, 0x78	; 120
    20a2:	8c 83       	std	Y+4, r24	; 0x04
    20a4:	9d 83       	std	Y+5, r25	; 0x05
    20a6:	87 ee       	ldi	r24, 0xE7	; 231
    20a8:	93 e0       	ldi	r25, 0x03	; 3
    20aa:	8e 83       	std	Y+6, r24	; 0x06
    20ac:	9f 83       	std	Y+7, r25	; 0x07
    20ae:	82 e0       	ldi	r24, 0x02	; 2
    20b0:	90 e0       	ldi	r25, 0x00	; 0
    20b2:	88 87       	std	Y+8, r24	; 0x08
    20b4:	99 87       	std	Y+9, r25	; 0x09
    20b6:	1a 86       	std	Y+10, r1	; 0x0a
    20b8:	1b 86       	std	Y+11, r1	; 0x0b
    20ba:	1c 86       	std	Y+12, r1	; 0x0c
    20bc:	1d 86       	std	Y+13, r1	; 0x0d
    20be:	1e 86       	std	Y+14, r1	; 0x0e
    20c0:	8f ef       	ldi	r24, 0xFF	; 255
    20c2:	9f ef       	ldi	r25, 0xFF	; 255
    20c4:	8f 87       	std	Y+15, r24	; 0x0f
    20c6:	98 8b       	std	Y+16, r25	; 0x10
    20c8:	1a 8e       	std	Y+26, r1	; 0x1a
    20ca:	0e 94 fd 0c 	call	0x19fa	; 0x19fa <analogReference.constprop.33>
    20ce:	1c 8e       	std	Y+28, r1	; 0x1c
    20d0:	1d 8e       	std	Y+29, r1	; 0x1d
    20d2:	df 91       	pop	r29
    20d4:	cf 91       	pop	r28
    20d6:	1f 91       	pop	r17
    20d8:	08 95       	ret

000020da <main>:
main():
C:\Users\mathiasc\AppData\Local\Arduino15\packages\MegaCoreX\hardware\megaavr\1.0.4\cores\coreX-corefiles/main.cpp:29

void setupUSB() __attribute__((weak));
void setupUSB() {}

int main(void)
{
    20da:	cf 93       	push	r28
    20dc:	df 93       	push	r29
    20de:	cd b7       	in	r28, 0x3d	; 61
    20e0:	de b7       	in	r29, 0x3e	; 62
    20e2:	6a 97       	sbiw	r28, 0x1a	; 26
    20e4:	cd bf       	out	0x3d, r28	; 61
    20e6:	de bf       	out	0x3e, r29	; 62
init():
C:\Users\mathiasc\AppData\Local\Arduino15\packages\MegaCoreX\hardware\megaavr\1.0.4\cores\coreX-corefiles/wiring.c:331
// Use internal oscillator if not defined. No need to manipulate the MCLKCTRLA register here
// because it's already done in the SYSCFG0 fuse byte
#else
#if (F_CPU == 20000000L)
  /* No division on clock */
  _PROTECTED_WRITE(CLKCTRL_MCLKCTRLB, 0x00);
    20e8:	88 ed       	ldi	r24, 0xD8	; 216
    20ea:	90 e0       	ldi	r25, 0x00	; 0
    20ec:	84 bf       	out	0x34, r24	; 52
    20ee:	90 93 61 00 	sts	0x0061, r25	; 0x800061 <__TEXT_REGION_LENGTH__+0x7f4061>
C:\Users\mathiasc\AppData\Local\Arduino15\packages\MegaCoreX\hardware\megaavr\1.0.4\cores\coreX-corefiles/wiring.c:359
#if defined(ADC0)

  /* ADC clock between 50-200 kHz */

#if (F_CPU >= 20000000L) // 20 MHz / 128 = 156.250 kHz
  ADC0.CTRLC |= ADC_PRESC_DIV128_gc;
    20f2:	80 91 02 06 	lds	r24, 0x0602	; 0x800602 <__TEXT_REGION_LENGTH__+0x7f4602>
    20f6:	86 60       	ori	r24, 0x06	; 6
    20f8:	80 93 02 06 	sts	0x0602, r24	; 0x800602 <__TEXT_REGION_LENGTH__+0x7f4602>
C:\Users\mathiasc\AppData\Local\Arduino15\packages\MegaCoreX\hardware\megaavr\1.0.4\cores\coreX-corefiles/wiring.c:375
#else                      // 128 kHz / 2 = 64 kHz -> This is the closest you can get, the prescaler is 2
  ADC0.CTRLC |= ADC_PRESC_DIV2_gc;
#endif

  /* Enable ADC */
  ADC0.CTRLA |= ADC_ENABLE_bm;
    20fc:	80 91 00 06 	lds	r24, 0x0600	; 0x800600 <__TEXT_REGION_LENGTH__+0x7f4600>
    2100:	81 60       	ori	r24, 0x01	; 1
    2102:	80 93 00 06 	sts	0x0600, r24	; 0x800600 <__TEXT_REGION_LENGTH__+0x7f4600>
C:\Users\mathiasc\AppData\Local\Arduino15\packages\MegaCoreX\hardware\megaavr\1.0.4\cores\coreX-corefiles/wiring.c:376
  analogReference(VDD);
    2106:	0e 94 fd 0c 	call	0x19fa	; 0x19fa <analogReference.constprop.33>
C:\Users\mathiasc\AppData\Local\Arduino15\packages\MegaCoreX\hardware\megaavr\1.0.4\cores\coreX-corefiles/wiring.c:380

#endif

  PORTMUX.USARTROUTEA = 0;
    210a:	10 92 e2 05 	sts	0x05E2, r1	; 0x8005e2 <__TEXT_REGION_LENGTH__+0x7f45e2>
setup_timers():
C:\Users\mathiasc\AppData\Local\Arduino15\packages\MegaCoreX\hardware\megaavr\1.0.4\cores\coreX-corefiles/wiring.c:419
void setup_timers()
{
  //  TYPE A TIMER

  // PORTMUX setting for TCA (defined in pins_arduino.h)
  PORTMUX.TCAROUTEA = TCA0_PINS;
    210e:	82 e0       	ldi	r24, 0x02	; 2
    2110:	80 93 e4 05 	sts	0x05E4, r24	; 0x8005e4 <__TEXT_REGION_LENGTH__+0x7f45e4>
C:\Users\mathiasc\AppData\Local\Arduino15\packages\MegaCoreX\hardware\megaavr\1.0.4\cores\coreX-corefiles/wiring.c:422

  // Enable split mode before anything else
  TCA0.SPLIT.CTRLD = TCA_SINGLE_SPLITM_bm;
    2114:	81 e0       	ldi	r24, 0x01	; 1
    2116:	80 93 03 0a 	sts	0x0A03, r24	; 0x800a03 <__TEXT_REGION_LENGTH__+0x7f4a03>
C:\Users\mathiasc\AppData\Local\Arduino15\packages\MegaCoreX\hardware\megaavr\1.0.4\cores\coreX-corefiles/wiring.c:426

  // Period setting, two 8 bit registers
  TCA0.SPLIT.LPER =
      TCA0.SPLIT.HPER = PWM_TIMER_PERIOD;
    211a:	8e ef       	ldi	r24, 0xFE	; 254
    211c:	80 93 27 0a 	sts	0x0A27, r24	; 0x800a27 <__TEXT_REGION_LENGTH__+0x7f4a27>
C:\Users\mathiasc\AppData\Local\Arduino15\packages\MegaCoreX\hardware\megaavr\1.0.4\cores\coreX-corefiles/wiring.c:425

  // Enable split mode before anything else
  TCA0.SPLIT.CTRLD = TCA_SINGLE_SPLITM_bm;

  // Period setting, two 8 bit registers
  TCA0.SPLIT.LPER =
    2120:	80 93 26 0a 	sts	0x0A26, r24	; 0x800a26 <__TEXT_REGION_LENGTH__+0x7f4a26>
C:\Users\mathiasc\AppData\Local\Arduino15\packages\MegaCoreX\hardware\megaavr\1.0.4\cores\coreX-corefiles/wiring.c:434
  TCA0.SPLIT.LCMP0 =
      TCA0.SPLIT.LCMP1 =
          TCA0.SPLIT.LCMP2 =
              TCA0.SPLIT.HCMP0 =
                  TCA0.SPLIT.HCMP1 =
                      TCA0.SPLIT.HCMP2 = PWM_TIMER_COMPARE;
    2124:	80 e8       	ldi	r24, 0x80	; 128
    2126:	80 93 2d 0a 	sts	0x0A2D, r24	; 0x800a2d <__TEXT_REGION_LENGTH__+0x7f4a2d>
C:\Users\mathiasc\AppData\Local\Arduino15\packages\MegaCoreX\hardware\megaavr\1.0.4\cores\coreX-corefiles/wiring.c:433
  // Default duty 50%, will re-assign in analogWrite()
  TCA0.SPLIT.LCMP0 =
      TCA0.SPLIT.LCMP1 =
          TCA0.SPLIT.LCMP2 =
              TCA0.SPLIT.HCMP0 =
                  TCA0.SPLIT.HCMP1 =
    212a:	80 93 2b 0a 	sts	0x0A2B, r24	; 0x800a2b <__TEXT_REGION_LENGTH__+0x7f4a2b>
C:\Users\mathiasc\AppData\Local\Arduino15\packages\MegaCoreX\hardware\megaavr\1.0.4\cores\coreX-corefiles/wiring.c:432

  // Default duty 50%, will re-assign in analogWrite()
  TCA0.SPLIT.LCMP0 =
      TCA0.SPLIT.LCMP1 =
          TCA0.SPLIT.LCMP2 =
              TCA0.SPLIT.HCMP0 =
    212e:	80 93 29 0a 	sts	0x0A29, r24	; 0x800a29 <__TEXT_REGION_LENGTH__+0x7f4a29>
C:\Users\mathiasc\AppData\Local\Arduino15\packages\MegaCoreX\hardware\megaavr\1.0.4\cores\coreX-corefiles/wiring.c:431
      TCA0.SPLIT.HPER = PWM_TIMER_PERIOD;

  // Default duty 50%, will re-assign in analogWrite()
  TCA0.SPLIT.LCMP0 =
      TCA0.SPLIT.LCMP1 =
          TCA0.SPLIT.LCMP2 =
    2132:	80 93 2c 0a 	sts	0x0A2C, r24	; 0x800a2c <__TEXT_REGION_LENGTH__+0x7f4a2c>
C:\Users\mathiasc\AppData\Local\Arduino15\packages\MegaCoreX\hardware\megaavr\1.0.4\cores\coreX-corefiles/wiring.c:430
  TCA0.SPLIT.LPER =
      TCA0.SPLIT.HPER = PWM_TIMER_PERIOD;

  // Default duty 50%, will re-assign in analogWrite()
  TCA0.SPLIT.LCMP0 =
      TCA0.SPLIT.LCMP1 =
    2136:	80 93 2a 0a 	sts	0x0A2A, r24	; 0x800a2a <__TEXT_REGION_LENGTH__+0x7f4a2a>
C:\Users\mathiasc\AppData\Local\Arduino15\packages\MegaCoreX\hardware\megaavr\1.0.4\cores\coreX-corefiles/wiring.c:429
  // Period setting, two 8 bit registers
  TCA0.SPLIT.LPER =
      TCA0.SPLIT.HPER = PWM_TIMER_PERIOD;

  // Default duty 50%, will re-assign in analogWrite()
  TCA0.SPLIT.LCMP0 =
    213a:	80 93 28 0a 	sts	0x0A28, r24	; 0x800a28 <__TEXT_REGION_LENGTH__+0x7f4a28>
C:\Users\mathiasc\AppData\Local\Arduino15\packages\MegaCoreX\hardware\megaavr\1.0.4\cores\coreX-corefiles/wiring.c:447
#elif F_CPU <= 8000000L
  // Use DIV16 prescaler (giving 250kHz clocke on 4MHz, 500kHz clock on 8MHz), enable TCA timer
  TCA0.SPLIT.CTRLA = (TCA_SPLIT_CLKSEL_DIV16_gc) | (TCA_SPLIT_ENABLE_bm);
#else
  // Use DIV64 prescaler (giving 250kHz clock on 16MHz), enable TCA timer
  TCA0.SPLIT.CTRLA = (TCA_SPLIT_CLKSEL_DIV64_gc) | (TCA_SPLIT_ENABLE_bm);
    213e:	8b e0       	ldi	r24, 0x0B	; 11
    2140:	80 93 00 0a 	sts	0x0A00, r24	; 0x800a00 <__TEXT_REGION_LENGTH__+0x7f4a00>
C:\Users\mathiasc\AppData\Local\Arduino15\packages\MegaCoreX\hardware\megaavr\1.0.4\cores\coreX-corefiles/wiring.c:453
#endif

  //  TYPE B TIMERS

  // Set up routing (defined in pins_arduino.h)
  PORTMUX.TCBROUTEA = 0
    2144:	87 e0       	ldi	r24, 0x07	; 7
    2146:	80 93 e5 05 	sts	0x05E5, r24	; 0x8005e5 <__TEXT_REGION_LENGTH__+0x7f45e5>
main():
C:\Users\mathiasc\AppData\Local\Arduino15\packages\MegaCoreX\hardware\megaavr\1.0.4\cores\coreX-corefiles/wiring.c:469
                      | TCB3_PINS
#endif
      ;

  // Start with TCB0
  TCB_t *timer_B = (TCB_t *)&TCB0;
    214a:	e0 e8       	ldi	r30, 0x80	; 128
    214c:	fa e0       	ldi	r31, 0x0A	; 10
setup_timers():
C:\Users\mathiasc\AppData\Local\Arduino15\packages\MegaCoreX\hardware\megaavr\1.0.4\cores\coreX-corefiles/wiring.c:486

  // Timer B Setup loop for TCB[0:end]
  do
  {
    // 8 bit PWM mode, but do not enable output yet, will do in analogWrite()
    timer_B->CTRLB = (TCB_CNTMODE_PWM8_gc);
    214e:	37 e0       	ldi	r19, 0x07	; 7
C:\Users\mathiasc\AppData\Local\Arduino15\packages\MegaCoreX\hardware\megaavr\1.0.4\cores\coreX-corefiles/wiring.c:489

    // Assign 8-bit period
    timer_B->CCMPL = PWM_TIMER_PERIOD;
    2150:	2e ef       	ldi	r18, 0xFE	; 254
C:\Users\mathiasc\AppData\Local\Arduino15\packages\MegaCoreX\hardware\megaavr\1.0.4\cores\coreX-corefiles/wiring.c:492

    // default duty 50%, set when output enabled
    timer_B->CCMPH = PWM_TIMER_COMPARE;
    2152:	90 e8       	ldi	r25, 0x80	; 128
C:\Users\mathiasc\AppData\Local\Arduino15\packages\MegaCoreX\hardware\megaavr\1.0.4\cores\coreX-corefiles/wiring.c:496

    // Use TCA clock (250kHz) and enable
    // (sync update commented out, might try to synchronize later
    timer_B->CTRLA = (TCB_CLKSEL_CLKTCA_gc)
    2154:	85 e0       	ldi	r24, 0x05	; 5
C:\Users\mathiasc\AppData\Local\Arduino15\packages\MegaCoreX\hardware\megaavr\1.0.4\cores\coreX-corefiles/wiring.c:486

  // Timer B Setup loop for TCB[0:end]
  do
  {
    // 8 bit PWM mode, but do not enable output yet, will do in analogWrite()
    timer_B->CTRLB = (TCB_CNTMODE_PWM8_gc);
    2156:	31 83       	std	Z+1, r19	; 0x01
C:\Users\mathiasc\AppData\Local\Arduino15\packages\MegaCoreX\hardware\megaavr\1.0.4\cores\coreX-corefiles/wiring.c:489

    // Assign 8-bit period
    timer_B->CCMPL = PWM_TIMER_PERIOD;
    2158:	24 87       	std	Z+12, r18	; 0x0c
C:\Users\mathiasc\AppData\Local\Arduino15\packages\MegaCoreX\hardware\megaavr\1.0.4\cores\coreX-corefiles/wiring.c:492

    // default duty 50%, set when output enabled
    timer_B->CCMPH = PWM_TIMER_COMPARE;
    215a:	95 87       	std	Z+13, r25	; 0x0d
C:\Users\mathiasc\AppData\Local\Arduino15\packages\MegaCoreX\hardware\megaavr\1.0.4\cores\coreX-corefiles/wiring.c:496

    // Use TCA clock (250kHz) and enable
    // (sync update commented out, might try to synchronize later
    timer_B->CTRLA = (TCB_CLKSEL_CLKTCA_gc)
    215c:	80 83       	st	Z, r24
C:\Users\mathiasc\AppData\Local\Arduino15\packages\MegaCoreX\hardware\megaavr\1.0.4\cores\coreX-corefiles/wiring.c:501
                     //|(TCB_SYNCUPD_bm)
                     | (TCB_ENABLE_bm);

    // Increment pointer to next TCB instance
    timer_B++;
    215e:	70 96       	adiw	r30, 0x10	; 16
C:\Users\mathiasc\AppData\Local\Arduino15\packages\MegaCoreX\hardware\megaavr\1.0.4\cores\coreX-corefiles/wiring.c:504

    // Stop when pointing to TCB3
  } while (timer_B <= timer_B_end);
    2160:	e0 3c       	cpi	r30, 0xC0	; 192
    2162:	4a e0       	ldi	r20, 0x0A	; 10
    2164:	f4 07       	cpc	r31, r20
    2166:	b9 f7       	brne	.-18     	; 0x2156 <main+0x7c>
init():
C:\Users\mathiasc\AppData\Local\Arduino15\packages\MegaCoreX\hardware\megaavr\1.0.4\cores\coreX-corefiles/wiring.c:389
  /********************* TCB for system time tracking **************************/

  // BUG: we can compensate for F_CPU by fine tuning value of TIME_TRACKING_TIMER_COUNT

  /* Select vanilla 16 bit periodic interrupt mode */
  _timer->CTRLB = TCB_CNTMODE_INT_gc;
    2168:	10 92 a1 0a 	sts	0x0AA1, r1	; 0x800aa1 <__TEXT_REGION_LENGTH__+0x7f4aa1>
C:\Users\mathiasc\AppData\Local\Arduino15\packages\MegaCoreX\hardware\megaavr\1.0.4\cores\coreX-corefiles/wiring.c:392

  /* TOP value for overflow every N clock cycles */
  _timer->CCMP = TIME_TRACKING_TIMER_COUNT - 1;
    216c:	8f e1       	ldi	r24, 0x1F	; 31
    216e:	9e e4       	ldi	r25, 0x4E	; 78
    2170:	80 93 ac 0a 	sts	0x0AAC, r24	; 0x800aac <__TEXT_REGION_LENGTH__+0x7f4aac>
    2174:	90 93 ad 0a 	sts	0x0AAD, r25	; 0x800aad <__TEXT_REGION_LENGTH__+0x7f4aad>
C:\Users\mathiasc\AppData\Local\Arduino15\packages\MegaCoreX\hardware\megaavr\1.0.4\cores\coreX-corefiles/wiring.c:395

  /* Enable TCB interrupt */
  _timer->INTCTRL |= TCB_CAPT_bm;
    2178:	80 91 a5 0a 	lds	r24, 0x0AA5	; 0x800aa5 <__TEXT_REGION_LENGTH__+0x7f4aa5>
    217c:	81 60       	ori	r24, 0x01	; 1
    217e:	80 93 a5 0a 	sts	0x0AA5, r24	; 0x800aa5 <__TEXT_REGION_LENGTH__+0x7f4aa5>
C:\Users\mathiasc\AppData\Local\Arduino15\packages\MegaCoreX\hardware\megaavr\1.0.4\cores\coreX-corefiles/wiring.c:399

  /* Clock selection is F_CPU/N -- which is independent of TCA */
#if TIME_TRACKING_TIMER_DIVIDER == 1
  _timer->CTRLA = TCB_CLKSEL_CLKDIV1_gc; /* F_CPU */
    2182:	10 92 a0 0a 	sts	0x0AA0, r1	; 0x800aa0 <__TEXT_REGION_LENGTH__+0x7f4aa0>
C:\Users\mathiasc\AppData\Local\Arduino15\packages\MegaCoreX\hardware\megaavr\1.0.4\cores\coreX-corefiles/wiring.c:407
#else
#assert "TIME_TRACKING_TIMER_DIVIDER not supported"
#endif

  /* Enable & start */
  _timer->CTRLA |= TCB_ENABLE_bm; /* Keep this last before enabling interrupts to ensure tracking as accurate as possible */
    2186:	80 91 a0 0a 	lds	r24, 0x0AA0	; 0x800aa0 <__TEXT_REGION_LENGTH__+0x7f4aa0>
    218a:	81 60       	ori	r24, 0x01	; 1
    218c:	80 93 a0 0a 	sts	0x0AA0, r24	; 0x800aa0 <__TEXT_REGION_LENGTH__+0x7f4aa0>
C:\Users\mathiasc\AppData\Local\Arduino15\packages\MegaCoreX\hardware\megaavr\1.0.4\cores\coreX-corefiles/wiring.c:411

  /*************************** ENABLE GLOBAL INTERRUPTS *************************/

  sei();
    2190:	78 94       	sei
_ZN5EERefC2Ei():
C:\Users\mathiasc\AppData\Local\Arduino15\packages\MegaCoreX\hardware\megaavr\1.0.4\libraries\EEPROM\src/EEPROM.h:50
}

struct EERef
{
  EERef(const int index)
      : index(index) {}
    2192:	82 e0       	ldi	r24, 0x02	; 2
    2194:	90 e0       	ldi	r25, 0x00	; 0
    2196:	89 83       	std	Y+1, r24	; 0x01
    2198:	9a 83       	std	Y+2, r25	; 0x02
_ZNK5EERefcvhEv():
C:\Users\mathiasc\AppData\Local\Arduino15\packages\MegaCoreX\hardware\megaavr\1.0.4\libraries\EEPROM\src/EEPROM.h:54

  //Access/read members.
  uint8_t operator*() const { return nvm_read_byte(index); }
  operator uint8_t() const { return **this; }
    219a:	ce 01       	movw	r24, r28
    219c:	01 96       	adiw	r24, 0x01	; 1
    219e:	0e 94 09 0a 	call	0x1412	; 0x1412 <EERef::operator*() const>
read_StoreTemperature():
C:\Users\mathiasc\AppData\Local\Temp\arduino_build_312787\sketch/HW_190409.cpp:383
 *************************************************************************************************************/    
uint16_t HW_190409::read_StoreTemperature()
{
   uint16_t saved_Temperature_1=0;

   saved_Temperature_1 = EEPROM.read(2);
    21a2:	08 2f       	mov	r16, r24
    21a4:	10 e0       	ldi	r17, 0x00	; 0
C:\Users\mathiasc\AppData\Local\Temp\arduino_build_312787\sketch/HW_190409.cpp:384
   saved_Temperature_1 = saved_Temperature_1 << 8;
    21a6:	10 2f       	mov	r17, r16
    21a8:	00 27       	eor	r16, r16
_ZN5EERefC2Ei():
C:\Users\mathiasc\AppData\Local\Arduino15\packages\MegaCoreX\hardware\megaavr\1.0.4\libraries\EEPROM\src/EEPROM.h:50
}

struct EERef
{
  EERef(const int index)
      : index(index) {}
    21aa:	83 e0       	ldi	r24, 0x03	; 3
    21ac:	90 e0       	ldi	r25, 0x00	; 0
    21ae:	89 83       	std	Y+1, r24	; 0x01
    21b0:	9a 83       	std	Y+2, r25	; 0x02
_ZNK5EERefcvhEv():
C:\Users\mathiasc\AppData\Local\Arduino15\packages\MegaCoreX\hardware\megaavr\1.0.4\libraries\EEPROM\src/EEPROM.h:54

  //Access/read members.
  uint8_t operator*() const { return nvm_read_byte(index); }
  operator uint8_t() const { return **this; }
    21b2:	ce 01       	movw	r24, r28
    21b4:	01 96       	adiw	r24, 0x01	; 1
    21b6:	0e 94 09 0a 	call	0x1412	; 0x1412 <EERef::operator*() const>
read_StoreTemperature():
C:\Users\mathiasc\AppData\Local\Temp\arduino_build_312787\sketch/HW_190409.cpp:385
   saved_Temperature_1 = saved_Temperature_1 | EEPROM.read(3);
    21ba:	08 2b       	or	r16, r24
C:\Users\mathiasc\AppData\Local\Temp\arduino_build_312787\sketch/HW_190409.cpp:387
  
   if( ( saved_Temperature_1 > MAX_TEMP) || ( saved_Temperature_1 < MIN_TEMP) ){
    21bc:	98 01       	movw	r18, r16
    21be:	22 53       	subi	r18, 0x32	; 50
    21c0:	31 09       	sbc	r19, r1
    21c2:	21 39       	cpi	r18, 0x91	; 145
    21c4:	31 40       	sbci	r19, 0x01	; 1
    21c6:	10 f0       	brcs	.+4      	; 0x21cc <main+0xf2>
main():
C:\Users\mathiasc\AppData\Local\Temp\arduino_build_312787\sketch/HW_190409.cpp:388
    saved_Temperature_1= MIN_TEMP ;
    21c8:	02 e3       	ldi	r16, 0x32	; 50
    21ca:	10 e0       	ldi	r17, 0x00	; 0
setup():
D:\Projects\190409-DIY_SOLDERING_IRON\Soldering-Station/Soldering-Station.ino:90
 Description: This function is for device initialisation.
**********************************************************************************************************/
void setup()
{  
   
    setpoint = Station.read_StoreTemperature();                 //Read previous saved temperature from EEPROM
    21cc:	00 93 20 28 	sts	0x2820, r16	; 0x802820 <setpoint>
    21d0:	10 93 21 28 	sts	0x2821, r17	; 0x802821 <setpoint+0x1>
pinMode():
    21d4:	60 e0       	ldi	r22, 0x00	; 0
    21d6:	8f e0       	ldi	r24, 0x0F	; 15
    21d8:	0e 94 dd 02 	call	0x5ba	; 0x5ba <pinMode.part.1>
digitalWrite():
    21dc:	61 e0       	ldi	r22, 0x01	; 1
    21de:	8f e0       	ldi	r24, 0x0F	; 15
    21e0:	0e 94 41 03 	call	0x682	; 0x682 <digitalWrite.part.2>
pinMode():
    21e4:	60 e0       	ldi	r22, 0x00	; 0
    21e6:	80 e1       	ldi	r24, 0x10	; 16
    21e8:	0e 94 dd 02 	call	0x5ba	; 0x5ba <pinMode.part.1>
digitalWrite():
    21ec:	61 e0       	ldi	r22, 0x01	; 1
    21ee:	80 e1       	ldi	r24, 0x10	; 16
    21f0:	0e 94 41 03 	call	0x682	; 0x682 <digitalWrite.part.2>
pinMode():
    21f4:	60 e0       	ldi	r22, 0x00	; 0
    21f6:	81 e1       	ldi	r24, 0x11	; 17
    21f8:	0e 94 dd 02 	call	0x5ba	; 0x5ba <pinMode.part.1>
digitalWrite():
    21fc:	61 e0       	ldi	r22, 0x01	; 1
    21fe:	81 e1       	ldi	r24, 0x11	; 17
    2200:	0e 94 41 03 	call	0x682	; 0x682 <digitalWrite.part.2>
pinMode():
    2204:	60 e0       	ldi	r22, 0x00	; 0
    2206:	82 e1       	ldi	r24, 0x12	; 18
    2208:	0e 94 dd 02 	call	0x5ba	; 0x5ba <pinMode.part.1>
digitalWrite():
    220c:	61 e0       	ldi	r22, 0x01	; 1
    220e:	82 e1       	ldi	r24, 0x12	; 18
    2210:	0e 94 41 03 	call	0x682	; 0x682 <digitalWrite.part.2>
pinMode():
    2214:	60 e0       	ldi	r22, 0x00	; 0
    2216:	83 e1       	ldi	r24, 0x13	; 19
    2218:	0e 94 dd 02 	call	0x5ba	; 0x5ba <pinMode.part.1>
digitalWrite():
    221c:	61 e0       	ldi	r22, 0x01	; 1
    221e:	83 e1       	ldi	r24, 0x13	; 19
    2220:	0e 94 41 03 	call	0x682	; 0x682 <digitalWrite.part.2>
pinMode():
    2224:	60 e0       	ldi	r22, 0x00	; 0
    2226:	89 e1       	ldi	r24, 0x19	; 25
    2228:	0e 94 dd 02 	call	0x5ba	; 0x5ba <pinMode.part.1>
digitalWrite():
    222c:	61 e0       	ldi	r22, 0x01	; 1
    222e:	89 e1       	ldi	r24, 0x19	; 25
    2230:	0e 94 41 03 	call	0x682	; 0x682 <digitalWrite.part.2>
pinMode():
    2234:	60 e0       	ldi	r22, 0x00	; 0
    2236:	8a e1       	ldi	r24, 0x1A	; 26
    2238:	0e 94 dd 02 	call	0x5ba	; 0x5ba <pinMode.part.1>
digitalWrite():
    223c:	61 e0       	ldi	r22, 0x01	; 1
    223e:	8a e1       	ldi	r24, 0x1A	; 26
    2240:	0e 94 41 03 	call	0x682	; 0x682 <digitalWrite.part.2>
pinMode():
    2244:	60 e0       	ldi	r22, 0x00	; 0
    2246:	8b e1       	ldi	r24, 0x1B	; 27
    2248:	0e 94 dd 02 	call	0x5ba	; 0x5ba <pinMode.part.1>
digitalWrite():
    224c:	61 e0       	ldi	r22, 0x01	; 1
    224e:	8b e1       	ldi	r24, 0x1B	; 27
    2250:	0e 94 41 03 	call	0x682	; 0x682 <digitalWrite.part.2>
pinMode():
    2254:	60 e0       	ldi	r22, 0x00	; 0
    2256:	8c e1       	ldi	r24, 0x1C	; 28
    2258:	0e 94 dd 02 	call	0x5ba	; 0x5ba <pinMode.part.1>
digitalWrite():
    225c:	61 e0       	ldi	r22, 0x01	; 1
    225e:	8c e1       	ldi	r24, 0x1C	; 28
    2260:	0e 94 41 03 	call	0x682	; 0x682 <digitalWrite.part.2>
pinMode():
    2264:	60 e0       	ldi	r22, 0x00	; 0
    2266:	8d e1       	ldi	r24, 0x1D	; 29
    2268:	0e 94 dd 02 	call	0x5ba	; 0x5ba <pinMode.part.1>
digitalWrite():
    226c:	61 e0       	ldi	r22, 0x01	; 1
    226e:	8d e1       	ldi	r24, 0x1D	; 29
    2270:	0e 94 41 03 	call	0x682	; 0x682 <digitalWrite.part.2>
pinMode():
    2274:	60 e0       	ldi	r22, 0x00	; 0
    2276:	87 e2       	ldi	r24, 0x27	; 39
    2278:	0e 94 dd 02 	call	0x5ba	; 0x5ba <pinMode.part.1>
digitalWrite():
    227c:	61 e0       	ldi	r22, 0x01	; 1
    227e:	87 e2       	ldi	r24, 0x27	; 39
    2280:	0e 94 41 03 	call	0x682	; 0x682 <digitalWrite.part.2>
pinMode():
    2284:	60 e0       	ldi	r22, 0x00	; 0
    2286:	84 e2       	ldi	r24, 0x24	; 36
    2288:	0e 94 dd 02 	call	0x5ba	; 0x5ba <pinMode.part.1>
digitalWrite():
    228c:	61 e0       	ldi	r22, 0x01	; 1
    228e:	84 e2       	ldi	r24, 0x24	; 36
    2290:	0e 94 41 03 	call	0x682	; 0x682 <digitalWrite.part.2>
pinMode():
    2294:	60 e0       	ldi	r22, 0x00	; 0
    2296:	85 e2       	ldi	r24, 0x25	; 37
    2298:	0e 94 dd 02 	call	0x5ba	; 0x5ba <pinMode.part.1>
digitalWrite():
    229c:	61 e0       	ldi	r22, 0x01	; 1
    229e:	85 e2       	ldi	r24, 0x25	; 37
    22a0:	0e 94 41 03 	call	0x682	; 0x682 <digitalWrite.part.2>
pinMode():
    22a4:	60 e0       	ldi	r22, 0x00	; 0
    22a6:	8f e1       	ldi	r24, 0x1F	; 31
    22a8:	0e 94 dd 02 	call	0x5ba	; 0x5ba <pinMode.part.1>
digitalWrite():
    22ac:	61 e0       	ldi	r22, 0x01	; 1
    22ae:	8f e1       	ldi	r24, 0x1F	; 31
    22b0:	0e 94 41 03 	call	0x682	; 0x682 <digitalWrite.part.2>
pinMode():
    22b4:	60 e0       	ldi	r22, 0x00	; 0
    22b6:	80 e2       	ldi	r24, 0x20	; 32
    22b8:	0e 94 dd 02 	call	0x5ba	; 0x5ba <pinMode.part.1>
digitalWrite():
    22bc:	61 e0       	ldi	r22, 0x01	; 1
    22be:	80 e2       	ldi	r24, 0x20	; 32
    22c0:	0e 94 41 03 	call	0x682	; 0x682 <digitalWrite.part.2>
pinMode():
    22c4:	60 e0       	ldi	r22, 0x00	; 0
    22c6:	81 e2       	ldi	r24, 0x21	; 33
    22c8:	0e 94 dd 02 	call	0x5ba	; 0x5ba <pinMode.part.1>
digitalWrite():
    22cc:	61 e0       	ldi	r22, 0x01	; 1
    22ce:	81 e2       	ldi	r24, 0x21	; 33
    22d0:	0e 94 41 03 	call	0x682	; 0x682 <digitalWrite.part.2>
pinMode():
    22d4:	60 e0       	ldi	r22, 0x00	; 0
    22d6:	82 e2       	ldi	r24, 0x22	; 34
    22d8:	0e 94 dd 02 	call	0x5ba	; 0x5ba <pinMode.part.1>
digitalWrite():
    22dc:	61 e0       	ldi	r22, 0x01	; 1
    22de:	82 e2       	ldi	r24, 0x22	; 34
    22e0:	0e 94 41 03 	call	0x682	; 0x682 <digitalWrite.part.2>
pinMode():
    22e4:	60 e0       	ldi	r22, 0x00	; 0
    22e6:	83 e2       	ldi	r24, 0x23	; 35
    22e8:	0e 94 dd 02 	call	0x5ba	; 0x5ba <pinMode.part.1>
digitalWrite():
    22ec:	61 e0       	ldi	r22, 0x01	; 1
    22ee:	83 e2       	ldi	r24, 0x23	; 35
    22f0:	0e 94 41 03 	call	0x682	; 0x682 <digitalWrite.part.2>
pinMode():
    22f4:	60 e0       	ldi	r22, 0x00	; 0
    22f6:	80 e0       	ldi	r24, 0x00	; 0
    22f8:	0e 94 dd 02 	call	0x5ba	; 0x5ba <pinMode.part.1>
digitalWrite():
    22fc:	61 e0       	ldi	r22, 0x01	; 1
    22fe:	80 e0       	ldi	r24, 0x00	; 0
    2300:	0e 94 41 03 	call	0x682	; 0x682 <digitalWrite.part.2>
pinMode():
    2304:	60 e0       	ldi	r22, 0x00	; 0
    2306:	81 e0       	ldi	r24, 0x01	; 1
    2308:	0e 94 dd 02 	call	0x5ba	; 0x5ba <pinMode.part.1>
digitalWrite():
    230c:	61 e0       	ldi	r22, 0x01	; 1
    230e:	81 e0       	ldi	r24, 0x01	; 1
    2310:	0e 94 41 03 	call	0x682	; 0x682 <digitalWrite.part.2>
pinMode():
    2314:	61 e0       	ldi	r22, 0x01	; 1
    2316:	8e e0       	ldi	r24, 0x0E	; 14
    2318:	0e 94 dd 02 	call	0x5ba	; 0x5ba <pinMode.part.1>
digitalWrite():
    231c:	60 e0       	ldi	r22, 0x00	; 0
    231e:	8e e0       	ldi	r24, 0x0E	; 14
    2320:	0e 94 41 03 	call	0x682	; 0x682 <digitalWrite.part.2>
pinMode():
    2324:	61 e0       	ldi	r22, 0x01	; 1
    2326:	8e e1       	ldi	r24, 0x1E	; 30
    2328:	0e 94 dd 02 	call	0x5ba	; 0x5ba <pinMode.part.1>
digitalWrite():
    232c:	60 e0       	ldi	r22, 0x00	; 0
    232e:	8e e1       	ldi	r24, 0x1E	; 30
    2330:	0e 94 41 03 	call	0x682	; 0x682 <digitalWrite.part.2>
pinMode():
    2334:	60 e0       	ldi	r22, 0x00	; 0
    2336:	88 e1       	ldi	r24, 0x18	; 24
    2338:	0e 94 dd 02 	call	0x5ba	; 0x5ba <pinMode.part.1>
digitalWrite():
    233c:	60 e0       	ldi	r22, 0x00	; 0
    233e:	88 e1       	ldi	r24, 0x18	; 24
    2340:	0e 94 41 03 	call	0x682	; 0x682 <digitalWrite.part.2>
pinMode():
    2344:	60 e0       	ldi	r22, 0x00	; 0
    2346:	86 e1       	ldi	r24, 0x16	; 22
    2348:	0e 94 dd 02 	call	0x5ba	; 0x5ba <pinMode.part.1>
digitalWrite():
    234c:	60 e0       	ldi	r22, 0x00	; 0
    234e:	86 e1       	ldi	r24, 0x16	; 22
    2350:	0e 94 41 03 	call	0x682	; 0x682 <digitalWrite.part.2>
pinMode():
    2354:	60 e0       	ldi	r22, 0x00	; 0
    2356:	87 e1       	ldi	r24, 0x17	; 23
    2358:	0e 94 dd 02 	call	0x5ba	; 0x5ba <pinMode.part.1>
digitalWrite():
    235c:	60 e0       	ldi	r22, 0x00	; 0
    235e:	87 e1       	ldi	r24, 0x17	; 23
    2360:	0e 94 41 03 	call	0x682	; 0x682 <digitalWrite.part.2>
pinMode():
    2364:	60 e0       	ldi	r22, 0x00	; 0
    2366:	82 e0       	ldi	r24, 0x02	; 2
    2368:	0e 94 dd 02 	call	0x5ba	; 0x5ba <pinMode.part.1>
digitalWrite():
    236c:	60 e0       	ldi	r22, 0x00	; 0
    236e:	82 e0       	ldi	r24, 0x02	; 2
    2370:	0e 94 41 03 	call	0x682	; 0x682 <digitalWrite.part.2>
pinMode():
    2374:	60 e0       	ldi	r22, 0x00	; 0
    2376:	83 e0       	ldi	r24, 0x03	; 3
    2378:	0e 94 dd 02 	call	0x5ba	; 0x5ba <pinMode.part.1>
digitalWrite():
    237c:	60 e0       	ldi	r22, 0x00	; 0
    237e:	82 e0       	ldi	r24, 0x02	; 2
    2380:	0e 94 41 03 	call	0x682	; 0x682 <digitalWrite.part.2>
pinMode():
    2384:	60 e0       	ldi	r22, 0x00	; 0
    2386:	84 e0       	ldi	r24, 0x04	; 4
    2388:	0e 94 dd 02 	call	0x5ba	; 0x5ba <pinMode.part.1>
digitalWrite():
    238c:	61 e0       	ldi	r22, 0x01	; 1
    238e:	84 e0       	ldi	r24, 0x04	; 4
    2390:	0e 94 41 03 	call	0x682	; 0x682 <digitalWrite.part.2>
pinMode():
    2394:	60 e0       	ldi	r22, 0x00	; 0
    2396:	85 e0       	ldi	r24, 0x05	; 5
    2398:	0e 94 dd 02 	call	0x5ba	; 0x5ba <pinMode.part.1>
digitalWrite():
    239c:	61 e0       	ldi	r22, 0x01	; 1
    239e:	85 e0       	ldi	r24, 0x05	; 5
    23a0:	0e 94 41 03 	call	0x682	; 0x682 <digitalWrite.part.2>
pinMode():
    23a4:	60 e0       	ldi	r22, 0x00	; 0
    23a6:	86 e0       	ldi	r24, 0x06	; 6
    23a8:	0e 94 dd 02 	call	0x5ba	; 0x5ba <pinMode.part.1>
digitalWrite():
    23ac:	61 e0       	ldi	r22, 0x01	; 1
    23ae:	86 e0       	ldi	r24, 0x06	; 6
    23b0:	0e 94 41 03 	call	0x682	; 0x682 <digitalWrite.part.2>
pinMode():
    23b4:	60 e0       	ldi	r22, 0x00	; 0
    23b6:	87 e0       	ldi	r24, 0x07	; 7
    23b8:	0e 94 dd 02 	call	0x5ba	; 0x5ba <pinMode.part.1>
digitalWrite():
    23bc:	61 e0       	ldi	r22, 0x01	; 1
    23be:	87 e0       	ldi	r24, 0x07	; 7
    23c0:	0e 94 41 03 	call	0x682	; 0x682 <digitalWrite.part.2>
pinMode():
    23c4:	61 e0       	ldi	r22, 0x01	; 1
    23c6:	83 e0       	ldi	r24, 0x03	; 3
    23c8:	0e 94 dd 02 	call	0x5ba	; 0x5ba <pinMode.part.1>
    23cc:	61 e0       	ldi	r22, 0x01	; 1
    23ce:	82 e0       	ldi	r24, 0x02	; 2
    23d0:	0e 94 dd 02 	call	0x5ba	; 0x5ba <pinMode.part.1>
clearDisplay():
C:\Users\mathiasc\Documents\Arduino\libraries\Grove_4-Digit_Display/TM1637.cpp:274
        display(i, 0x7f);
    }
}

void TM1637::clearDisplay(void) {
    display(0x00, 0x7f);
    23d4:	6f e7       	ldi	r22, 0x7F	; 127
    23d6:	80 e0       	ldi	r24, 0x00	; 0
    23d8:	0e 94 c8 04 	call	0x990	; 0x990 <TM1637::display(unsigned char, signed char) [clone .constprop.55]>
C:\Users\mathiasc\Documents\Arduino\libraries\Grove_4-Digit_Display/TM1637.cpp:275
    display(0x01, 0x7f);
    23dc:	6f e7       	ldi	r22, 0x7F	; 127
    23de:	81 e0       	ldi	r24, 0x01	; 1
    23e0:	0e 94 c8 04 	call	0x990	; 0x990 <TM1637::display(unsigned char, signed char) [clone .constprop.55]>
C:\Users\mathiasc\Documents\Arduino\libraries\Grove_4-Digit_Display/TM1637.cpp:276
    display(0x02, 0x7f);
    23e4:	6f e7       	ldi	r22, 0x7F	; 127
    23e6:	82 e0       	ldi	r24, 0x02	; 2
    23e8:	0e 94 c8 04 	call	0x990	; 0x990 <TM1637::display(unsigned char, signed char) [clone .constprop.55]>
C:\Users\mathiasc\Documents\Arduino\libraries\Grove_4-Digit_Display/TM1637.cpp:277
    display(0x03, 0x7f);
    23ec:	6f e7       	ldi	r22, 0x7F	; 127
    23ee:	83 e0       	ldi	r24, 0x03	; 3
    23f0:	0e 94 c8 04 	call	0x990	; 0x990 <TM1637::display(unsigned char, signed char) [clone .constprop.55]>
set():
C:\Users\mathiasc\Documents\Arduino\libraries\Grove_4-Digit_Display/TM1637.cpp:282
}

// To take effect the next time it displays.
void TM1637::set(uint8_t brightness, uint8_t set_data, uint8_t set_addr) {
    cmd_set_data = set_data;
    23f4:	80 e4       	ldi	r24, 0x40	; 64
    23f6:	80 93 44 29 	sts	0x2944, r24	; 0x802944 <tm1637>
C:\Users\mathiasc\Documents\Arduino\libraries\Grove_4-Digit_Display/TM1637.cpp:283
    cmd_set_addr = set_addr;
    23fa:	80 ec       	ldi	r24, 0xC0	; 192
    23fc:	80 93 45 29 	sts	0x2945, r24	; 0x802945 <tm1637+0x1>
C:\Users\mathiasc\Documents\Arduino\libraries\Grove_4-Digit_Display/TM1637.cpp:285
    //Set the brightness and it takes effect the next time it displays.
    cmd_disp_ctrl = 0x88 + brightness;
    2400:	8a e8       	ldi	r24, 0x8A	; 138
    2402:	80 93 46 29 	sts	0x2946, r24	; 0x802946 <tm1637+0x2>
main():
C:\Users\mathiasc\Documents\Arduino\libraries\Grove_4-Digit_Display/TM1637.cpp:232
    // Colon is used instead of decimal point if decimal == 2
    // Be aware of int size limitations (up to +-2^15 = +-32767)

    int number = fabs(num) * pow(10, decimal);

    for (int i = 0; i < DIGITS - (show_minus && num < 0 ? 1 : 0); ++i) {
    2406:	10 e0       	ldi	r17, 0x00	; 0
    2408:	00 e0       	ldi	r16, 0x00	; 0
C:\Users\mathiasc\Documents\Arduino\libraries\Grove_4-Digit_Display/TM1637.cpp:230
void TM1637::displayNum(float num, int decimal, bool show_minus) {
    // Displays number with decimal places (no decimal point implementation)
    // Colon is used instead of decimal point if decimal == 2
    // Be aware of int size limitations (up to +-2^15 = +-32767)

    int number = fabs(num) * pow(10, decimal);
    240a:	98 eb       	ldi	r25, 0xB8	; 184
    240c:	e9 2e       	mov	r14, r25
    240e:	92 e2       	ldi	r25, 0x22	; 34
    2410:	f9 2e       	mov	r15, r25
displayNum():
C:\Users\mathiasc\Documents\Arduino\libraries\Grove_4-Digit_Display/TM1637.cpp:236

    for (int i = 0; i < DIGITS - (show_minus && num < 0 ? 1 : 0); ++i) {
        int j = DIGITS - i - 1;

        if (number != 0) {
            display(j, number % 10);
    2412:	2a e0       	ldi	r18, 0x0A	; 10
    2414:	c2 2e       	mov	r12, r18
    2416:	d1 2c       	mov	r13, r1
C:\Users\mathiasc\Documents\Arduino\libraries\Grove_4-Digit_Display/TM1637.cpp:232
    // Colon is used instead of decimal point if decimal == 2
    // Be aware of int size limitations (up to +-2^15 = +-32767)

    int number = fabs(num) * pow(10, decimal);

    for (int i = 0; i < DIGITS - (show_minus && num < 0 ? 1 : 0); ++i) {
    2418:	20 91 48 29 	lds	r18, 0x2948	; 0x802948 <tm1637+0x4>
    241c:	30 91 49 29 	lds	r19, 0x2949	; 0x802949 <tm1637+0x5>
    2420:	02 17       	cp	r16, r18
    2422:	13 07       	cpc	r17, r19
    2424:	c4 f4       	brge	.+48     	; 0x2456 <main+0x37c>
C:\Users\mathiasc\Documents\Arduino\libraries\Grove_4-Digit_Display/TM1637.cpp:233
        int j = DIGITS - i - 1;
    2426:	20 1b       	sub	r18, r16
    2428:	31 0b       	sbc	r19, r17
    242a:	21 50       	subi	r18, 0x01	; 1
    242c:	31 09       	sbc	r19, r1
C:\Users\mathiasc\Documents\Arduino\libraries\Grove_4-Digit_Display/TM1637.cpp:238

        if (number != 0) {
            display(j, number % 10);
        } else {
            display(j, 0x7f);    // display nothing
    242e:	6f e7       	ldi	r22, 0x7F	; 127
C:\Users\mathiasc\Documents\Arduino\libraries\Grove_4-Digit_Display/TM1637.cpp:235
    int number = fabs(num) * pow(10, decimal);

    for (int i = 0; i < DIGITS - (show_minus && num < 0 ? 1 : 0); ++i) {
        int j = DIGITS - i - 1;

        if (number != 0) {
    2430:	e1 14       	cp	r14, r1
    2432:	f1 04       	cpc	r15, r1
    2434:	29 f0       	breq	.+10     	; 0x2440 <main+0x366>
C:\Users\mathiasc\Documents\Arduino\libraries\Grove_4-Digit_Display/TM1637.cpp:236
            display(j, number % 10);
    2436:	c7 01       	movw	r24, r14
    2438:	b6 01       	movw	r22, r12
    243a:	0e 94 0e 1b 	call	0x361c	; 0x361c <__divmodhi4>
    243e:	68 2f       	mov	r22, r24
C:\Users\mathiasc\Documents\Arduino\libraries\Grove_4-Digit_Display/TM1637.cpp:238
        } else {
            display(j, 0x7f);    // display nothing
    2440:	82 2f       	mov	r24, r18
    2442:	0e 94 c8 04 	call	0x990	; 0x990 <TM1637::display(unsigned char, signed char) [clone .constprop.55]>
C:\Users\mathiasc\Documents\Arduino\libraries\Grove_4-Digit_Display/TM1637.cpp:241
        }

        number /= 10;
    2446:	c7 01       	movw	r24, r14
    2448:	b6 01       	movw	r22, r12
    244a:	0e 94 0e 1b 	call	0x361c	; 0x361c <__divmodhi4>
    244e:	7b 01       	movw	r14, r22
C:\Users\mathiasc\Documents\Arduino\libraries\Grove_4-Digit_Display/TM1637.cpp:232
    // Colon is used instead of decimal point if decimal == 2
    // Be aware of int size limitations (up to +-2^15 = +-32767)

    int number = fabs(num) * pow(10, decimal);

    for (int i = 0; i < DIGITS - (show_minus && num < 0 ? 1 : 0); ++i) {
    2450:	0f 5f       	subi	r16, 0xFF	; 255
    2452:	1f 4f       	sbci	r17, 0xFF	; 255
    2454:	e1 cf       	rjmp	.-62     	; 0x2418 <main+0x33e>
point():
C:\Users\mathiasc\Documents\Arduino\libraries\Grove_4-Digit_Display/TM1637.cpp:291
}

// Whether to light the clock point ":".
// To take effect the next time it displays.
void TM1637::point(boolean PointFlag) {
    _PointFlag = PointFlag;
    2456:	10 92 47 29 	sts	0x2947, r1	; 0x802947 <tm1637+0x3>
GetSolderingIron():
C:\Users\mathiasc\AppData\Local\Temp\arduino_build_312787\sketch/HW_190409.cpp:323
 Input:       None
 Output:      SolderingIronType_t
 Discription: Get the currently configured iron form the station
**********************************************************************************************************/
SolderingIronType_t HW_190409::GetSolderingIron( void ){
  return read_StoreIronConfig();
    245a:	0e 94 41 0a 	call	0x1482	; 0x1482 <HW_190409::read_StoreIronConfig() [clone .constprop.61]>
Setup():
C:\Users\mathiasc\AppData\Local\Temp\arduino_build_312787\sketch/HW_190409.cpp:52
**********************************************************************************************************/
void HW_190409::Setup( void (*cb_250us_Timer)(void) ){
    setup_gpio();
    Frontend.display_setup(); 

    SetSolderingIron(GetSolderingIron()); //This will restore confing from EEPROM
    245e:	0e 94 7c 0a 	call	0x14f8	; 0x14f8 <HW_190409::SetSolderingIron(SolderingIronType_t) [clone .constprop.62]>
C:\Users\mathiasc\AppData\Local\Temp\arduino_build_312787\sketch/HW_190409.cpp:55
    //0.1ms timer with callback attached
    //This will be called in front of setup() and allow to filldle with timers
    cli();
    2462:	f8 94       	cli
C:\Users\mathiasc\AppData\Local\Temp\arduino_build_312787\sketch/HW_190409.cpp:57
    /* Select vanilla 16 bit periodic interrupt mode */
    TCB3.CTRLB = TCB_CNTMODE_INT_gc;
    2464:	10 92 b1 0a 	sts	0x0AB1, r1	; 0x800ab1 <__TEXT_REGION_LENGTH__+0x7f4ab1>
C:\Users\mathiasc\AppData\Local\Temp\arduino_build_312787\sketch/HW_190409.cpp:60

    /* TOP value for overflow every N clock cycles */
    TCB3.CCMP = ((TIME_TRACKING_TIMER_COUNT/4) - 1);
    2468:	87 e8       	ldi	r24, 0x87	; 135
    246a:	93 e1       	ldi	r25, 0x13	; 19
    246c:	80 93 bc 0a 	sts	0x0ABC, r24	; 0x800abc <__TEXT_REGION_LENGTH__+0x7f4abc>
    2470:	90 93 bd 0a 	sts	0x0ABD, r25	; 0x800abd <__TEXT_REGION_LENGTH__+0x7f4abd>
C:\Users\mathiasc\AppData\Local\Temp\arduino_build_312787\sketch/HW_190409.cpp:63

    /* Enable TCB interrupt */
    TCB3.INTCTRL |= TCB_CAPT_bm;
    2474:	80 91 b5 0a 	lds	r24, 0x0AB5	; 0x800ab5 <__TEXT_REGION_LENGTH__+0x7f4ab5>
    2478:	81 60       	ori	r24, 0x01	; 1
    247a:	80 93 b5 0a 	sts	0x0AB5, r24	; 0x800ab5 <__TEXT_REGION_LENGTH__+0x7f4ab5>
C:\Users\mathiasc\AppData\Local\Temp\arduino_build_312787\sketch/HW_190409.cpp:66

    /* Clock selection is F_CPU/N -- which is independent of TCA */
    TCB3.CTRLA = TCB_CLKSEL_CLKDIV1_gc; /* F_CPU */
    247e:	10 92 b0 0a 	sts	0x0AB0, r1	; 0x800ab0 <__TEXT_REGION_LENGTH__+0x7f4ab0>
C:\Users\mathiasc\AppData\Local\Temp\arduino_build_312787\sketch/HW_190409.cpp:68
    /* Enable & start */
    TCB3.CTRLA |= TCB_ENABLE_bm; /* Keep this last before enabling interrupts to ensure tracking as accurate as possible */
    2482:	80 91 b0 0a 	lds	r24, 0x0AB0	; 0x800ab0 <__TEXT_REGION_LENGTH__+0x7f4ab0>
    2486:	81 60       	ori	r24, 0x01	; 1
    2488:	80 93 b0 0a 	sts	0x0AB0, r24	; 0x800ab0 <__TEXT_REGION_LENGTH__+0x7f4ab0>
C:\Users\mathiasc\AppData\Local\Temp\arduino_build_312787\sketch/HW_190409.cpp:70

    __cb_250us_Timer = cb_250us_Timer;
    248c:	86 e6       	ldi	r24, 0x66	; 102
    248e:	9b e0       	ldi	r25, 0x0B	; 11
    2490:	80 93 46 28 	sts	0x2846, r24	; 0x802846 <__cb_250us_Timer>
    2494:	90 93 47 28 	sts	0x2847, r25	; 0x802847 <__cb_250us_Timer+0x1>
C:\Users\mathiasc\AppData\Local\Temp\arduino_build_312787\sketch/HW_190409.cpp:71
    __cb_fe1ms_Timer = &Frontend;
    2498:	8a e5       	ldi	r24, 0x5A	; 90
    249a:	99 e2       	ldi	r25, 0x29	; 41
    249c:	80 93 44 28 	sts	0x2844, r24	; 0x802844 <__cb_fe1ms_Timer>
    24a0:	90 93 45 28 	sts	0x2845, r25	; 0x802845 <__cb_fe1ms_Timer+0x1>
C:\Users\mathiasc\AppData\Local\Temp\arduino_build_312787\sketch/HW_190409.cpp:76
 
    //This will reconfigure the pwm to 16bit mode
    
    //Every bit set to 1 will enable output on its pin
    PORTC.DIRSET = ( 1<< PIN0 );
    24a4:	91 e0       	ldi	r25, 0x01	; 1
    24a6:	90 93 41 04 	sts	0x0441, r25	; 0x800441 <__TEXT_REGION_LENGTH__+0x7f4441>
C:\Users\mathiasc\AppData\Local\Temp\arduino_build_312787\sketch/HW_190409.cpp:78
        //Disable timer, keep devider
    TCA0.SPLIT.CTRLA = 0x00; //Reset default
    24aa:	10 92 00 0a 	sts	0x0A00, r1	; 0x800a00 <__TEXT_REGION_LENGTH__+0x7f4a00>
C:\Users\mathiasc\AppData\Local\Temp\arduino_build_312787\sketch/HW_190409.cpp:80
    // PORTMUX setting for TCA -> outputs [2:5] point to PORTC pins [2:5]
    PORTMUX.TCAROUTEA  = PORTMUX_TCA0_PORTC_gc;
    24ae:	82 e0       	ldi	r24, 0x02	; 2
    24b0:	80 93 e4 05 	sts	0x05E4, r24	; 0x8005e4 <__TEXT_REGION_LENGTH__+0x7f45e4>
C:\Users\mathiasc\AppData\Local\Temp\arduino_build_312787\sketch/HW_190409.cpp:82
    // Disable split mode 
    TCA0.SPLIT.CTRLD =0x00;
    24b4:	10 92 03 0a 	sts	0x0A03, r1	; 0x800a03 <__TEXT_REGION_LENGTH__+0x7f4a03>
C:\Users\mathiasc\AppData\Local\Temp\arduino_build_312787\sketch/HW_190409.cpp:84
    // Reset all Outputs
    TCA0.SINGLE.CTRLB = 0x00; //Set register to Restvalue
    24b8:	10 92 01 0a 	sts	0x0A01, r1	; 0x800a01 <__TEXT_REGION_LENGTH__+0x7f4a01>
C:\Users\mathiasc\AppData\Local\Temp\arduino_build_312787\sketch/HW_190409.cpp:88
    //Timer is back to 16Bit normal mode

    /* disable event counting */
    TCA0.SINGLE.EVCTRL &= ~(TCA_SINGLE_CNTEI_bm); 
    24bc:	80 91 09 0a 	lds	r24, 0x0A09	; 0x800a09 <__TEXT_REGION_LENGTH__+0x7f4a09>
    24c0:	8e 7f       	andi	r24, 0xFE	; 254
    24c2:	80 93 09 0a 	sts	0x0A09, r24	; 0x800a09 <__TEXT_REGION_LENGTH__+0x7f4a09>
C:\Users\mathiasc\AppData\Local\Temp\arduino_build_312787\sketch/HW_190409.cpp:90
    
    TCA0.SINGLE.CTRLB = TCA_SINGLE_CMP0EN_bm            /* enable compare channel 0 */
    24c6:	83 e1       	ldi	r24, 0x13	; 19
    24c8:	80 93 01 0a 	sts	0x0A01, r24	; 0x800a01 <__TEXT_REGION_LENGTH__+0x7f4a01>
C:\Users\mathiasc\AppData\Local\Temp\arduino_build_312787\sketch/HW_190409.cpp:93
                        | TCA_SINGLE_WGMODE_SINGLESLOPE_gc;    /* set dual-slope PWM mode */
    //We set 0% duty here 
    TCA0.SINGLE.PERBUF = 0x800; 
    24cc:	20 e0       	ldi	r18, 0x00	; 0
    24ce:	38 e0       	ldi	r19, 0x08	; 8
    24d0:	20 93 36 0a 	sts	0x0A36, r18	; 0x800a36 <__TEXT_REGION_LENGTH__+0x7f4a36>
    24d4:	30 93 37 0a 	sts	0x0A37, r19	; 0x800a37 <__TEXT_REGION_LENGTH__+0x7f4a37>
C:\Users\mathiasc\AppData\Local\Temp\arduino_build_312787\sketch/HW_190409.cpp:94
    TCA0.SINGLE.CMP0BUF = 0x000;
    24d8:	10 92 38 0a 	sts	0x0A38, r1	; 0x800a38 <__TEXT_REGION_LENGTH__+0x7f4a38>
    24dc:	10 92 39 0a 	sts	0x0A39, r1	; 0x800a39 <__TEXT_REGION_LENGTH__+0x7f4a39>
C:\Users\mathiasc\AppData\Local\Temp\arduino_build_312787\sketch/HW_190409.cpp:96
    //Enable Timer: PWM to ~10kHz , ~20MHz Clock
    TCA0.SINGLE.CTRLA =  TCA_SINGLE_CLKSEL_DIV1_gc        /* set clock source (sys_clk/4) */
    24e0:	90 93 00 0a 	sts	0x0A00, r25	; 0x800a00 <__TEXT_REGION_LENGTH__+0x7f4a00>
C:\Users\mathiasc\AppData\Local\Temp\arduino_build_312787\sketch/HW_190409.cpp:99
                        | TCA_SINGLE_ENABLE_bm;           /* start timer */
                        
    sei();
    24e4:	78 94       	sei
setup():
D:\Projects\190409-DIY_SOLDERING_IRON\Soldering-Station/Soldering-Station.ino:92
    Station.Setup(Timer_250us_Callback);                  //Hardwaresetup for the system                                  
    Serial.begin(115200);
    24e6:	40 e0       	ldi	r20, 0x00	; 0
    24e8:	52 ec       	ldi	r21, 0xC2	; 194
    24ea:	61 e0       	ldi	r22, 0x01	; 1
    24ec:	70 e0       	ldi	r23, 0x00	; 0
    24ee:	87 ea       	ldi	r24, 0xA7	; 167
    24f0:	98 e2       	ldi	r25, 0x28	; 40
    24f2:	0e 94 fb 09 	call	0x13f6	; 0x13f6 <UartClass::begin(unsigned long)>
rotary_EncoderEnable():
D:\Projects\190409-DIY_SOLDERING_IRON\Soldering-Station/Soldering-Station.ino:501
 Output:      None
 Description: Configure pin change interrupts for rotary encoder pin 
 *************************************************************************************************************/    
void rotary_EncoderEnable()
{   
    RotaryEncoderLocked=0;
    24f6:	10 92 a0 28 	sts	0x28A0, r1	; 0x8028a0 <RotaryEncoderLocked>
setup():
D:\Projects\190409-DIY_SOLDERING_IRON\Soldering-Station/Soldering-Station.ino:94
   
    setpoint = Station.read_StoreTemperature();                 //Read previous saved temperature from EEPROM
    Station.Setup(Timer_250us_Callback);                  //Hardwaresetup for the system                                  
    Serial.begin(115200);
    rotary_EncoderEnable();                             //Pin Change interrupt setting
    powerSave_TimerReset();                             //Reset timoutcounter
    24fa:	0e 94 92 08 	call	0x1124	; 0x1124 <powerSave_TimerReset()>
Off():
C:\Users\mathiasc\AppData\Local\Temp\arduino_build_312787\sketch/PWM_190409.cpp:38
 Discription: Turns the PWM off
**********************************************************************************************************/
void PWM_190409::Off( void ) {

  //Disable PWM
  TCA0.SINGLE.CMP0BUF=0;
    24fe:	10 92 38 0a 	sts	0x0A38, r1	; 0x800a38 <__TEXT_REGION_LENGTH__+0x7f4a38>
    2502:	10 92 39 0a 	sts	0x0A39, r1	; 0x800a39 <__TEXT_REGION_LENGTH__+0x7f4a39>
setup():
D:\Projects\190409-DIY_SOLDERING_IRON\Soldering-Station/Soldering-Station.ino:96
    Station.PWM.On(0);                                  //PWM On ( Zero Power ) 
    state=WELCOME_LOGO;                                 // The next state the FSM in the main loop will enter 
    2506:	89 e0       	ldi	r24, 0x09	; 9
    2508:	90 e0       	ldi	r25, 0x00	; 0
    250a:	80 93 22 28 	sts	0x2822, r24	; 0x802822 <state>
    250e:	90 93 23 28 	sts	0x2823, r25	; 0x802823 <state+0x1>
SerialConsoleParseInput():
C:\Users\mathiasc\AppData\Local\Temp\arduino_build_312787\sketch/serialcli.cpp:339
                                 return command;
                        } else if(strncmp_P((const char*)&msgbuffer[startidx] ,PSTR("JBC"), (StringLen) )==0){
                                command.parameter.kw =(keyword_t)( KW_JBC );
                                 return command;
                        } else if(strncmp_P((const char*)&msgbuffer[startidx] ,PSTR("HKO"), (StringLen) )==0){
                                command.parameter.kw =(keyword_t)( KW_HKO );
    2512:	04 e0       	ldi	r16, 0x04	; 4
    2514:	20 2e       	mov	r2, r16
    2516:	31 2c       	mov	r3, r1
set_delay():
D:\Projects\190409-DIY_SOLDERING_IRON\Soldering-Station/Soldering-Station.ino:486
 Output:      None
 Description: Set the delaytimer to a given value 
 *************************************************************************************************************/    
void set_delay( uint16_t ms){
  while(delay_ms!=ms){
    delay_ms=ms;
    2518:	80 ed       	ldi	r24, 0xD0	; 208
    251a:	48 2e       	mov	r4, r24
    251c:	87 e0       	ldi	r24, 0x07	; 7
    251e:	58 2e       	mov	r5, r24
    2520:	be 01       	movw	r22, r28
    2522:	66 5f       	subi	r22, 0xF6	; 246
    2524:	7f 4f       	sbci	r23, 0xFF	; 255
    2526:	6e 8b       	std	Y+22, r22	; 0x16
    2528:	7f 8b       	std	Y+23, r23	; 0x17
SerialConsoleProcess():
C:\Users\mathiasc\AppData\Local\Temp\arduino_build_312787\sketch/serialcli.cpp:392
 Description: Processes incomming serial data
**********************************************************************************************************/
bool SerialConsoleProcess( void ){
    bool InputProcessed = false;
    if(Serial){
        if(first_con == false){
    252a:	80 91 89 28 	lds	r24, 0x2889	; 0x802889 <first_con>
    252e:	81 11       	cpse	r24, r1
    2530:	13 c0       	rjmp	.+38     	; 0x2558 <main+0x47e>
SerialConsolePrintWelcome():
C:\Users\mathiasc\AppData\Local\Temp\arduino_build_312787\sketch/serialcli.cpp:154
 Output:      None 
 Description: Show the welcome banner
**********************************************************************************************************/
void SerialConsolePrintWelcome( void ){
  if(Serial){
        Serial.println(F("Elektor Solderingstation FW 1.4"));
    2532:	82 ee       	ldi	r24, 0xE2	; 226
    2534:	98 e7       	ldi	r25, 0x78	; 120
    2536:	0e 94 1c 0e 	call	0x1c38	; 0x1c38 <Print::println(char const*) [clone .constprop.19]>
C:\Users\mathiasc\AppData\Local\Temp\arduino_build_312787\sketch/serialcli.cpp:155
        Serial.println(F("  on Hardware 190409           "));
    253a:	82 e0       	ldi	r24, 0x02	; 2
    253c:	99 e7       	ldi	r25, 0x79	; 121
    253e:	0e 94 1c 0e 	call	0x1c38	; 0x1c38 <Print::println(char const*) [clone .constprop.19]>
C:\Users\mathiasc\AppData\Local\Temp\arduino_build_312787\sketch/serialcli.cpp:156
        Serial.println(F("------------------------------------------------------------------"));
    2542:	89 ea       	ldi	r24, 0xA9	; 169
    2544:	9b e7       	ldi	r25, 0x7B	; 123
    2546:	0e 94 1c 0e 	call	0x1c38	; 0x1c38 <Print::println(char const*) [clone .constprop.19]>
C:\Users\mathiasc\AppData\Local\Temp\arduino_build_312787\sketch/serialcli.cpp:157
        Serial.print(F(">"));
    254a:	8f e8       	ldi	r24, 0x8F	; 143
    254c:	9c e7       	ldi	r25, 0x7C	; 124
    254e:	0e 94 2a 0e 	call	0x1c54	; 0x1c54 <Print::print(char const*) [clone .constprop.12]>
SerialConsoleProcess():
C:\Users\mathiasc\AppData\Local\Temp\arduino_build_312787\sketch/serialcli.cpp:394
bool SerialConsoleProcess( void ){
    bool InputProcessed = false;
    if(Serial){
        if(first_con == false){
            SerialConsolePrintWelcome();
            first_con=true;
    2552:	81 e0       	ldi	r24, 0x01	; 1
    2554:	80 93 89 28 	sts	0x2889, r24	; 0x802889 <first_con>
C:\Users\mathiasc\AppData\Local\Temp\arduino_build_312787\sketch/serialcli.cpp:410
                if(msgbufferidx<sizeof(msgbuffer) ){
                    msgbuffer[msgbufferidx]=data;
                    msgbufferidx++;
                } else {
                    /* we have an overflow */
                    msgbufferidx=sizeof(msgbuffer);
    2558:	10 e4       	ldi	r17, 0x40	; 64
    255a:	61 2e       	mov	r6, r17
C:\Users\mathiasc\AppData\Local\Temp\arduino_build_312787\sketch/serialcli.cpp:397
        if(first_con == false){
            SerialConsolePrintWelcome();
            first_con=true;
        }
        /* Grab data from interface */
        while ( ( Serial ) && (Serial.available() > 0)) {
    255c:	87 ea       	ldi	r24, 0xA7	; 167
    255e:	98 e2       	ldi	r25, 0x28	; 40
    2560:	0e 94 95 01 	call	0x32a	; 0x32a <UartClass::available()>
    2564:	18 16       	cp	r1, r24
    2566:	19 06       	cpc	r1, r25
    2568:	ec f5       	brge	.+122    	; 0x25e4 <main+0x50a>
C:\Users\mathiasc\AppData\Local\Temp\arduino_build_312787\sketch/serialcli.cpp:400
                InputProcessed = true;
                // read the incoming byte:
                uint8_t data = Serial.read();
    256a:	87 ea       	ldi	r24, 0xA7	; 167
    256c:	98 e2       	ldi	r25, 0x28	; 40
    256e:	0e 94 73 01 	call	0x2e6	; 0x2e6 <UartClass::read()>
    2572:	18 2f       	mov	r17, r24
C:\Users\mathiasc\AppData\Local\Temp\arduino_build_312787\sketch/serialcli.cpp:401
                if( (data!='\r' ) && (data!='\n')){
    2574:	8d 30       	cpi	r24, 0x0D	; 13
    2576:	09 f0       	breq	.+2      	; 0x257a <main+0x4a0>
    2578:	53 c0       	rjmp	.+166    	; 0x2620 <main+0x546>
C:\Users\mathiasc\AppData\Local\Temp\arduino_build_312787\sketch/serialcli.cpp:405
                    Serial.write(data);
                }
            
                if(msgbufferidx<sizeof(msgbuffer) ){
    257a:	80 91 88 28 	lds	r24, 0x2888	; 0x802888 <msgbufferidx>
    257e:	80 34       	cpi	r24, 0x40	; 64
    2580:	08 f0       	brcs	.+2      	; 0x2584 <main+0x4aa>
    2582:	57 c0       	rjmp	.+174    	; 0x2632 <main+0x558>
C:\Users\mathiasc\AppData\Local\Temp\arduino_build_312787\sketch/serialcli.cpp:406
                    msgbuffer[msgbufferidx]=data;
    2584:	e8 2f       	mov	r30, r24
    2586:	f0 e0       	ldi	r31, 0x00	; 0
    2588:	e8 5b       	subi	r30, 0xB8	; 184
    258a:	f7 4d       	sbci	r31, 0xD7	; 215
    258c:	10 83       	st	Z, r17
C:\Users\mathiasc\AppData\Local\Temp\arduino_build_312787\sketch/serialcli.cpp:407
                    msgbufferidx++;
    258e:	8f 5f       	subi	r24, 0xFF	; 255
    2590:	80 93 88 28 	sts	0x2888, r24	; 0x802888 <msgbufferidx>
C:\Users\mathiasc\AppData\Local\Temp\arduino_build_312787\sketch/serialcli.cpp:413
                } else {
                    /* we have an overflow */
                    msgbufferidx=sizeof(msgbuffer);
                }

                if( (data=='\r' ) || (data=='\n')){   /* Time to parse data */
    2594:	1d 30       	cpi	r17, 0x0D	; 13
    2596:	11 f0       	breq	.+4      	; 0x259c <main+0x4c2>
    2598:	1a 30       	cpi	r17, 0x0A	; 10
    259a:	01 f7       	brne	.-64     	; 0x255c <main+0x482>
C:\Users\mathiasc\AppData\Local\Temp\arduino_build_312787\sketch/serialcli.cpp:414
                    Serial.print(F("\n\r"));
    259c:	8a ef       	ldi	r24, 0xFA	; 250
    259e:	9b e7       	ldi	r25, 0x7B	; 123
    25a0:	0e 94 2a 0e 	call	0x1c54	; 0x1c54 <Print::print(char const*) [clone .constprop.12]>
C:\Users\mathiasc\AppData\Local\Temp\arduino_build_312787\sketch/serialcli.cpp:415
                    if( msgbufferidx == 0){
    25a4:	80 91 88 28 	lds	r24, 0x2888	; 0x802888 <msgbufferidx>
    25a8:	88 23       	and	r24, r24
    25aa:	c1 f2       	breq	.-80     	; 0x255c <main+0x482>
SerialConsoleParseInput():
C:\Users\mathiasc\AppData\Local\Temp\arduino_build_312787\sketch/serialcli.cpp:202
**********************************************************************************************************/
serial_command_t SerialConsoleParseInput( void ){
    serial_command_t command;
    command.cmd_dir = cmd_data_error;
    command.command = cmd_none;
    command.parameter.u32=0;
    25ac:	1d 82       	std	Y+5, r1	; 0x05
    25ae:	1e 82       	std	Y+6, r1	; 0x06
    25b0:	1f 82       	std	Y+7, r1	; 0x07
    25b2:	18 86       	std	Y+8, r1	; 0x08
C:\Users\mathiasc\AppData\Local\Temp\arduino_build_312787\sketch/serialcli.cpp:203
    if(msgbufferidx>sizeof(msgbuffer)){
    25b4:	e8 e4       	ldi	r30, 0x48	; 72
    25b6:	f8 e2       	ldi	r31, 0x28	; 40
main():
C:\Users\mathiasc\AppData\Local\Temp\arduino_build_312787\sketch/serialcli.cpp:212
        }
        msgbufferidx=0;
    } else {
        uint8_t startidx = 0;
        uint8_t endidx = 0;
        for(uint8_t i=0;i<msgbufferidx;i++){
    25b8:	d1 2c       	mov	r13, r1
SerialConsoleParseInput():
C:\Users\mathiasc\AppData\Local\Temp\arduino_build_312787\sketch/serialcli.cpp:203
serial_command_t SerialConsoleParseInput( void ){
    serial_command_t command;
    command.cmd_dir = cmd_data_error;
    command.command = cmd_none;
    command.parameter.u32=0;
    if(msgbufferidx>sizeof(msgbuffer)){
    25ba:	81 34       	cpi	r24, 0x41	; 65
    25bc:	08 f4       	brcc	.+2      	; 0x25c0 <main+0x4e6>
    25be:	3f c0       	rjmp	.+126    	; 0x263e <main+0x564>
C:\Users\mathiasc\AppData\Local\Temp\arduino_build_312787\sketch/serialcli.cpp:204
        Serial.println( F("Buffer overflow") );
    25c0:	82 e2       	ldi	r24, 0x22	; 34
    25c2:	99 e7       	ldi	r25, 0x79	; 121
    25c4:	0e 94 1c 0e 	call	0x1c38	; 0x1c38 <Print::println(char const*) [clone .constprop.19]>
    25c8:	e8 e4       	ldi	r30, 0x48	; 72
    25ca:	f8 e2       	ldi	r31, 0x28	; 40
C:\Users\mathiasc\AppData\Local\Temp\arduino_build_312787\sketch/serialcli.cpp:206
        for(uint8_t i=0;i<sizeof(msgbuffer);i++){
           msgbuffer[i]=0;
    25cc:	11 92       	st	Z+, r1
C:\Users\mathiasc\AppData\Local\Temp\arduino_build_312787\sketch/serialcli.cpp:205
    command.cmd_dir = cmd_data_error;
    command.command = cmd_none;
    command.parameter.u32=0;
    if(msgbufferidx>sizeof(msgbuffer)){
        Serial.println( F("Buffer overflow") );
        for(uint8_t i=0;i<sizeof(msgbuffer);i++){
    25ce:	78 e2       	ldi	r23, 0x28	; 40
    25d0:	e8 38       	cpi	r30, 0x88	; 136
    25d2:	f7 07       	cpc	r31, r23
    25d4:	d9 f7       	brne	.-10     	; 0x25cc <main+0x4f2>
C:\Users\mathiasc\AppData\Local\Temp\arduino_build_312787\sketch/serialcli.cpp:208
           msgbuffer[i]=0;
        }
        msgbufferidx=0;
    25d6:	10 92 88 28 	sts	0x2888, r1	; 0x802888 <msgbufferidx>
C:\Users\mathiasc\AppData\Local\Temp\arduino_build_312787\sketch/serialcli.cpp:360
                }
                StringLen++;
            }
            /* Parsing error */
            command.cmd_dir = cmd_data_error;
            command.command = cmd_none;
    25da:	10 e0       	ldi	r17, 0x00	; 0
    25dc:	00 e0       	ldi	r16, 0x00	; 0
C:\Users\mathiasc\AppData\Local\Temp\arduino_build_312787\sketch/serialcli.cpp:359
                    }
                }
                StringLen++;
            }
            /* Parsing error */
            command.cmd_dir = cmd_data_error;
    25de:	f1 2c       	mov	r15, r1
    25e0:	e1 2c       	mov	r14, r1
    25e2:	4a c1       	rjmp	.+660    	; 0x2878 <main+0x79e>
loop():
D:\Projects\190409-DIY_SOLDERING_IRON\Soldering-Station/Soldering-Station.ino:112
**********************************************************************************************************/
void loop() 
{
      
        SerialConsoleProcess();
        Station.Temp.OneWireStartConversation();
    25e4:	0e 94 a1 06 	call	0xd42	; 0xd42 <TEMP_190409::OneWireStartConversation() [clone .constprop.35]>
D:\Projects\190409-DIY_SOLDERING_IRON\Soldering-Station/Soldering-Station.ino:116
        Station.Temp.GetLastOneWireTempKelvin();
        /* This check can also return states and we can react to it */
       
        switch(state){ 
    25e8:	e0 91 22 28 	lds	r30, 0x2822	; 0x802822 <state>
    25ec:	f0 91 23 28 	lds	r31, 0x2823	; 0x802823 <state+0x1>
    25f0:	e0 31       	cpi	r30, 0x10	; 16
    25f2:	f1 05       	cpc	r31, r1
    25f4:	08 f0       	brcs	.+2      	; 0x25f8 <main+0x51e>
    25f6:	a6 c4       	rjmp	.+2380   	; 0x2f44 <main+0xe6a>
    25f8:	e0 50       	subi	r30, 0x00	; 0
    25fa:	fd 4e       	sbci	r31, 0xED	; 237
    25fc:	0c 94 63 1b 	jmp	0x36c6	; 0x36c6 <__tablejump2__>
    2600:	ec 17       	cp	r30, r28
    2602:	a1 18       	sub	r10, r1
    2604:	ac 18       	sub	r10, r12
    2606:	af 18       	sub	r10, r15
    2608:	c4 18       	sub	r12, r4
    260a:	db 18       	sub	r13, r11
    260c:	10 19       	sub	r17, r0
    260e:	49 19       	sub	r20, r9
    2610:	56 19       	sub	r21, r6
    2612:	10 16       	cp	r1, r16
    2614:	6e 17       	cp	r22, r30
    2616:	7f 17       	cp	r23, r31
    2618:	92 17       	cp	r25, r18
    261a:	a5 17       	cp	r26, r21
    261c:	c3 17       	cp	r28, r19
    261e:	cc 17       	cp	r28, r28
SerialConsoleProcess():
C:\Users\mathiasc\AppData\Local\Temp\arduino_build_312787\sketch/serialcli.cpp:401
        /* Grab data from interface */
        while ( ( Serial ) && (Serial.available() > 0)) {
                InputProcessed = true;
                // read the incoming byte:
                uint8_t data = Serial.read();
                if( (data!='\r' ) && (data!='\n')){
    2620:	8a 30       	cpi	r24, 0x0A	; 10
    2622:	09 f4       	brne	.+2      	; 0x2626 <main+0x54c>
    2624:	aa cf       	rjmp	.-172    	; 0x257a <main+0x4a0>
C:\Users\mathiasc\AppData\Local\Temp\arduino_build_312787\sketch/serialcli.cpp:402
                    Serial.write(data);
    2626:	68 2f       	mov	r22, r24
    2628:	87 ea       	ldi	r24, 0xA7	; 167
    262a:	98 e2       	ldi	r25, 0x28	; 40
    262c:	0e 94 37 02 	call	0x46e	; 0x46e <UartClass::write(unsigned char)>
    2630:	a4 cf       	rjmp	.-184    	; 0x257a <main+0x4a0>
C:\Users\mathiasc\AppData\Local\Temp\arduino_build_312787\sketch/serialcli.cpp:410
                if(msgbufferidx<sizeof(msgbuffer) ){
                    msgbuffer[msgbufferidx]=data;
                    msgbufferidx++;
                } else {
                    /* we have an overflow */
                    msgbufferidx=sizeof(msgbuffer);
    2632:	60 92 88 28 	sts	0x2888, r6	; 0x802888 <msgbufferidx>
    2636:	ae cf       	rjmp	.-164    	; 0x2594 <main+0x4ba>
    2638:	da 2c       	mov	r13, r10
SerialConsoleParseInput():
C:\Users\mathiasc\AppData\Local\Temp\arduino_build_312787\sketch/serialcli.cpp:212
        }
        msgbufferidx=0;
    } else {
        uint8_t startidx = 0;
        uint8_t endidx = 0;
        for(uint8_t i=0;i<msgbufferidx;i++){
    263a:	8a 15       	cp	r24, r10
    263c:	e9 f1       	breq	.+122    	; 0x26b8 <main+0x5de>
    263e:	8f 01       	movw	r16, r30
    2640:	08 54       	subi	r16, 0x48	; 72
    2642:	18 42       	sbci	r17, 0x28	; 40
C:\Users\mathiasc\AppData\Local\Temp\arduino_build_312787\sketch/serialcli.cpp:213
            if( ( msgbuffer[i]==' ') || (msgbuffer[i]=='\n') || (msgbuffer[i]=='\r') ){
    2644:	91 91       	ld	r25, Z+
    2646:	aa 24       	eor	r10, r10
    2648:	a3 94       	inc	r10
    264a:	ad 0c       	add	r10, r13
    264c:	90 32       	cpi	r25, 0x20	; 32
    264e:	21 f0       	breq	.+8      	; 0x2658 <main+0x57e>
    2650:	9a 30       	cpi	r25, 0x0A	; 10
    2652:	11 f0       	breq	.+4      	; 0x2658 <main+0x57e>
    2654:	9d 30       	cpi	r25, 0x0D	; 13
    2656:	81 f7       	brne	.-32     	; 0x2638 <main+0x55e>
C:\Users\mathiasc\AppData\Local\Temp\arduino_build_312787\sketch/serialcli.cpp:215
                /* The first token has ended, we accept only 'set', 'get' and 'help' */
                if(strncmp_P((const char*)&msgbuffer[startidx] ,PSTR("set"), i)==0){
    2658:	ed 2c       	mov	r14, r13
    265a:	f1 2c       	mov	r15, r1
    265c:	a7 01       	movw	r20, r14
    265e:	6d e1       	ldi	r22, 0x1D	; 29
    2660:	71 e0       	ldi	r23, 0x01	; 1
    2662:	88 e4       	ldi	r24, 0x48	; 72
    2664:	98 e2       	ldi	r25, 0x28	; 40
    2666:	0e 94 76 19 	call	0x32ec	; 0x32ec <strncmp_P>
    266a:	89 2b       	or	r24, r25
    266c:	09 f4       	brne	.+2      	; 0x2670 <main+0x596>
    266e:	dd c0       	rjmp	.+442    	; 0x282a <main+0x750>
C:\Users\mathiasc\AppData\Local\Temp\arduino_build_312787\sketch/serialcli.cpp:217
                    command.cmd_dir = cmd_data_set;
                } else if(strncmp_P((const char*)&msgbuffer[startidx] ,PSTR("get"), i)==0){
    2670:	a7 01       	movw	r20, r14
    2672:	69 e1       	ldi	r22, 0x19	; 25
    2674:	71 e0       	ldi	r23, 0x01	; 1
    2676:	88 e4       	ldi	r24, 0x48	; 72
    2678:	98 e2       	ldi	r25, 0x28	; 40
    267a:	0e 94 76 19 	call	0x32ec	; 0x32ec <strncmp_P>
    267e:	89 2b       	or	r24, r25
    2680:	09 f4       	brne	.+2      	; 0x2684 <main+0x5aa>
    2682:	d7 c0       	rjmp	.+430    	; 0x2832 <main+0x758>
C:\Users\mathiasc\AppData\Local\Temp\arduino_build_312787\sketch/serialcli.cpp:219
                    command.cmd_dir = cmd_data_get;
                } else if(strncmp_P((const char*)&msgbuffer[startidx] ,PSTR("help"), i)==0){
    2684:	a7 01       	movw	r20, r14
    2686:	64 e1       	ldi	r22, 0x14	; 20
    2688:	71 e0       	ldi	r23, 0x01	; 1
    268a:	88 e4       	ldi	r24, 0x48	; 72
    268c:	98 e2       	ldi	r25, 0x28	; 40
    268e:	0e 94 76 19 	call	0x32ec	; 0x32ec <strncmp_P>
    2692:	89 2b       	or	r24, r25
    2694:	09 f4       	brne	.+2      	; 0x2698 <main+0x5be>
    2696:	d1 c0       	rjmp	.+418    	; 0x283a <main+0x760>
C:\Users\mathiasc\AppData\Local\Temp\arduino_build_312787\sketch/serialcli.cpp:221
                    command.cmd_dir = cmd_data_help;
                } else if (strncmp_P((const char*)&msgbuffer[startidx] ,PSTR("clear"), i)==0){
    2698:	a7 01       	movw	r20, r14
    269a:	6e e0       	ldi	r22, 0x0E	; 14
    269c:	71 e0       	ldi	r23, 0x01	; 1
    269e:	88 e4       	ldi	r24, 0x48	; 72
    26a0:	98 e2       	ldi	r25, 0x28	; 40
    26a2:	0e 94 76 19 	call	0x32ec	; 0x32ec <strncmp_P>
C:\Users\mathiasc\AppData\Local\Temp\arduino_build_312787\sketch/serialcli.cpp:222
                     command.cmd_dir = cmd_data_clear;
    26a6:	e3 e0       	ldi	r30, 0x03	; 3
    26a8:	ee 2e       	mov	r14, r30
    26aa:	f1 2c       	mov	r15, r1
C:\Users\mathiasc\AppData\Local\Temp\arduino_build_312787\sketch/serialcli.cpp:221
                    command.cmd_dir = cmd_data_set;
                } else if(strncmp_P((const char*)&msgbuffer[startidx] ,PSTR("get"), i)==0){
                    command.cmd_dir = cmd_data_get;
                } else if(strncmp_P((const char*)&msgbuffer[startidx] ,PSTR("help"), i)==0){
                    command.cmd_dir = cmd_data_help;
                } else if (strncmp_P((const char*)&msgbuffer[startidx] ,PSTR("clear"), i)==0){
    26ac:	89 2b       	or	r24, r25
    26ae:	31 f0       	breq	.+12     	; 0x26bc <main+0x5e2>
C:\Users\mathiasc\AppData\Local\Temp\arduino_build_312787\sketch/serialcli.cpp:225
                     command.cmd_dir = cmd_data_clear;
                } else {
                    command.cmd_dir = cmd_data_error;
                    PrintErrorLocation(startidx,i);
    26b0:	6d 2d       	mov	r22, r13
    26b2:	80 e0       	ldi	r24, 0x00	; 0
    26b4:	0e 94 2c 0e 	call	0x1c58	; 0x1c58 <PrintErrorLocation(unsigned char, unsigned char)>
C:\Users\mathiasc\AppData\Local\Temp\arduino_build_312787\sketch/serialcli.cpp:200
 Output:      serial_command_t 
 Description: Command parser, returns a struct with the parsed result
**********************************************************************************************************/
serial_command_t SerialConsoleParseInput( void ){
    serial_command_t command;
    command.cmd_dir = cmd_data_error;
    26b8:	f1 2c       	mov	r15, r1
    26ba:	e1 2c       	mov	r14, r1
C:\Users\mathiasc\AppData\Local\Temp\arduino_build_312787\sketch/serialcli.cpp:235
              endidx=i;
            }
        } 

        startidx = endidx+1;
        if( (startidx<msgbufferidx) && (msgbuffer[endidx]!='\n' ) &&  (msgbuffer[endidx]!='\r') )  {
    26bc:	90 91 88 28 	lds	r25, 0x2888	; 0x802888 <msgbufferidx>
    26c0:	a9 16       	cp	r10, r25
    26c2:	08 f0       	brcs	.+2      	; 0x26c6 <main+0x5ec>
    26c4:	96 c1       	rjmp	.+812    	; 0x29f2 <main+0x918>
    26c6:	f8 01       	movw	r30, r16
    26c8:	e8 5b       	subi	r30, 0xB8	; 184
    26ca:	f7 4d       	sbci	r31, 0xD7	; 215
    26cc:	80 81       	ld	r24, Z
    26ce:	8a 30       	cpi	r24, 0x0A	; 10
    26d0:	09 f4       	brne	.+2      	; 0x26d4 <main+0x5fa>
    26d2:	8f c1       	rjmp	.+798    	; 0x29f2 <main+0x918>
    26d4:	8d 30       	cpi	r24, 0x0D	; 13
    26d6:	09 f4       	brne	.+2      	; 0x26da <main+0x600>
    26d8:	8c c1       	rjmp	.+792    	; 0x29f2 <main+0x918>
    26da:	0a 2d       	mov	r16, r10
    26dc:	10 e0       	ldi	r17, 0x00	; 0
    26de:	f8 01       	movw	r30, r16
    26e0:	e8 5b       	subi	r30, 0xB8	; 184
    26e2:	f7 4d       	sbci	r31, 0xD7	; 215
    26e4:	9a 2c       	mov	r9, r10
    26e6:	9f 01       	movw	r18, r30
    26e8:	28 54       	subi	r18, 0x48	; 72
    26ea:	38 42       	sbci	r19, 0x28	; 40
    26ec:	29 8f       	std	Y+25, r18	; 0x19
    26ee:	3a 8f       	std	Y+26, r19	; 0x1a
C:\Users\mathiasc\AppData\Local\Temp\arduino_build_312787\sketch/serialcli.cpp:243
            /* Parsing is done */
            return command;
        }

        for(uint8_t i=startidx;i<msgbufferidx;i++){
            if( ( msgbuffer[i]==' ') || (msgbuffer[i]=='\n') || (msgbuffer[i]=='\r') ){
    26f0:	81 91       	ld	r24, Z+
    26f2:	31 e0       	ldi	r19, 0x01	; 1
    26f4:	39 0d       	add	r19, r9
    26f6:	38 8f       	std	Y+24, r19	; 0x18
    26f8:	80 32       	cpi	r24, 0x20	; 32
    26fa:	29 f0       	breq	.+10     	; 0x2706 <main+0x62c>
    26fc:	8a 30       	cpi	r24, 0x0A	; 10
    26fe:	19 f0       	breq	.+6      	; 0x2706 <main+0x62c>
    2700:	8d 30       	cpi	r24, 0x0D	; 13
    2702:	09 f0       	breq	.+2      	; 0x2706 <main+0x62c>
    2704:	9e c0       	rjmp	.+316    	; 0x2842 <main+0x768>
C:\Users\mathiasc\AppData\Local\Temp\arduino_build_312787\sketch/serialcli.cpp:245
                /* The second token has ended, we accept only 'setpoint' , 'temperature' and 'error' */
                       uint8_t tokenlenght = i - startidx;
    2706:	c9 2c       	mov	r12, r9
    2708:	ca 18       	sub	r12, r10
C:\Users\mathiasc\AppData\Local\Temp\arduino_build_312787\sketch/serialcli.cpp:246
                if(strncmp_P(&msgbuffer[startidx] ,PSTR("setpoint"), (tokenlenght) )==0){
    270a:	d1 2c       	mov	r13, r1
    270c:	08 5b       	subi	r16, 0xB8	; 184
    270e:	17 4d       	sbci	r17, 0xD7	; 215
    2710:	a6 01       	movw	r20, r12
    2712:	65 e0       	ldi	r22, 0x05	; 5
    2714:	71 e0       	ldi	r23, 0x01	; 1
    2716:	c8 01       	movw	r24, r16
    2718:	0e 94 76 19 	call	0x32ec	; 0x32ec <strncmp_P>
    271c:	89 2b       	or	r24, r25
    271e:	09 f4       	brne	.+2      	; 0x2722 <main+0x648>
    2720:	94 c0       	rjmp	.+296    	; 0x284a <main+0x770>
C:\Users\mathiasc\AppData\Local\Temp\arduino_build_312787\sketch/serialcli.cpp:248
                    command.command=cmd_setpoint;
                } else if(strncmp_P(&msgbuffer[startidx] ,PSTR("temperature"), (tokenlenght) )==0){
    2722:	a6 01       	movw	r20, r12
    2724:	69 ef       	ldi	r22, 0xF9	; 249
    2726:	70 e0       	ldi	r23, 0x00	; 0
    2728:	c8 01       	movw	r24, r16
    272a:	0e 94 76 19 	call	0x32ec	; 0x32ec <strncmp_P>
    272e:	89 2b       	or	r24, r25
    2730:	09 f4       	brne	.+2      	; 0x2734 <main+0x65a>
    2732:	8e c0       	rjmp	.+284    	; 0x2850 <main+0x776>
C:\Users\mathiasc\AppData\Local\Temp\arduino_build_312787\sketch/serialcli.cpp:250
                    command.command=cmd_temperatur;
                } else if(strncmp_P(&msgbuffer[startidx] ,PSTR("onchiptemp"), (tokenlenght) )==0){
    2734:	a6 01       	movw	r20, r12
    2736:	6e ee       	ldi	r22, 0xEE	; 238
    2738:	70 e0       	ldi	r23, 0x00	; 0
    273a:	c8 01       	movw	r24, r16
    273c:	0e 94 76 19 	call	0x32ec	; 0x32ec <strncmp_P>
    2740:	89 2b       	or	r24, r25
    2742:	09 f4       	brne	.+2      	; 0x2746 <main+0x66c>
    2744:	88 c0       	rjmp	.+272    	; 0x2856 <main+0x77c>
C:\Users\mathiasc\AppData\Local\Temp\arduino_build_312787\sketch/serialcli.cpp:252
                    command.command=cmd_onchiptemp;
                } else if(strncmp_P(&msgbuffer[startidx] ,PSTR("onewiretemp"), (tokenlenght) )==0){
    2746:	a6 01       	movw	r20, r12
    2748:	62 ee       	ldi	r22, 0xE2	; 226
    274a:	70 e0       	ldi	r23, 0x00	; 0
    274c:	c8 01       	movw	r24, r16
    274e:	0e 94 76 19 	call	0x32ec	; 0x32ec <strncmp_P>
    2752:	89 2b       	or	r24, r25
    2754:	09 f4       	brne	.+2      	; 0x2758 <main+0x67e>
    2756:	82 c0       	rjmp	.+260    	; 0x285c <main+0x782>
C:\Users\mathiasc\AppData\Local\Temp\arduino_build_312787\sketch/serialcli.cpp:254
                    command.command=cmd_onewiretemp;
                } else if(strncmp_P(&msgbuffer[startidx] ,PSTR("error"), (tokenlenght) )==0){
    2758:	a6 01       	movw	r20, r12
    275a:	6c ed       	ldi	r22, 0xDC	; 220
    275c:	70 e0       	ldi	r23, 0x00	; 0
    275e:	c8 01       	movw	r24, r16
    2760:	0e 94 76 19 	call	0x32ec	; 0x32ec <strncmp_P>
    2764:	89 2b       	or	r24, r25
    2766:	09 f4       	brne	.+2      	; 0x276a <main+0x690>
    2768:	7c c0       	rjmp	.+248    	; 0x2862 <main+0x788>
C:\Users\mathiasc\AppData\Local\Temp\arduino_build_312787\sketch/serialcli.cpp:256
                    command.command=cmd_error;
                } else if(strncmp_P(&msgbuffer[startidx] ,PSTR("irontype"), (tokenlenght) )==0){
    276a:	a6 01       	movw	r20, r12
    276c:	63 ed       	ldi	r22, 0xD3	; 211
    276e:	70 e0       	ldi	r23, 0x00	; 0
    2770:	c8 01       	movw	r24, r16
    2772:	0e 94 76 19 	call	0x32ec	; 0x32ec <strncmp_P>
C:\Users\mathiasc\AppData\Local\Temp\arduino_build_312787\sketch/serialcli.cpp:257
                    command.command=cmd_irontype;
    2776:	06 e0       	ldi	r16, 0x06	; 6
    2778:	10 e0       	ldi	r17, 0x00	; 0
C:\Users\mathiasc\AppData\Local\Temp\arduino_build_312787\sketch/serialcli.cpp:256
                    command.command=cmd_onchiptemp;
                } else if(strncmp_P(&msgbuffer[startidx] ,PSTR("onewiretemp"), (tokenlenght) )==0){
                    command.command=cmd_onewiretemp;
                } else if(strncmp_P(&msgbuffer[startidx] ,PSTR("error"), (tokenlenght) )==0){
                    command.command=cmd_error;
                } else if(strncmp_P(&msgbuffer[startidx] ,PSTR("irontype"), (tokenlenght) )==0){
    277a:	89 2b       	or	r24, r25
    277c:	31 f0       	breq	.+12     	; 0x278a <main+0x6b0>
C:\Users\mathiasc\AppData\Local\Temp\arduino_build_312787\sketch/serialcli.cpp:260
                    command.command=cmd_irontype;
                } else {
                    command.command = cmd_none;
                        PrintErrorLocation(startidx,i);
    277e:	69 2d       	mov	r22, r9
    2780:	8a 2d       	mov	r24, r10
    2782:	0e 94 2c 0e 	call	0x1c58	; 0x1c58 <PrintErrorLocation(unsigned char, unsigned char)>
C:\Users\mathiasc\AppData\Local\Temp\arduino_build_312787\sketch/serialcli.cpp:201
 Description: Command parser, returns a struct with the parsed result
**********************************************************************************************************/
serial_command_t SerialConsoleParseInput( void ){
    serial_command_t command;
    command.cmd_dir = cmd_data_error;
    command.command = cmd_none;
    2786:	10 e0       	ldi	r17, 0x00	; 0
    2788:	00 e0       	ldi	r16, 0x00	; 0
C:\Users\mathiasc\AppData\Local\Temp\arduino_build_312787\sketch/serialcli.cpp:271
                endidx=i;
            }
        }

         startidx = endidx+1;
        if( (startidx<msgbufferidx) && (msgbuffer[endidx]!='\n' ) &&  (msgbuffer[endidx]!='\r') )  {
    278a:	60 91 88 28 	lds	r22, 0x2888	; 0x802888 <msgbufferidx>
    278e:	48 8d       	ldd	r20, Y+24	; 0x18
    2790:	46 17       	cp	r20, r22
    2792:	08 f0       	brcs	.+2      	; 0x2796 <main+0x6bc>
    2794:	71 c0       	rjmp	.+226    	; 0x2878 <main+0x79e>
    2796:	e9 8d       	ldd	r30, Y+25	; 0x19
    2798:	fa 8d       	ldd	r31, Y+26	; 0x1a
    279a:	e8 5b       	subi	r30, 0xB8	; 184
    279c:	f7 4d       	sbci	r31, 0xD7	; 215
    279e:	80 81       	ld	r24, Z
    27a0:	8a 30       	cpi	r24, 0x0A	; 10
    27a2:	09 f4       	brne	.+2      	; 0x27a6 <main+0x6cc>
    27a4:	69 c0       	rjmp	.+210    	; 0x2878 <main+0x79e>
    27a6:	8d 30       	cpi	r24, 0x0D	; 13
    27a8:	09 f4       	brne	.+2      	; 0x27ac <main+0x6d2>
    27aa:	66 c0       	rjmp	.+204    	; 0x2878 <main+0x79e>
C:\Users\mathiasc\AppData\Local\Temp\arduino_build_312787\sketch/serialcli.cpp:273
          //We have some elements left, check if this is wanted
          if((ParamLUT[command.command]!=param_none)){
    27ac:	f8 01       	movw	r30, r16
    27ae:	ee 0f       	add	r30, r30
    27b0:	ff 1f       	adc	r31, r31
    27b2:	ee 55       	subi	r30, 0x5E	; 94
    27b4:	f8 48       	sbci	r31, 0x88	; 136
    27b6:	80 81       	ld	r24, Z
    27b8:	91 81       	ldd	r25, Z+1	; 0x01
    27ba:	89 2b       	or	r24, r25
    27bc:	29 f4       	brne	.+10     	; 0x27c8 <main+0x6ee>
C:\Users\mathiasc\AppData\Local\Temp\arduino_build_312787\sketch/serialcli.cpp:278
              //We can move on
          } else {
              //we have a syntax problem here
              command.command = cmd_none;
              PrintErrorLocation(startidx,msgbufferidx);
    27be:	84 2f       	mov	r24, r20
    27c0:	0e 94 2c 0e 	call	0x1c58	; 0x1c58 <PrintErrorLocation(unsigned char, unsigned char)>
C:\Users\mathiasc\AppData\Local\Temp\arduino_build_312787\sketch/serialcli.cpp:277
          //We have some elements left, check if this is wanted
          if((ParamLUT[command.command]!=param_none)){
              //We can move on
          } else {
              //we have a syntax problem here
              command.command = cmd_none;
    27c4:	10 e0       	ldi	r17, 0x00	; 0
    27c6:	00 e0       	ldi	r16, 0x00	; 0
C:\Users\mathiasc\AppData\Local\Temp\arduino_build_312787\sketch/serialcli.cpp:289
        /*  
            last is to parse the parameter here 
            we currently strings and integer ( u32 ) but need to decide what we must do
        */
        
        if( (ParamLUT[command.command]!=param_string) && (ParamLUT[command.command]!=param_keyword) ){
    27c8:	f8 01       	movw	r30, r16
    27ca:	ee 0f       	add	r30, r30
    27cc:	ff 1f       	adc	r31, r31
    27ce:	ee 55       	subi	r30, 0x5E	; 94
    27d0:	f8 48       	sbci	r31, 0x88	; 136
    27d2:	20 81       	ld	r18, Z
    27d4:	31 81       	ldd	r19, Z+1	; 0x01
    27d6:	c9 01       	movw	r24, r18
    27d8:	07 97       	sbiw	r24, 0x07	; 7
    27da:	02 97       	sbiw	r24, 0x02	; 2
    27dc:	08 f4       	brcc	.+2      	; 0x27e0 <main+0x706>
    27de:	88 c0       	rjmp	.+272    	; 0x28f0 <main+0x816>
    27e0:	78 8c       	ldd	r7, Y+24	; 0x18
main():
C:\Users\mathiasc\AppData\Local\Temp\arduino_build_312787\sketch/serialcli.cpp:290
          uint32_t value = 0;
    27e2:	81 2c       	mov	r8, r1
    27e4:	91 2c       	mov	r9, r1
    27e6:	54 01       	movw	r10, r8
SerialConsoleParseInput():
C:\Users\mathiasc\AppData\Local\Temp\arduino_build_312787\sketch/serialcli.cpp:292
          command.param_len=0;
          for(uint8_t i=startidx;i<msgbufferidx;i++){
    27e8:	80 91 88 28 	lds	r24, 0x2888	; 0x802888 <msgbufferidx>
    27ec:	78 16       	cp	r7, r24
    27ee:	08 f0       	brcs	.+2      	; 0x27f2 <main+0x718>
    27f0:	03 c1       	rjmp	.+518    	; 0x29f8 <main+0x91e>
C:\Users\mathiasc\AppData\Local\Temp\arduino_build_312787\sketch/serialcli.cpp:294
              
              if( (msgbuffer[i]>='0') && (msgbuffer[i]<='9') ){
    27f2:	e7 2d       	mov	r30, r7
    27f4:	f0 e0       	ldi	r31, 0x00	; 0
    27f6:	e8 5b       	subi	r30, 0xB8	; 184
    27f8:	f7 4d       	sbci	r31, 0xD7	; 215
    27fa:	e0 81       	ld	r30, Z
    27fc:	80 ed       	ldi	r24, 0xD0	; 208
    27fe:	8e 0f       	add	r24, r30
    2800:	8a 30       	cpi	r24, 0x0A	; 10
    2802:	90 f5       	brcc	.+100    	; 0x2868 <main+0x78e>
C:\Users\mathiasc\AppData\Local\Temp\arduino_build_312787\sketch/serialcli.cpp:295
                  value = value * 10;
    2804:	aa e0       	ldi	r26, 0x0A	; 10
    2806:	b0 e0       	ldi	r27, 0x00	; 0
    2808:	a5 01       	movw	r20, r10
    280a:	94 01       	movw	r18, r8
    280c:	0e 94 7f 1b 	call	0x36fe	; 0x36fe <__muluhisi3>
C:\Users\mathiasc\AppData\Local\Temp\arduino_build_312787\sketch/serialcli.cpp:296
                  value = value + ( msgbuffer[i] -'0');
    2810:	4e 2f       	mov	r20, r30
    2812:	40 53       	subi	r20, 0x30	; 48
    2814:	55 0b       	sbc	r21, r21
    2816:	4a 01       	movw	r8, r20
    2818:	55 0f       	add	r21, r21
    281a:	aa 08       	sbc	r10, r10
    281c:	bb 08       	sbc	r11, r11
    281e:	86 0e       	add	r8, r22
    2820:	97 1e       	adc	r9, r23
    2822:	a8 1e       	adc	r10, r24
    2824:	b9 1e       	adc	r11, r25
C:\Users\mathiasc\AppData\Local\Temp\arduino_build_312787\sketch/serialcli.cpp:292
        */
        
        if( (ParamLUT[command.command]!=param_string) && (ParamLUT[command.command]!=param_keyword) ){
          uint32_t value = 0;
          command.param_len=0;
          for(uint8_t i=startidx;i<msgbufferidx;i++){
    2826:	73 94       	inc	r7
    2828:	df cf       	rjmp	.-66     	; 0x27e8 <main+0x70e>
C:\Users\mathiasc\AppData\Local\Temp\arduino_build_312787\sketch/serialcli.cpp:216
        uint8_t endidx = 0;
        for(uint8_t i=0;i<msgbufferidx;i++){
            if( ( msgbuffer[i]==' ') || (msgbuffer[i]=='\n') || (msgbuffer[i]=='\r') ){
                /* The first token has ended, we accept only 'set', 'get' and 'help' */
                if(strncmp_P((const char*)&msgbuffer[startidx] ,PSTR("set"), i)==0){
                    command.cmd_dir = cmd_data_set;
    282a:	b2 e0       	ldi	r27, 0x02	; 2
    282c:	eb 2e       	mov	r14, r27
    282e:	f1 2c       	mov	r15, r1
    2830:	45 cf       	rjmp	.-374    	; 0x26bc <main+0x5e2>
C:\Users\mathiasc\AppData\Local\Temp\arduino_build_312787\sketch/serialcli.cpp:218
                } else if(strncmp_P((const char*)&msgbuffer[startidx] ,PSTR("get"), i)==0){
                    command.cmd_dir = cmd_data_get;
    2832:	ee 24       	eor	r14, r14
    2834:	e3 94       	inc	r14
    2836:	f1 2c       	mov	r15, r1
    2838:	41 cf       	rjmp	.-382    	; 0x26bc <main+0x5e2>
C:\Users\mathiasc\AppData\Local\Temp\arduino_build_312787\sketch/serialcli.cpp:220
                } else if(strncmp_P((const char*)&msgbuffer[startidx] ,PSTR("help"), i)==0){
                    command.cmd_dir = cmd_data_help;
    283a:	f4 e0       	ldi	r31, 0x04	; 4
    283c:	ef 2e       	mov	r14, r31
    283e:	f1 2c       	mov	r15, r1
    2840:	3d cf       	rjmp	.-390    	; 0x26bc <main+0x5e2>
    2842:	98 8c       	ldd	r9, Y+24	; 0x18
C:\Users\mathiasc\AppData\Local\Temp\arduino_build_312787\sketch/serialcli.cpp:242
        } else {
            /* Parsing is done */
            return command;
        }

        for(uint8_t i=startidx;i<msgbufferidx;i++){
    2844:	99 11       	cpse	r25, r9
    2846:	4f cf       	rjmp	.-354    	; 0x26e6 <main+0x60c>
    2848:	9e cf       	rjmp	.-196    	; 0x2786 <main+0x6ac>
C:\Users\mathiasc\AppData\Local\Temp\arduino_build_312787\sketch/serialcli.cpp:247
            if( ( msgbuffer[i]==' ') || (msgbuffer[i]=='\n') || (msgbuffer[i]=='\r') ){
                /* The second token has ended, we accept only 'setpoint' , 'temperature' and 'error' */
                       uint8_t tokenlenght = i - startidx;
                if(strncmp_P(&msgbuffer[startidx] ,PSTR("setpoint"), (tokenlenght) )==0){
                    command.command=cmd_setpoint;
    284a:	01 e0       	ldi	r16, 0x01	; 1
    284c:	10 e0       	ldi	r17, 0x00	; 0
    284e:	9d cf       	rjmp	.-198    	; 0x278a <main+0x6b0>
C:\Users\mathiasc\AppData\Local\Temp\arduino_build_312787\sketch/serialcli.cpp:249
                } else if(strncmp_P(&msgbuffer[startidx] ,PSTR("temperature"), (tokenlenght) )==0){
                    command.command=cmd_temperatur;
    2850:	02 e0       	ldi	r16, 0x02	; 2
    2852:	10 e0       	ldi	r17, 0x00	; 0
    2854:	9a cf       	rjmp	.-204    	; 0x278a <main+0x6b0>
C:\Users\mathiasc\AppData\Local\Temp\arduino_build_312787\sketch/serialcli.cpp:251
                } else if(strncmp_P(&msgbuffer[startidx] ,PSTR("onchiptemp"), (tokenlenght) )==0){
                    command.command=cmd_onchiptemp;
    2856:	03 e0       	ldi	r16, 0x03	; 3
    2858:	10 e0       	ldi	r17, 0x00	; 0
    285a:	97 cf       	rjmp	.-210    	; 0x278a <main+0x6b0>
C:\Users\mathiasc\AppData\Local\Temp\arduino_build_312787\sketch/serialcli.cpp:253
                } else if(strncmp_P(&msgbuffer[startidx] ,PSTR("onewiretemp"), (tokenlenght) )==0){
                    command.command=cmd_onewiretemp;
    285c:	04 e0       	ldi	r16, 0x04	; 4
    285e:	10 e0       	ldi	r17, 0x00	; 0
    2860:	94 cf       	rjmp	.-216    	; 0x278a <main+0x6b0>
C:\Users\mathiasc\AppData\Local\Temp\arduino_build_312787\sketch/serialcli.cpp:255
                } else if(strncmp_P(&msgbuffer[startidx] ,PSTR("error"), (tokenlenght) )==0){
                    command.command=cmd_error;
    2862:	05 e0       	ldi	r16, 0x05	; 5
    2864:	10 e0       	ldi	r17, 0x00	; 0
    2866:	91 cf       	rjmp	.-222    	; 0x278a <main+0x6b0>
C:\Users\mathiasc\AppData\Local\Temp\arduino_build_312787\sketch/serialcli.cpp:298
              
              if( (msgbuffer[i]>='0') && (msgbuffer[i]<='9') ){
                  value = value * 10;
                  value = value + ( msgbuffer[i] -'0');
              } else {
                  if( ( msgbuffer[i]=='\n') || (msgbuffer[i]=='\r') ){
    2868:	ea 30       	cpi	r30, 0x0A	; 10
    286a:	11 f0       	breq	.+4      	; 0x2870 <main+0x796>
    286c:	ed 30       	cpi	r30, 0x0D	; 13
    286e:	59 f5       	brne	.+86     	; 0x28c6 <main+0x7ec>
C:\Users\mathiasc\AppData\Local\Temp\arduino_build_312787\sketch/serialcli.cpp:300
                      command.param_len = i;
                       command.parameter.u32 = value;
    2870:	8d 82       	std	Y+5, r8	; 0x05
    2872:	9e 82       	std	Y+6, r9	; 0x06
    2874:	af 82       	std	Y+7, r10	; 0x07
    2876:	b8 86       	std	Y+8, r11	; 0x08
    2878:	e9 82       	std	Y+1, r14	; 0x01
    287a:	fa 82       	std	Y+2, r15	; 0x02
    287c:	0b 83       	std	Y+3, r16	; 0x03
    287e:	1c 83       	std	Y+4, r17	; 0x04
    2880:	79 86       	std	Y+9, r7	; 0x09
    2882:	89 e0       	ldi	r24, 0x09	; 9
    2884:	fe 01       	movw	r30, r28
    2886:	31 96       	adiw	r30, 0x01	; 1
    2888:	de 01       	movw	r26, r28
    288a:	1d 96       	adiw	r26, 0x0d	; 13
    288c:	01 90       	ld	r0, Z+
    288e:	0d 92       	st	X+, r0
    2890:	8a 95       	dec	r24
    2892:	e1 f7       	brne	.-8      	; 0x288c <main+0x7b2>
ProcessCommand():
C:\Users\mathiasc\AppData\Local\Temp\arduino_build_312787\sketch/serialcli.cpp:454
 Input:       None
 Output:      None 
 Description: Processes decoded command
**********************************************************************************************************/
void ProcessCommand(  serial_command_t command ){
                         switch( command.cmd_dir ){
    2894:	f2 e0       	ldi	r31, 0x02	; 2
    2896:	ef 16       	cp	r14, r31
    2898:	f1 04       	cpc	r15, r1
    289a:	09 f4       	brne	.+2      	; 0x289e <main+0x7c4>
    289c:	ee c0       	rjmp	.+476    	; 0x2a7a <main+0x9a0>
    289e:	08 f0       	brcs	.+2      	; 0x28a2 <main+0x7c8>
    28a0:	ad c0       	rjmp	.+346    	; 0x29fc <main+0x922>
    28a2:	ea 94       	dec	r14
    28a4:	ef 28       	or	r14, r15
    28a6:	09 f4       	brne	.+2      	; 0x28aa <main+0x7d0>
    28a8:	41 c1       	rjmp	.+642    	; 0x2b2c <main+0xa52>
    28aa:	e8 e4       	ldi	r30, 0x48	; 72
    28ac:	f8 e2       	ldi	r31, 0x28	; 40
SerialConsoleProcess():
C:\Users\mathiasc\AppData\Local\Temp\arduino_build_312787\sketch/serialcli.cpp:425
                        ProcessCommand(command);
                       
                        /* we clear the buffer */

                        for (uint8_t i=0;i<sizeof(msgbuffer);i++){
                            msgbuffer[i]=0;
    28ae:	11 92       	st	Z+, r1
C:\Users\mathiasc\AppData\Local\Temp\arduino_build_312787\sketch/serialcli.cpp:424
                        serial_command_t command = SerialConsoleParseInput();
                        ProcessCommand(command);
                       
                        /* we clear the buffer */

                        for (uint8_t i=0;i<sizeof(msgbuffer);i++){
    28b0:	88 e2       	ldi	r24, 0x28	; 40
    28b2:	e8 38       	cpi	r30, 0x88	; 136
    28b4:	f8 07       	cpc	r31, r24
    28b6:	d9 f7       	brne	.-10     	; 0x28ae <main+0x7d4>
C:\Users\mathiasc\AppData\Local\Temp\arduino_build_312787\sketch/serialcli.cpp:427
                            msgbuffer[i]=0;
                        }
                        msgbufferidx = 0;
    28b8:	10 92 88 28 	sts	0x2888, r1	; 0x802888 <msgbufferidx>
C:\Users\mathiasc\AppData\Local\Temp\arduino_build_312787\sketch/serialcli.cpp:428
                        Serial.print(F("\r\n>"));
    28bc:	8d e8       	ldi	r24, 0x8D	; 141
    28be:	9c e7       	ldi	r25, 0x7C	; 124
    28c0:	0e 94 2a 0e 	call	0x1c54	; 0x1c54 <Print::print(char const*) [clone .constprop.12]>
    28c4:	4b ce       	rjmp	.-874    	; 0x255c <main+0x482>
SerialConsoleParseInput():
C:\Users\mathiasc\AppData\Local\Temp\arduino_build_312787\sketch/serialcli.cpp:302
              } else {
                  if( ( msgbuffer[i]=='\n') || (msgbuffer[i]=='\r') ){
                      command.param_len = i;
                       command.parameter.u32 = value;
                      return command;
                  } else if( (msgbuffer[i]<31) || ( msgbuffer[i]>=127)){
    28c6:	ef 51       	subi	r30, 0x1F	; 31
    28c8:	e0 36       	cpi	r30, 0x60	; 96
    28ca:	08 f4       	brcc	.+2      	; 0x28ce <main+0x7f4>
    28cc:	ac cf       	rjmp	.-168    	; 0x2826 <main+0x74c>
C:\Users\mathiasc\AppData\Local\Temp\arduino_build_312787\sketch/serialcli.cpp:306
                       /* Parsing error */
                  command.cmd_dir = cmd_data_error;
                  command.command = cmd_none;
                  command.parameter.u32=0;
    28ce:	1d 82       	std	Y+5, r1	; 0x05
    28d0:	1e 82       	std	Y+6, r1	; 0x06
    28d2:	1f 82       	std	Y+7, r1	; 0x07
    28d4:	18 86       	std	Y+8, r1	; 0x08
C:\Users\mathiasc\AppData\Local\Temp\arduino_build_312787\sketch/serialcli.cpp:307
                  Serial.print(" Syntax error near:\"");
    28d6:	89 eb       	ldi	r24, 0xB9	; 185
    28d8:	98 e7       	ldi	r25, 0x78	; 120
    28da:	0e 94 2a 0e 	call	0x1c54	; 0x1c54 <Print::print(char const*) [clone .constprop.12]>
C:\Users\mathiasc\AppData\Local\Temp\arduino_build_312787\sketch/serialcli.cpp:308
                  PrintErrorLocation(startidx,i);
    28de:	67 2d       	mov	r22, r7
    28e0:	88 8d       	ldd	r24, Y+24	; 0x18
    28e2:	0e 94 2c 0e 	call	0x1c58	; 0x1c58 <PrintErrorLocation(unsigned char, unsigned char)>
C:\Users\mathiasc\AppData\Local\Temp\arduino_build_312787\sketch/serialcli.cpp:305
                       command.parameter.u32 = value;
                      return command;
                  } else if( (msgbuffer[i]<31) || ( msgbuffer[i]>=127)){
                       /* Parsing error */
                  command.cmd_dir = cmd_data_error;
                  command.command = cmd_none;
    28e6:	10 e0       	ldi	r17, 0x00	; 0
    28e8:	00 e0       	ldi	r16, 0x00	; 0
C:\Users\mathiasc\AppData\Local\Temp\arduino_build_312787\sketch/serialcli.cpp:304
                      command.param_len = i;
                       command.parameter.u32 = value;
                      return command;
                  } else if( (msgbuffer[i]<31) || ( msgbuffer[i]>=127)){
                       /* Parsing error */
                  command.cmd_dir = cmd_data_error;
    28ea:	f1 2c       	mov	r15, r1
    28ec:	e1 2c       	mov	r14, r1
    28ee:	9b cf       	rjmp	.-202    	; 0x2826 <main+0x74c>
    28f0:	40 91 88 28 	lds	r20, 0x2888	; 0x802888 <msgbufferidx>
C:\Users\mathiasc\AppData\Local\Temp\arduino_build_312787\sketch/serialcli.cpp:318
              }                
          }
        } else if( (ParamLUT[command.command]==param_string) || (ParamLUT[command.command]==param_keyword) ){
          //This will be "simple" we look if we end with \n or \r and use the rest as
          //string for command processing
          command.parameter.ch=(char*)&msgbuffer[startidx]; //String start in Buffer
    28f4:	58 8d       	ldd	r21, Y+24	; 0x18
    28f6:	85 2f       	mov	r24, r21
    28f8:	90 e0       	ldi	r25, 0x00	; 0
    28fa:	bc 01       	movw	r22, r24
    28fc:	68 5b       	subi	r22, 0xB8	; 184
    28fe:	77 4d       	sbci	r23, 0xD7	; 215
    2900:	6b 01       	movw	r12, r22
    2902:	6d 83       	std	Y+5, r22	; 0x05
    2904:	7e 83       	std	Y+6, r23	; 0x06
    2906:	4b 01       	movw	r8, r22
    2908:	fb 01       	movw	r30, r22
    290a:	78 2e       	mov	r7, r24
    290c:	78 8d       	ldd	r23, Y+24	; 0x18
    290e:	77 1a       	sub	r7, r23
C:\Users\mathiasc\AppData\Local\Temp\arduino_build_312787\sketch/serialcli.cpp:320
          uint8_t StringLen = 0;
          for(uint8_t i=startidx;i<msgbufferidx;i++){
    2910:	84 17       	cp	r24, r20
    2912:	08 f0       	brcs	.+2      	; 0x2916 <main+0x83c>
    2914:	60 c0       	rjmp	.+192    	; 0x29d6 <main+0x8fc>
C:\Users\mathiasc\AppData\Local\Temp\arduino_build_312787\sketch/serialcli.cpp:322
             
                if( ( msgbuffer[i]=='\n') || (msgbuffer[i]=='\r') ){
    2916:	91 91       	ld	r25, Z+
    2918:	9a 30       	cpi	r25, 0x0A	; 10
    291a:	19 f0       	breq	.+6      	; 0x2922 <main+0x848>
    291c:	9d 30       	cpi	r25, 0x0D	; 13
    291e:	09 f0       	breq	.+2      	; 0x2922 <main+0x848>
    2920:	58 c0       	rjmp	.+176    	; 0x29d2 <main+0x8f8>
C:\Users\mathiasc\AppData\Local\Temp\arduino_build_312787\sketch/serialcli.cpp:324
                      //If we expect a param_sting we are done
                    if(ParamLUT[command.command]==param_string){
    2922:	27 30       	cpi	r18, 0x07	; 7
    2924:	31 05       	cpc	r19, r1
    2926:	09 f4       	brne	.+2      	; 0x292a <main+0x850>
    2928:	a7 cf       	rjmp	.-178    	; 0x2878 <main+0x79e>
C:\Users\mathiasc\AppData\Local\Temp\arduino_build_312787\sketch/serialcli.cpp:329
                        command.param_len=StringLen;
                        return command;
                    } else {
                          //We need to ckeck for supported keywords
                        if(strncmp_P((const char*)&msgbuffer[startidx] ,PSTR("ON"), (StringLen) )==0){
    292a:	a7 2c       	mov	r10, r7
    292c:	b1 2c       	mov	r11, r1
    292e:	a5 01       	movw	r20, r10
    2930:	60 ed       	ldi	r22, 0xD0	; 208
    2932:	70 e0       	ldi	r23, 0x00	; 0
    2934:	c6 01       	movw	r24, r12
    2936:	0e 94 76 19 	call	0x32ec	; 0x32ec <strncmp_P>
    293a:	89 2b       	or	r24, r25
    293c:	29 f4       	brne	.+10     	; 0x2948 <main+0x86e>
C:\Users\mathiasc\AppData\Local\Temp\arduino_build_312787\sketch/serialcli.cpp:330
                                command.parameter.kw =(keyword_t)( KW_ON );
    293e:	81 e0       	ldi	r24, 0x01	; 1
    2940:	90 e0       	ldi	r25, 0x00	; 0
C:\Users\mathiasc\AppData\Local\Temp\arduino_build_312787\sketch/serialcli.cpp:342
                                 return command;
                        } else if(strncmp_P((const char*)&msgbuffer[startidx] ,PSTR("HKO"), (StringLen) )==0){
                                command.parameter.kw =(keyword_t)( KW_HKO );
                                 return command;
                        } else if(strncmp_P((const char*)&msgbuffer[startidx] ,PSTR("WRT"), (StringLen) )==0){
                                command.parameter.kw =(keyword_t)( KW_WRT );
    2942:	8d 83       	std	Y+5, r24	; 0x05
    2944:	9e 83       	std	Y+6, r25	; 0x06
    2946:	98 cf       	rjmp	.-208    	; 0x2878 <main+0x79e>
C:\Users\mathiasc\AppData\Local\Temp\arduino_build_312787\sketch/serialcli.cpp:332
                    } else {
                          //We need to ckeck for supported keywords
                        if(strncmp_P((const char*)&msgbuffer[startidx] ,PSTR("ON"), (StringLen) )==0){
                                command.parameter.kw =(keyword_t)( KW_ON );
                                 return command;
                        } else if(strncmp_P((const char*)&msgbuffer[startidx] ,PSTR("OFF"), (StringLen) )==0){
    2948:	a5 01       	movw	r20, r10
    294a:	6c ec       	ldi	r22, 0xCC	; 204
    294c:	70 e0       	ldi	r23, 0x00	; 0
    294e:	c6 01       	movw	r24, r12
    2950:	0e 94 76 19 	call	0x32ec	; 0x32ec <strncmp_P>
    2954:	89 2b       	or	r24, r25
    2956:	19 f4       	brne	.+6      	; 0x295e <main+0x884>
C:\Users\mathiasc\AppData\Local\Temp\arduino_build_312787\sketch/serialcli.cpp:333
                                command.parameter.kw =(keyword_t)( KW_OFF );
    2958:	82 e0       	ldi	r24, 0x02	; 2
    295a:	90 e0       	ldi	r25, 0x00	; 0
    295c:	f2 cf       	rjmp	.-28     	; 0x2942 <main+0x868>
C:\Users\mathiasc\AppData\Local\Temp\arduino_build_312787\sketch/serialcli.cpp:335
                                 return command;
                        } else if(strncmp_P((const char*)&msgbuffer[startidx] ,PSTR("JBC"), (StringLen) )==0){
    295e:	a5 01       	movw	r20, r10
    2960:	68 ec       	ldi	r22, 0xC8	; 200
    2962:	70 e0       	ldi	r23, 0x00	; 0
    2964:	c6 01       	movw	r24, r12
    2966:	0e 94 76 19 	call	0x32ec	; 0x32ec <strncmp_P>
    296a:	89 2b       	or	r24, r25
    296c:	19 f4       	brne	.+6      	; 0x2974 <main+0x89a>
C:\Users\mathiasc\AppData\Local\Temp\arduino_build_312787\sketch/serialcli.cpp:336
                                command.parameter.kw =(keyword_t)( KW_JBC );
    296e:	83 e0       	ldi	r24, 0x03	; 3
    2970:	90 e0       	ldi	r25, 0x00	; 0
    2972:	e7 cf       	rjmp	.-50     	; 0x2942 <main+0x868>
C:\Users\mathiasc\AppData\Local\Temp\arduino_build_312787\sketch/serialcli.cpp:338
                                 return command;
                        } else if(strncmp_P((const char*)&msgbuffer[startidx] ,PSTR("HKO"), (StringLen) )==0){
    2974:	a5 01       	movw	r20, r10
    2976:	64 ec       	ldi	r22, 0xC4	; 196
    2978:	70 e0       	ldi	r23, 0x00	; 0
    297a:	c6 01       	movw	r24, r12
    297c:	0e 94 76 19 	call	0x32ec	; 0x32ec <strncmp_P>
    2980:	89 2b       	or	r24, r25
    2982:	19 f4       	brne	.+6      	; 0x298a <main+0x8b0>
C:\Users\mathiasc\AppData\Local\Temp\arduino_build_312787\sketch/serialcli.cpp:339
                                command.parameter.kw =(keyword_t)( KW_HKO );
    2984:	2d 82       	std	Y+5, r2	; 0x05
    2986:	3e 82       	std	Y+6, r3	; 0x06
    2988:	77 cf       	rjmp	.-274    	; 0x2878 <main+0x79e>
C:\Users\mathiasc\AppData\Local\Temp\arduino_build_312787\sketch/serialcli.cpp:341
                                 return command;
                        } else if(strncmp_P((const char*)&msgbuffer[startidx] ,PSTR("WRT"), (StringLen) )==0){
    298a:	a5 01       	movw	r20, r10
    298c:	60 ec       	ldi	r22, 0xC0	; 192
    298e:	70 e0       	ldi	r23, 0x00	; 0
    2990:	c6 01       	movw	r24, r12
    2992:	0e 94 76 19 	call	0x32ec	; 0x32ec <strncmp_P>
    2996:	89 2b       	or	r24, r25
    2998:	19 f4       	brne	.+6      	; 0x29a0 <main+0x8c6>
C:\Users\mathiasc\AppData\Local\Temp\arduino_build_312787\sketch/serialcli.cpp:342
                                command.parameter.kw =(keyword_t)( KW_WRT );
    299a:	85 e0       	ldi	r24, 0x05	; 5
    299c:	90 e0       	ldi	r25, 0x00	; 0
    299e:	d1 cf       	rjmp	.-94     	; 0x2942 <main+0x868>
C:\Users\mathiasc\AppData\Local\Temp\arduino_build_312787\sketch/serialcli.cpp:346
                                 return command;
                        } else {
                            //We need to signal an parsing error
                            Serial.print("'");
    29a0:	82 e3       	ldi	r24, 0x32	; 50
    29a2:	99 e7       	ldi	r25, 0x79	; 121
    29a4:	0e 94 2a 0e 	call	0x1c54	; 0x1c54 <Print::print(char const*) [clone .constprop.12]>
main():
C:\Users\mathiasc\AppData\Local\Temp\arduino_build_312787\sketch/serialcli.cpp:347
                            for( uint8_t i=0;i<StringLen;i++){
    29a8:	d1 2c       	mov	r13, r1
SerialConsoleParseInput():
    29aa:	d7 14       	cp	r13, r7
    29ac:	49 f0       	breq	.+18     	; 0x29c0 <main+0x8e6>
C:\Users\mathiasc\AppData\Local\Temp\arduino_build_312787\sketch/serialcli.cpp:348
                                Serial.print((char)(msgbuffer[startidx+i]) );
    29ae:	f4 01       	movw	r30, r8
    29b0:	61 91       	ld	r22, Z+
    29b2:	4f 01       	movw	r8, r30
print():
C:\Users\mathiasc\AppData\Local\Arduino15\packages\MegaCoreX\hardware\megaavr\1.0.4\cores\coreX-corefiles\api/Print.cpp:74
  return write(str);
}

size_t Print::print(char c)
{
  return write(c);
    29b4:	87 ea       	ldi	r24, 0xA7	; 167
    29b6:	98 e2       	ldi	r25, 0x28	; 40
    29b8:	0e 94 37 02 	call	0x46e	; 0x46e <UartClass::write(unsigned char)>
SerialConsoleParseInput():
C:\Users\mathiasc\AppData\Local\Temp\arduino_build_312787\sketch/serialcli.cpp:347
                                command.parameter.kw =(keyword_t)( KW_WRT );
                                 return command;
                        } else {
                            //We need to signal an parsing error
                            Serial.print("'");
                            for( uint8_t i=0;i<StringLen;i++){
    29bc:	d3 94       	inc	r13
    29be:	f5 cf       	rjmp	.-22     	; 0x29aa <main+0x8d0>
C:\Users\mathiasc\AppData\Local\Temp\arduino_build_312787\sketch/serialcli.cpp:350
                                Serial.print((char)(msgbuffer[startidx+i]) );
                            }
                            Serial.println("' not recognized as keyword" );
    29c0:	84 e3       	ldi	r24, 0x34	; 52
    29c2:	99 e7       	ldi	r25, 0x79	; 121
    29c4:	0e 94 1c 0e 	call	0x1c38	; 0x1c38 <Print::println(char const*) [clone .constprop.19]>
C:\Users\mathiasc\AppData\Local\Temp\arduino_build_312787\sketch/serialcli.cpp:351
                            command.parameter.u32 =(uint32_t)( KW_PARSE_ERROR );
    29c8:	1d 82       	std	Y+5, r1	; 0x05
    29ca:	1e 82       	std	Y+6, r1	; 0x06
    29cc:	1f 82       	std	Y+7, r1	; 0x07
    29ce:	18 86       	std	Y+8, r1	; 0x08
    29d0:	53 cf       	rjmp	.-346    	; 0x2878 <main+0x79e>
C:\Users\mathiasc\AppData\Local\Temp\arduino_build_312787\sketch/serialcli.cpp:320
        } else if( (ParamLUT[command.command]==param_string) || (ParamLUT[command.command]==param_keyword) ){
          //This will be "simple" we look if we end with \n or \r and use the rest as
          //string for command processing
          command.parameter.ch=(char*)&msgbuffer[startidx]; //String start in Buffer
          uint8_t StringLen = 0;
          for(uint8_t i=startidx;i<msgbufferidx;i++){
    29d2:	8f 5f       	subi	r24, 0xFF	; 255
    29d4:	9a cf       	rjmp	.-204    	; 0x290a <main+0x830>
C:\Users\mathiasc\AppData\Local\Temp\arduino_build_312787\sketch/serialcli.cpp:361
                StringLen++;
            }
            /* Parsing error */
            command.cmd_dir = cmd_data_error;
            command.command = cmd_none;
            command.parameter.u32=0;
    29d6:	1d 82       	std	Y+5, r1	; 0x05
    29d8:	1e 82       	std	Y+6, r1	; 0x06
    29da:	1f 82       	std	Y+7, r1	; 0x07
    29dc:	18 86       	std	Y+8, r1	; 0x08
C:\Users\mathiasc\AppData\Local\Temp\arduino_build_312787\sketch/serialcli.cpp:362
            Serial.print("Syntax error near:\"");
    29de:	8a eb       	ldi	r24, 0xBA	; 186
    29e0:	98 e7       	ldi	r25, 0x78	; 120
    29e2:	0e 94 2a 0e 	call	0x1c54	; 0x1c54 <Print::print(char const*) [clone .constprop.12]>
C:\Users\mathiasc\AppData\Local\Temp\arduino_build_312787\sketch/serialcli.cpp:363
            PrintErrorLocation(startidx,msgbufferidx);
    29e6:	60 91 88 28 	lds	r22, 0x2888	; 0x802888 <msgbufferidx>
    29ea:	88 8d       	ldd	r24, Y+24	; 0x18
    29ec:	0e 94 2c 0e 	call	0x1c58	; 0x1c58 <PrintErrorLocation(unsigned char, unsigned char)>
    29f0:	f4 cd       	rjmp	.-1048   	; 0x25da <main+0x500>
C:\Users\mathiasc\AppData\Local\Temp\arduino_build_312787\sketch/serialcli.cpp:201
 Description: Command parser, returns a struct with the parsed result
**********************************************************************************************************/
serial_command_t SerialConsoleParseInput( void ){
    serial_command_t command;
    command.cmd_dir = cmd_data_error;
    command.command = cmd_none;
    29f2:	10 e0       	ldi	r17, 0x00	; 0
    29f4:	00 e0       	ldi	r16, 0x00	; 0
    29f6:	40 cf       	rjmp	.-384    	; 0x2878 <main+0x79e>
C:\Users\mathiasc\AppData\Local\Temp\arduino_build_312787\sketch/serialcli.cpp:291
            we currently strings and integer ( u32 ) but need to decide what we must do
        */
        
        if( (ParamLUT[command.command]!=param_string) && (ParamLUT[command.command]!=param_keyword) ){
          uint32_t value = 0;
          command.param_len=0;
    29f8:	71 2c       	mov	r7, r1
    29fa:	3e cf       	rjmp	.-388    	; 0x2878 <main+0x79e>
ProcessCommand():
C:\Users\mathiasc\AppData\Local\Temp\arduino_build_312787\sketch/serialcli.cpp:454
 Input:       None
 Output:      None 
 Description: Processes decoded command
**********************************************************************************************************/
void ProcessCommand(  serial_command_t command ){
                         switch( command.cmd_dir ){
    29fc:	43 e0       	ldi	r20, 0x03	; 3
    29fe:	e4 16       	cp	r14, r20
    2a00:	f1 04       	cpc	r15, r1
    2a02:	09 f4       	brne	.+2      	; 0x2a06 <main+0x92c>
    2a04:	01 c1       	rjmp	.+514    	; 0x2c08 <main+0xb2e>
    2a06:	54 e0       	ldi	r21, 0x04	; 4
    2a08:	e5 16       	cp	r14, r21
    2a0a:	f1 04       	cpc	r15, r1
    2a0c:	09 f0       	breq	.+2      	; 0x2a10 <main+0x936>
    2a0e:	4d cf       	rjmp	.-358    	; 0x28aa <main+0x7d0>
SerialCommandShowHelp():
C:\Users\mathiasc\AppData\Local\Temp\arduino_build_312787\sketch/serialcli.cpp:172
 Input:       None
 Output:      None 
 Description: Show the help
**********************************************************************************************************/
void SerialCommandShowHelp( void ){
    Serial.println(F("Supported commands"));
    2a10:	80 e5       	ldi	r24, 0x50	; 80
    2a12:	99 e7       	ldi	r25, 0x79	; 121
    2a14:	0e 94 1c 0e 	call	0x1c38	; 0x1c38 <Print::println(char const*) [clone .constprop.19]>
C:\Users\mathiasc\AppData\Local\Temp\arduino_build_312787\sketch/serialcli.cpp:173
    Serial.println(F("------------------------------------------------------------------"));
    2a18:	89 ea       	ldi	r24, 0xA9	; 169
    2a1a:	9b e7       	ldi	r25, 0x7B	; 123
    2a1c:	0e 94 1c 0e 	call	0x1c38	; 0x1c38 <Print::println(char const*) [clone .constprop.19]>
C:\Users\mathiasc\AppData\Local\Temp\arduino_build_312787\sketch/serialcli.cpp:174
    Serial.println(F("set/get setpoint [xxx] -> This will set or get the setpoint"));
    2a20:	83 e6       	ldi	r24, 0x63	; 99
    2a22:	99 e7       	ldi	r25, 0x79	; 121
    2a24:	0e 94 1c 0e 	call	0x1c38	; 0x1c38 <Print::println(char const*) [clone .constprop.19]>
C:\Users\mathiasc\AppData\Local\Temp\arduino_build_312787\sketch/serialcli.cpp:175
    Serial.println(F("set/get irontype [xxx] -> This will set or get the irontype"));
    2a28:	8f e9       	ldi	r24, 0x9F	; 159
    2a2a:	99 e7       	ldi	r25, 0x79	; 121
    2a2c:	0e 94 1c 0e 	call	0x1c38	; 0x1c38 <Print::println(char const*) [clone .constprop.19]>
C:\Users\mathiasc\AppData\Local\Temp\arduino_build_312787\sketch/serialcli.cpp:176
    Serial.println(F("                  WRT = Weller RT Tip ( 12V / Type K )  "));
    2a30:	8b ed       	ldi	r24, 0xDB	; 219
    2a32:	99 e7       	ldi	r25, 0x79	; 121
    2a34:	0e 94 1c 0e 	call	0x1c38	; 0x1c38 <Print::println(char const*) [clone .constprop.19]>
C:\Users\mathiasc\AppData\Local\Temp\arduino_build_312787\sketch/serialcli.cpp:177
    Serial.println(F("                  HKO = HAKKO Tip ( 24V / Type C )  "));
    2a38:	84 e1       	ldi	r24, 0x14	; 20
    2a3a:	9a e7       	ldi	r25, 0x7A	; 122
    2a3c:	0e 94 1c 0e 	call	0x1c38	; 0x1c38 <Print::println(char const*) [clone .constprop.19]>
C:\Users\mathiasc\AppData\Local\Temp\arduino_build_312787\sketch/serialcli.cpp:178
    Serial.println(F("                  JBC = JBC Tip ( 24V / Type K )  "));
    2a40:	89 e4       	ldi	r24, 0x49	; 73
    2a42:	9a e7       	ldi	r25, 0x7A	; 122
    2a44:	0e 94 1c 0e 	call	0x1c38	; 0x1c38 <Print::println(char const*) [clone .constprop.19]>
C:\Users\mathiasc\AppData\Local\Temp\arduino_build_312787\sketch/serialcli.cpp:179
    Serial.println(F("get temperature        -> This will report the current temp."));
    2a48:	8c e7       	ldi	r24, 0x7C	; 124
    2a4a:	9a e7       	ldi	r25, 0x7A	; 122
    2a4c:	0e 94 1c 0e 	call	0x1c38	; 0x1c38 <Print::println(char const*) [clone .constprop.19]>
C:\Users\mathiasc\AppData\Local\Temp\arduino_build_312787\sketch/serialcli.cpp:180
    Serial.println(F("get onchiptemp         -> This will report the onchip temp."));
    2a50:	89 eb       	ldi	r24, 0xB9	; 185
    2a52:	9a e7       	ldi	r25, 0x7A	; 122
    2a54:	0e 94 1c 0e 	call	0x1c38	; 0x1c38 <Print::println(char const*) [clone .constprop.19]>
C:\Users\mathiasc\AppData\Local\Temp\arduino_build_312787\sketch/serialcli.cpp:181
    Serial.println(F("get onewiretemp         -> This will report the onewire temp."));
    2a58:	85 ef       	ldi	r24, 0xF5	; 245
    2a5a:	9a e7       	ldi	r25, 0x7A	; 122
    2a5c:	0e 94 1c 0e 	call	0x1c38	; 0x1c38 <Print::println(char const*) [clone .constprop.19]>
C:\Users\mathiasc\AppData\Local\Temp\arduino_build_312787\sketch/serialcli.cpp:182
    Serial.println(F("clear error            -> If an error is shown this will clear it"));
    2a60:	83 e3       	ldi	r24, 0x33	; 51
    2a62:	9b e7       	ldi	r25, 0x7B	; 123
    2a64:	0e 94 1c 0e 	call	0x1c38	; 0x1c38 <Print::println(char const*) [clone .constprop.19]>
C:\Users\mathiasc\AppData\Local\Temp\arduino_build_312787\sketch/serialcli.cpp:183
    Serial.println(F("help                   -> This will show this help"));
    2a68:	85 e7       	ldi	r24, 0x75	; 117
    2a6a:	9b e7       	ldi	r25, 0x7B	; 123
    2a6c:	0e 94 1c 0e 	call	0x1c38	; 0x1c38 <Print::println(char const*) [clone .constprop.19]>
C:\Users\mathiasc\AppData\Local\Temp\arduino_build_312787\sketch/serialcli.cpp:184
    Serial.println(F("-------------------------------------------------------------------"));
    2a70:	88 ea       	ldi	r24, 0xA8	; 168
    2a72:	9b e7       	ldi	r25, 0x7B	; 123
ProcessCommand():
C:\Users\mathiasc\AppData\Local\Temp\arduino_build_312787\sketch/serialcli.cpp:573

                                switch ( command.command ){
                                    
                                    case cmd_error:{
                                        command_if_clear_error();
                                        Serial.println("OK");
    2a74:	0e 94 1c 0e 	call	0x1c38	; 0x1c38 <Print::println(char const*) [clone .constprop.19]>
    2a78:	18 cf       	rjmp	.-464    	; 0x28aa <main+0x7d0>
C:\Users\mathiasc\AppData\Local\Temp\arduino_build_312787\sketch/serialcli.cpp:461
                                SerialCommandShowHelp();
                            } break;

                            case cmd_data_set:{

                                switch ( command.command ){
    2a7a:	01 30       	cpi	r16, 0x01	; 1
    2a7c:	11 05       	cpc	r17, r1
    2a7e:	31 f0       	breq	.+12     	; 0x2a8c <main+0x9b2>
    2a80:	06 30       	cpi	r16, 0x06	; 6
    2a82:	11 05       	cpc	r17, r1
    2a84:	99 f1       	breq	.+102    	; 0x2aec <main+0xa12>
C:\Users\mathiasc\AppData\Local\Temp\arduino_build_312787\sketch/serialcli.cpp:497
                                            }
                                        }
                                    }break;

                                    default:{
                                        Serial.println("Not supported");
    2a86:	8b e1       	ldi	r24, 0x1B	; 27
    2a88:	9c e7       	ldi	r25, 0x7C	; 124
    2a8a:	f4 cf       	rjmp	.-24     	; 0x2a74 <main+0x99a>
C:\Users\mathiasc\AppData\Local\Temp\arduino_build_312787\sketch/serialcli.cpp:464
                            case cmd_data_set:{

                                switch ( command.command ){
                                    
                                    case cmd_setpoint:{
                                     if(command.parameter.u32<=UINT16_MAX){
    2a8c:	89 89       	ldd	r24, Y+17	; 0x11
    2a8e:	9a 89       	ldd	r25, Y+18	; 0x12
    2a90:	ab 89       	ldd	r26, Y+19	; 0x13
    2a92:	bc 89       	ldd	r27, Y+20	; 0x14
    2a94:	00 97       	sbiw	r24, 0x00	; 0
    2a96:	61 e0       	ldi	r22, 0x01	; 1
    2a98:	a6 07       	cpc	r26, r22
    2a9a:	b1 05       	cpc	r27, r1
    2a9c:	08 f0       	brcs	.+2      	; 0x2aa0 <main+0x9c6>
    2a9e:	05 cf       	rjmp	.-502    	; 0x28aa <main+0x7d0>
command_if_update_setpoint():
D:\Projects\190409-DIY_SOLDERING_IRON\Soldering-Station/Soldering-Station.ino:371
 Description: Sets the setpoint from a command interface
 *************************************************************************************************************/   
void command_if_update_setpoint( uint16_t newsetpoint )
{
  /* saintiy check */
  if( (newsetpoint >= MIN_TEMP) && ( newsetpoint<= MAX_TEMP)){
    2aa0:	9c 01       	movw	r18, r24
    2aa2:	22 53       	subi	r18, 0x32	; 50
    2aa4:	31 09       	sbc	r19, r1
    2aa6:	21 39       	cpi	r18, 0x91	; 145
    2aa8:	31 40       	sbci	r19, 0x01	; 1
    2aaa:	70 f4       	brcc	.+28     	; 0x2ac8 <main+0x9ee>
D:\Projects\190409-DIY_SOLDERING_IRON\Soldering-Station/Soldering-Station.ino:374
  
      /* depending on the state we need to decide if we write to the setpoint or LastActiveTemp */
      switch( state ){
    2aac:	20 91 22 28 	lds	r18, 0x2822	; 0x802822 <state>
    2ab0:	30 91 23 28 	lds	r19, 0x2823	; 0x802823 <state+0x1>
    2ab4:	25 30       	cpi	r18, 0x05	; 5
    2ab6:	31 05       	cpc	r19, r1
    2ab8:	19 f0       	breq	.+6      	; 0x2ac0 <main+0x9e6>
    2aba:	27 30       	cpi	r18, 0x07	; 7
    2abc:	31 05       	cpc	r19, r1
    2abe:	89 f4       	brne	.+34     	; 0x2ae2 <main+0xa08>
D:\Projects\190409-DIY_SOLDERING_IRON\Soldering-Station/Soldering-Station.ino:377
        case SLEEP:
        case POWERSAVE:{
            LastActiveTemp = newsetpoint;
    2ac0:	80 93 8b 28 	sts	0x288B, r24	; 0x80288b <LastActiveTemp>
    2ac4:	90 93 8c 28 	sts	0x288C, r25	; 0x80288c <LastActiveTemp+0x1>
ProcessCommand():
C:\Users\mathiasc\AppData\Local\Temp\arduino_build_312787\sketch/serialcli.cpp:508
                            case cmd_data_get:{

                                  switch ( command.command ){
                                    
                                    case cmd_setpoint:{
                                    Serial.print(F("Setpoint:"));
    2ac8:	8c ee       	ldi	r24, 0xEC	; 236
    2aca:	9b e7       	ldi	r25, 0x7B	; 123
    2acc:	0e 94 2a 0e 	call	0x1c54	; 0x1c54 <Print::print(char const*) [clone .constprop.12]>
C:\Users\mathiasc\AppData\Local\Temp\arduino_build_312787\sketch/serialcli.cpp:509
                                    Serial.print(command_if_get_setpoint());  
    2ad0:	0e 94 e8 09 	call	0x13d0	; 0x13d0 <command_if_get_setpoint()>
print():
C:\Users\mathiasc\AppData\Local\Arduino15\packages\MegaCoreX\hardware\megaavr\1.0.4\cores\coreX-corefiles\api/Print.cpp:89
  return print((long)n, base);
}

size_t Print::print(unsigned int n, int base)
{
  return print((unsigned long)n, base);
    2ad4:	bc 01       	movw	r22, r24
    2ad6:	90 e0       	ldi	r25, 0x00	; 0
    2ad8:	80 e0       	ldi	r24, 0x00	; 0
C:\Users\mathiasc\AppData\Local\Arduino15\packages\MegaCoreX\hardware\megaavr\1.0.4\cores\coreX-corefiles\api/Print.cpp:119
size_t Print::print(unsigned long n, int base)
{
  if (base == 0)
    return write(n);
  else
    return printNumber(n, base);
    2ada:	4a e0       	ldi	r20, 0x0A	; 10
    2adc:	0e 94 ae 0d 	call	0x1b5c	; 0x1b5c <Print::printNumber(unsigned long, unsigned char) [clone .constprop.17]>
    2ae0:	16 c0       	rjmp	.+44     	; 0x2b0e <main+0xa34>
command_if_update_setpoint():
D:\Projects\190409-DIY_SOLDERING_IRON\Soldering-Station/Soldering-Station.ino:381
        } break;

        default:{
            setpoint = newsetpoint;
    2ae2:	80 93 20 28 	sts	0x2820, r24	; 0x802820 <setpoint>
    2ae6:	90 93 21 28 	sts	0x2821, r25	; 0x802821 <setpoint+0x1>
    2aea:	ee cf       	rjmp	.-36     	; 0x2ac8 <main+0x9ee>
ProcessCommand():
C:\Users\mathiasc\AppData\Local\Temp\arduino_build_312787\sketch/serialcli.cpp:473
                                            Serial.print(F("\n\rOK\n\r")); 
                                      }
                                    } break;

                                    case cmd_irontype:{
                                        switch(command.parameter.kw){
    2aec:	89 89       	ldd	r24, Y+17	; 0x11
    2aee:	9a 89       	ldd	r25, Y+18	; 0x12
    2af0:	84 30       	cpi	r24, 0x04	; 4
    2af2:	91 05       	cpc	r25, r1
    2af4:	41 f0       	breq	.+16     	; 0x2b06 <main+0xa2c>
    2af6:	85 30       	cpi	r24, 0x05	; 5
    2af8:	91 05       	cpc	r25, r1
    2afa:	61 f0       	breq	.+24     	; 0x2b14 <main+0xa3a>
    2afc:	03 97       	sbiw	r24, 0x03	; 3
    2afe:	69 f4       	brne	.+26     	; 0x2b1a <main+0xa40>
command_if_set_irontype():
D:\Projects\190409-DIY_SOLDERING_IRON\Soldering-Station/Soldering-Station.ino:357
SolderingIronType_t command_if_get_irontype( void ){
    return Station.GetSolderingIron();
}

void command_if_set_irontype( SolderingIronType_t iron ){
  Station.SetSolderingIron(iron);
    2b00:	82 e0       	ldi	r24, 0x02	; 2
    2b02:	90 e0       	ldi	r25, 0x00	; 0
    2b04:	02 c0       	rjmp	.+4      	; 0x2b0a <main+0xa30>
    2b06:	81 e0       	ldi	r24, 0x01	; 1
    2b08:	90 e0       	ldi	r25, 0x00	; 0
    2b0a:	0e 94 7c 0a 	call	0x14f8	; 0x14f8 <HW_190409::SetSolderingIron(SolderingIronType_t) [clone .constprop.62]>
ProcessCommand():
C:\Users\mathiasc\AppData\Local\Temp\arduino_build_312787\sketch/serialcli.cpp:555

                                        default:{
                                            Serial.print(F("UNKNOWN"));
                                        }break;
                                    }
                                    Serial.print(F("\n\rOK\n\r")); 
    2b0e:	86 ef       	ldi	r24, 0xF6	; 246
    2b10:	9b e7       	ldi	r25, 0x7B	; 123
    2b12:	09 c0       	rjmp	.+18     	; 0x2b26 <main+0xa4c>
command_if_set_irontype():
D:\Projects\190409-DIY_SOLDERING_IRON\Soldering-Station/Soldering-Station.ino:357
    2b14:	83 e0       	ldi	r24, 0x03	; 3
    2b16:	90 e0       	ldi	r25, 0x00	; 0
    2b18:	f8 cf       	rjmp	.-16     	; 0x2b0a <main+0xa30>
ProcessCommand():
C:\Users\mathiasc\AppData\Local\Temp\arduino_build_312787\sketch/serialcli.cpp:490
                                                command_if_set_irontype(IRON_WELLER_RT);
                                                 Serial.print(F("\n\rOK\n\r")); 
                                            }break;

                                            default:{
                                                Serial.println("Keyword not supported");
    2b1a:	8d ef       	ldi	r24, 0xFD	; 253
    2b1c:	9b e7       	ldi	r25, 0x7B	; 123
    2b1e:	0e 94 1c 0e 	call	0x1c38	; 0x1c38 <Print::println(char const*) [clone .constprop.19]>
C:\Users\mathiasc\AppData\Local\Temp\arduino_build_312787\sketch/serialcli.cpp:491
                                                Serial.print(F("\n\rERR\n\r")); 
    2b22:	83 e1       	ldi	r24, 0x13	; 19
    2b24:	9c e7       	ldi	r25, 0x7C	; 124
C:\Users\mathiasc\AppData\Local\Temp\arduino_build_312787\sketch/serialcli.cpp:555

                                        default:{
                                            Serial.print(F("UNKNOWN"));
                                        }break;
                                    }
                                    Serial.print(F("\n\rOK\n\r")); 
    2b26:	0e 94 2a 0e 	call	0x1c54	; 0x1c54 <Print::print(char const*) [clone .constprop.12]>
    2b2a:	bf ce       	rjmp	.-642    	; 0x28aa <main+0x7d0>
C:\Users\mathiasc\AppData\Local\Temp\arduino_build_312787\sketch/serialcli.cpp:505
                       
                            }break;

                            case cmd_data_get:{

                                  switch ( command.command ){
    2b2c:	03 30       	cpi	r16, 0x03	; 3
    2b2e:	11 05       	cpc	r17, r1
    2b30:	61 f1       	breq	.+88     	; 0x2b8a <main+0xab0>
    2b32:	80 f4       	brcc	.+32     	; 0x2b54 <main+0xa7a>
    2b34:	01 30       	cpi	r16, 0x01	; 1
    2b36:	11 05       	cpc	r17, r1
    2b38:	39 f2       	breq	.-114    	; 0x2ac8 <main+0x9ee>
    2b3a:	02 30       	cpi	r16, 0x02	; 2
    2b3c:	11 05       	cpc	r17, r1
    2b3e:	09 f0       	breq	.+2      	; 0x2b42 <main+0xa68>
    2b40:	a2 cf       	rjmp	.-188    	; 0x2a86 <main+0x9ac>
C:\Users\mathiasc\AppData\Local\Temp\arduino_build_312787\sketch/serialcli.cpp:514
                                    Serial.print(command_if_get_setpoint());  
                                    Serial.print(F("\n\rOK\n\r")); 
                                    } break;

                                    case cmd_temperatur:{
                                    Serial.print(F("Temperatur:"));
    2b42:	83 e4       	ldi	r24, 0x43	; 67
    2b44:	9c e7       	ldi	r25, 0x7C	; 124
    2b46:	0e 94 2a 0e 	call	0x1c54	; 0x1c54 <Print::print(char const*) [clone .constprop.12]>
print():
C:\Users\mathiasc\AppData\Local\Arduino15\packages\MegaCoreX\hardware\megaavr\1.0.4\cores\coreX-corefiles\api/Print.cpp:89
  return print((long)n, base);
}

size_t Print::print(unsigned int n, int base)
{
  return print((unsigned long)n, base);
    2b4a:	60 91 99 28 	lds	r22, 0x2899	; 0x802899 <display_Temp>
    2b4e:	70 91 9a 28 	lds	r23, 0x289A	; 0x80289a <display_Temp+0x1>
    2b52:	c1 cf       	rjmp	.-126    	; 0x2ad6 <main+0x9fc>
ProcessCommand():
C:\Users\mathiasc\AppData\Local\Temp\arduino_build_312787\sketch/serialcli.cpp:505
                       
                            }break;

                            case cmd_data_get:{

                                  switch ( command.command ){
    2b54:	05 30       	cpi	r16, 0x05	; 5
    2b56:	11 05       	cpc	r17, r1
    2b58:	61 f1       	breq	.+88     	; 0x2bb2 <main+0xad8>
    2b5a:	10 f1       	brcs	.+68     	; 0x2ba0 <main+0xac6>
    2b5c:	06 30       	cpi	r16, 0x06	; 6
    2b5e:	11 05       	cpc	r17, r1
    2b60:	09 f0       	breq	.+2      	; 0x2b64 <main+0xa8a>
    2b62:	91 cf       	rjmp	.-222    	; 0x2a86 <main+0x9ac>
C:\Users\mathiasc\AppData\Local\Temp\arduino_build_312787\sketch/serialcli.cpp:537
                                    Serial.print(F("Error:"));
                                    Serial.print(command_if_get_error());  
                                    Serial.print(F("\n\rOK\n\r")); 

                                    case cmd_irontype:{
                                    Serial.print(F("Irontype:"));
    2b64:	86 e5       	ldi	r24, 0x56	; 86
    2b66:	9c e7       	ldi	r25, 0x7C	; 124
    2b68:	0e 94 2a 0e 	call	0x1c54	; 0x1c54 <Print::print(char const*) [clone .constprop.12]>
GetSolderingIron():
C:\Users\mathiasc\AppData\Local\Temp\arduino_build_312787\sketch/HW_190409.cpp:323
 Input:       None
 Output:      SolderingIronType_t
 Discription: Get the currently configured iron form the station
**********************************************************************************************************/
SolderingIronType_t HW_190409::GetSolderingIron( void ){
  return read_StoreIronConfig();
    2b6c:	0e 94 41 0a 	call	0x1482	; 0x1482 <HW_190409::read_StoreIronConfig() [clone .constprop.61]>
ProcessCommand():
C:\Users\mathiasc\AppData\Local\Temp\arduino_build_312787\sketch/serialcli.cpp:538
                                    switch(command_if_get_irontype() ){
    2b70:	82 30       	cpi	r24, 0x02	; 2
    2b72:	91 05       	cpc	r25, r1
    2b74:	09 f4       	brne	.+2      	; 0x2b78 <main+0xa9e>
    2b76:	42 c0       	rjmp	.+132    	; 0x2bfc <main+0xb22>
    2b78:	83 30       	cpi	r24, 0x03	; 3
    2b7a:	91 05       	cpc	r25, r1
    2b7c:	d1 f1       	breq	.+116    	; 0x2bf2 <main+0xb18>
    2b7e:	01 97       	sbiw	r24, 0x01	; 1
    2b80:	09 f0       	breq	.+2      	; 0x2b84 <main+0xaaa>
    2b82:	3f c0       	rjmp	.+126    	; 0x2c02 <main+0xb28>
C:\Users\mathiasc\AppData\Local\Temp\arduino_build_312787\sketch/serialcli.cpp:544
                                        case IRON_WELLER_RT:{
                                            Serial.print(F("Weller RT")); 
                                        }break;

                                        case IRON_HAKKO_FX8801:{
                                            Serial.print(F("HAKKKO FX8801"));
    2b84:	8a e6       	ldi	r24, 0x6A	; 106
    2b86:	9c e7       	ldi	r25, 0x7C	; 124
    2b88:	36 c0       	rjmp	.+108    	; 0x2bf6 <main+0xb1c>
C:\Users\mathiasc\AppData\Local\Temp\arduino_build_312787\sketch/serialcli.cpp:520
                                    Serial.print(command_if_get_temperature());  
                                    Serial.print(F("\n\rOK\n\r")); 
                                    } break;

                                    case cmd_onchiptemp:{
                                    Serial.print(F("OnChip Temperatur:"));
    2b8a:	89 e2       	ldi	r24, 0x29	; 41
    2b8c:	9c e7       	ldi	r25, 0x7C	; 124
    2b8e:	0e 94 2a 0e 	call	0x1c54	; 0x1c54 <Print::print(char const*) [clone .constprop.12]>
command_if_get_onchiptemp():
D:\Projects\190409-DIY_SOLDERING_IRON\Soldering-Station/Soldering-Station.ino:427

}


int16_t command_if_get_onchiptemp( void ){
  int16_t Temp = Station.Temp.GetOnchipTempKelvin();
    2b92:	0e 94 bc 00 	call	0x178	; 0x178 <TEMP_190409::GetOnchipTempKelvin() [clone .constprop.45]>
ProcessCommand():
C:\Users\mathiasc\AppData\Local\Temp\arduino_build_312787\sketch/serialcli.cpp:527
                                    Serial.print(F("\n\rOK\n\r"));  
                                    } break;

                                    case cmd_onewiretemp:{
                                    Serial.print(F("1-Wire Temperatur:"));
                                    Serial.print(command_if_get_onewiretemp());  
    2b96:	81 51       	subi	r24, 0x11	; 17
    2b98:	91 40       	sbci	r25, 0x01	; 1
    2b9a:	0e 94 ec 0d 	call	0x1bd8	; 0x1bd8 <Print::print(int, int) [clone .constprop.6]>
    2b9e:	b7 cf       	rjmp	.-146    	; 0x2b0e <main+0xa34>
C:\Users\mathiasc\AppData\Local\Temp\arduino_build_312787\sketch/serialcli.cpp:526
                                    Serial.print(command_if_get_onchiptemp());  
                                    Serial.print(F("\n\rOK\n\r"));  
                                    } break;

                                    case cmd_onewiretemp:{
                                    Serial.print(F("1-Wire Temperatur:"));
    2ba0:	8c e3       	ldi	r24, 0x3C	; 60
    2ba2:	9c e7       	ldi	r25, 0x7C	; 124
    2ba4:	0e 94 2a 0e 	call	0x1c54	; 0x1c54 <Print::print(char const*) [clone .constprop.12]>
command_if_get_onewiretemp():
D:\Projects\190409-DIY_SOLDERING_IRON\Soldering-Station/Soldering-Station.ino:435
}


int16_t command_if_get_onewiretemp( void ){
  int16_t Temp = Station.Temp.GetLastOneWireTempKelvin();
  Temp = Temp-273;
    2ba8:	80 91 69 29 	lds	r24, 0x2969	; 0x802969 <Station+0xf>
    2bac:	90 91 6a 29 	lds	r25, 0x296A	; 0x80296a <Station+0x10>
    2bb0:	f2 cf       	rjmp	.-28     	; 0x2b96 <main+0xabc>
ProcessCommand():
C:\Users\mathiasc\AppData\Local\Temp\arduino_build_312787\sketch/serialcli.cpp:532
                                    Serial.print(command_if_get_onewiretemp());  
                                    Serial.print(F("\n\rOK\n\r"));  
                                    } break;

                                    case cmd_error:{
                                    Serial.print(F("Error:"));
    2bb2:	8f e4       	ldi	r24, 0x4F	; 79
    2bb4:	9c e7       	ldi	r25, 0x7C	; 124
    2bb6:	0e 94 2a 0e 	call	0x1c54	; 0x1c54 <Print::print(char const*) [clone .constprop.12]>
command_if_get_error():
D:\Projects\190409-DIY_SOLDERING_IRON\Soldering-Station/Soldering-Station.ino:448
 Input:       None 
 Output:      None
 Description: returns the current error to the command interface
 *************************************************************************************************************/   
uint8_t command_if_get_error( void ){
  switch(state){
    2bba:	80 91 22 28 	lds	r24, 0x2822	; 0x802822 <state>
    2bbe:	90 91 23 28 	lds	r25, 0x2823	; 0x802823 <state+0x1>
main():
D:\Projects\190409-DIY_SOLDERING_IRON\Soldering-Station/Soldering-Station.ino:455
    case TEMPSENS_FAIL:{
      return 0x80 + ErrNo;
    }break;

    case UNDERVOLTAGE:{
      return 0x40;
    2bc2:	60 e4       	ldi	r22, 0x40	; 64
command_if_get_error():
D:\Projects\190409-DIY_SOLDERING_IRON\Soldering-Station/Soldering-Station.ino:448
 Input:       None 
 Output:      None
 Description: returns the current error to the command interface
 *************************************************************************************************************/   
uint8_t command_if_get_error( void ){
  switch(state){
    2bc4:	82 30       	cpi	r24, 0x02	; 2
    2bc6:	91 05       	cpc	r25, r1
    2bc8:	49 f0       	breq	.+18     	; 0x2bdc <main+0xb02>
    2bca:	83 30       	cpi	r24, 0x03	; 3
    2bcc:	91 05       	cpc	r25, r1
    2bce:	19 f0       	breq	.+6      	; 0x2bd6 <main+0xafc>
main():
D:\Projects\190409-DIY_SOLDERING_IRON\Soldering-Station/Soldering-Station.ino:459
    case UNDERVOLTAGE:{
      return 0x40;
    }break;

    default:{
      return 0;
    2bd0:	60 e0       	ldi	r22, 0x00	; 0
command_if_get_error():
D:\Projects\190409-DIY_SOLDERING_IRON\Soldering-Station/Soldering-Station.ino:448
 Input:       None 
 Output:      None
 Description: returns the current error to the command interface
 *************************************************************************************************************/   
uint8_t command_if_get_error( void ){
  switch(state){
    2bd2:	01 97       	sbiw	r24, 0x01	; 1
    2bd4:	19 f4       	brne	.+6      	; 0x2bdc <main+0xb02>
D:\Projects\190409-DIY_SOLDERING_IRON\Soldering-Station/Soldering-Station.ino:451
    case WAIT:
    case TEMPSENS_FAIL:{
      return 0x80 + ErrNo;
    2bd6:	60 91 8a 28 	lds	r22, 0x288A	; 0x80288a <ErrNo>
    2bda:	60 58       	subi	r22, 0x80	; 128
print():
C:\Users\mathiasc\AppData\Local\Arduino15\packages\MegaCoreX\hardware\megaavr\1.0.4\cores\coreX-corefiles\api/Print.cpp:79
  return write(c);
}

size_t Print::print(unsigned char b, int base)
{
  return print((unsigned long)b, base);
    2bdc:	70 e0       	ldi	r23, 0x00	; 0
    2bde:	90 e0       	ldi	r25, 0x00	; 0
    2be0:	80 e0       	ldi	r24, 0x00	; 0
C:\Users\mathiasc\AppData\Local\Arduino15\packages\MegaCoreX\hardware\megaavr\1.0.4\cores\coreX-corefiles\api/Print.cpp:119
size_t Print::print(unsigned long n, int base)
{
  if (base == 0)
    return write(n);
  else
    return printNumber(n, base);
    2be2:	4a e0       	ldi	r20, 0x0A	; 10
    2be4:	0e 94 ae 0d 	call	0x1b5c	; 0x1b5c <Print::printNumber(unsigned long, unsigned char) [clone .constprop.17]>
ProcessCommand():
C:\Users\mathiasc\AppData\Local\Temp\arduino_build_312787\sketch/serialcli.cpp:534
                                    Serial.print(command_if_get_error());  
                                    Serial.print(F("\n\rOK\n\r")); 
    2be8:	86 ef       	ldi	r24, 0xF6	; 246
    2bea:	9b e7       	ldi	r25, 0x7B	; 123
    2bec:	0e 94 2a 0e 	call	0x1c54	; 0x1c54 <Print::print(char const*) [clone .constprop.12]>
    2bf0:	b9 cf       	rjmp	.-142    	; 0x2b64 <main+0xa8a>
C:\Users\mathiasc\AppData\Local\Temp\arduino_build_312787\sketch/serialcli.cpp:540

                                    case cmd_irontype:{
                                    Serial.print(F("Irontype:"));
                                    switch(command_if_get_irontype() ){
                                        case IRON_WELLER_RT:{
                                            Serial.print(F("Weller RT")); 
    2bf2:	80 e6       	ldi	r24, 0x60	; 96
    2bf4:	9c e7       	ldi	r25, 0x7C	; 124
C:\Users\mathiasc\AppData\Local\Temp\arduino_build_312787\sketch/serialcli.cpp:552
                                        case IRON_JBC_T245A:{
                                            Serial.print(F("JBC T245A"));
                                        }break;

                                        default:{
                                            Serial.print(F("UNKNOWN"));
    2bf6:	0e 94 2a 0e 	call	0x1c54	; 0x1c54 <Print::print(char const*) [clone .constprop.12]>
    2bfa:	89 cf       	rjmp	.-238    	; 0x2b0e <main+0xa34>
C:\Users\mathiasc\AppData\Local\Temp\arduino_build_312787\sketch/serialcli.cpp:548
                                        case IRON_HAKKO_FX8801:{
                                            Serial.print(F("HAKKKO FX8801"));
                                        }break;

                                        case IRON_JBC_T245A:{
                                            Serial.print(F("JBC T245A"));
    2bfc:	88 e7       	ldi	r24, 0x78	; 120
    2bfe:	9c e7       	ldi	r25, 0x7C	; 124
    2c00:	fa cf       	rjmp	.-12     	; 0x2bf6 <main+0xb1c>
C:\Users\mathiasc\AppData\Local\Temp\arduino_build_312787\sketch/serialcli.cpp:552
                                        }break;

                                        default:{
                                            Serial.print(F("UNKNOWN"));
    2c02:	82 e8       	ldi	r24, 0x82	; 130
    2c04:	9c e7       	ldi	r25, 0x7C	; 124
    2c06:	f7 cf       	rjmp	.-18     	; 0x2bf6 <main+0xb1c>
C:\Users\mathiasc\AppData\Local\Temp\arduino_build_312787\sketch/serialcli.cpp:569

                            } break;

                            case cmd_data_clear:{

                                switch ( command.command ){
    2c08:	05 30       	cpi	r16, 0x05	; 5
    2c0a:	11 05       	cpc	r17, r1
    2c0c:	09 f0       	breq	.+2      	; 0x2c10 <main+0xb36>
    2c0e:	3b cf       	rjmp	.-394    	; 0x2a86 <main+0x9ac>
command_if_clear_error():
D:\Projects\190409-DIY_SOLDERING_IRON\Soldering-Station/Soldering-Station.ino:473
 Input:       None 
 Output:      None
 Description: clears the error form a command interface
 *************************************************************************************************************/   
void command_if_clear_error( void ){
  clear_error++;
    2c10:	80 91 9e 28 	lds	r24, 0x289E	; 0x80289e <clear_error>
    2c14:	8f 5f       	subi	r24, 0xFF	; 255
    2c16:	80 93 9e 28 	sts	0x289E, r24	; 0x80289e <clear_error>
ProcessCommand():
C:\Users\mathiasc\AppData\Local\Temp\arduino_build_312787\sketch/serialcli.cpp:573
                                    
                                    case cmd_error:{
                                        command_if_clear_error();
                                        Serial.println("OK");
    2c1a:	8a e8       	ldi	r24, 0x8A	; 138
    2c1c:	9c e7       	ldi	r25, 0x7C	; 124
    2c1e:	2a cf       	rjmp	.-428    	; 0x2a74 <main+0x99a>
loop():
D:\Projects\190409-DIY_SOLDERING_IRON\Soldering-Station/Soldering-Station.ino:121
        switch(state){ 
         /*************************************************************
                               STATE WELCOME_LOGO       
          *************************************************************/
         case WELCOME_LOGO:{
           Station.Frontend.display_welcome_logo();
    2c20:	8a e5       	ldi	r24, 0x5A	; 90
    2c22:	99 e2       	ldi	r25, 0x29	; 41
    2c24:	0e 94 9d 0d 	call	0x1b3a	; 0x1b3a <FE_190409::display_welcome_logo()>
SearchOneWireSensor():
C:\Users\mathiasc\AppData\Local\Temp\arduino_build_312787\sketch/TEMP_190409.cpp:293
}


bool TEMP_190409::SearchOneWireSensor( void ){

    if(false == OneWireSensorFound ){
    2c28:	80 91 74 29 	lds	r24, 0x2974	; 0x802974 <Station+0x1a>
    2c2c:	81 11       	cpse	r24, r1
    2c2e:	10 c0       	rjmp	.+32     	; 0x2c50 <main+0xb76>
search():
C:\Users\mathiasc\Documents\Arduino\libraries\OneWire/OneWire.cpp:439
            }

            // set or clear the bit in the ROM byte rom_byte_number
            // with mask rom_byte_mask
            if (search_direction == 1)
              ROM_NO[rom_byte_number] |= rom_byte_mask;
    2c30:	dd 24       	eor	r13, r13
    2c32:	d3 94       	inc	r13
C:\Users\mathiasc\Documents\Arduino\libraries\OneWire/OneWire.cpp:386
   rom_byte_number = 0;
   rom_byte_mask = 1;
   search_result = false;

   // if the last call was not the last one
   if (!LastDeviceFlag) {
    2c34:	80 91 59 29 	lds	r24, 0x2959	; 0x802959 <ds+0xd>
    2c38:	81 11       	cpse	r24, r1
    2c3a:	04 c0       	rjmp	.+8      	; 0x2c44 <main+0xb6a>
C:\Users\mathiasc\Documents\Arduino\libraries\OneWire/OneWire.cpp:388
      // 1-Wire reset
      if (!reset()) {
    2c3c:	0e 94 94 05 	call	0xb28	; 0xb28 <OneWire::reset() [clone .constprop.38]>
    2c40:	81 11       	cpse	r24, r1
    2c42:	89 c0       	rjmp	.+274    	; 0x2d56 <main+0xc7c>
C:\Users\mathiasc\Documents\Arduino\libraries\OneWire/OneWire.cpp:390
         // reset the search
         LastDiscrepancy = 0;
    2c44:	10 92 57 29 	sts	0x2957, r1	; 0x802957 <ds+0xb>
C:\Users\mathiasc\Documents\Arduino\libraries\OneWire/OneWire.cpp:391
         LastDeviceFlag = false;
    2c48:	10 92 59 29 	sts	0x2959, r1	; 0x802959 <ds+0xd>
C:\Users\mathiasc\Documents\Arduino\libraries\OneWire/OneWire.cpp:392
         LastFamilyDiscrepancy = 0;
    2c4c:	10 92 58 29 	sts	0x2958, r1	; 0x802958 <ds+0xc>
loop():
D:\Projects\190409-DIY_SOLDERING_IRON\Soldering-Station/Soldering-Station.ino:122
               if(true == Station.Temp.SearchOneWireSensor() ){
    2c50:	80 91 74 29 	lds	r24, 0x2974	; 0x802974 <Station+0x1a>
    2c54:	88 23       	and	r24, r24
    2c56:	09 f4       	brne	.+2      	; 0x2c5a <main+0xb80>
    2c58:	d0 c0       	rjmp	.+416    	; 0x2dfa <main+0xd20>
D:\Projects\190409-DIY_SOLDERING_IRON\Soldering-Station/Soldering-Station.ino:123
                Serial.println("Read Onewire Sensor");
    2c5a:	82 e0       	ldi	r24, 0x02	; 2
    2c5c:	9d e7       	ldi	r25, 0x7D	; 125
    2c5e:	0e 94 1c 0e 	call	0x1c38	; 0x1c38 <Print::println(char const*) [clone .constprop.19]>
GetWireTempKelvin():
C:\Users\mathiasc\AppData\Local\Temp\arduino_build_312787\sketch/TEMP_190409.cpp:343
        
        byte present = 0;
        byte data[12];
        float celsius, fahrenheit;

        ds.reset();
    2c62:	0e 94 94 05 	call	0xb28	; 0xb28 <OneWire::reset() [clone .constprop.38]>
C:\Users\mathiasc\AppData\Local\Temp\arduino_build_312787\sketch/TEMP_190409.cpp:344
        ds.select(addr);
    2c66:	8b e6       	ldi	r24, 0x6B	; 107
    2c68:	99 e2       	ldi	r25, 0x29	; 41
    2c6a:	0e 94 7c 05 	call	0xaf8	; 0xaf8 <OneWire::select(unsigned char const*) [clone .constprop.39]>
C:\Users\mathiasc\AppData\Local\Temp\arduino_build_312787\sketch/TEMP_190409.cpp:345
        ds.write(0x44, 1);        // start conversion, with parasite power on at the end
    2c6e:	61 e0       	ldi	r22, 0x01	; 1
    2c70:	84 e4       	ldi	r24, 0x44	; 68
    2c72:	0e 94 48 05 	call	0xa90	; 0xa90 <OneWire::write(unsigned char, unsigned char) [clone .constprop.40]>
C:\Users\mathiasc\AppData\Local\Temp\arduino_build_312787\sketch/TEMP_190409.cpp:346
        ds.reset_search();
    2c76:	0e 94 0e 01 	call	0x21c	; 0x21c <OneWire::reset_search() [clone .constprop.43]>
C:\Users\mathiasc\AppData\Local\Temp\arduino_build_312787\sketch/TEMP_190409.cpp:348

        delay(1000);
    2c7a:	68 ee       	ldi	r22, 0xE8	; 232
    2c7c:	73 e0       	ldi	r23, 0x03	; 3
    2c7e:	80 e0       	ldi	r24, 0x00	; 0
    2c80:	90 e0       	ldi	r25, 0x00	; 0
    2c82:	0e 94 5a 06 	call	0xcb4	; 0xcb4 <delay>
C:\Users\mathiasc\AppData\Local\Temp\arduino_build_312787\sketch/TEMP_190409.cpp:351


        present = ds.reset();
    2c86:	0e 94 94 05 	call	0xb28	; 0xb28 <OneWire::reset() [clone .constprop.38]>
C:\Users\mathiasc\AppData\Local\Temp\arduino_build_312787\sketch/TEMP_190409.cpp:352
        ds.select(addr);    
    2c8a:	8b e6       	ldi	r24, 0x6B	; 107
    2c8c:	99 e2       	ldi	r25, 0x29	; 41
    2c8e:	0e 94 7c 05 	call	0xaf8	; 0xaf8 <OneWire::select(unsigned char const*) [clone .constprop.39]>
C:\Users\mathiasc\AppData\Local\Temp\arduino_build_312787\sketch/TEMP_190409.cpp:353
        ds.write(0xBE);         // Read Scratchpad
    2c92:	60 e0       	ldi	r22, 0x00	; 0
    2c94:	8e eb       	ldi	r24, 0xBE	; 190
    2c96:	0e 94 48 05 	call	0xa90	; 0xa90 <OneWire::write(unsigned char, unsigned char) [clone .constprop.40]>
    2c9a:	8e 01       	movw	r16, r28
    2c9c:	0f 5f       	subi	r16, 0xFF	; 255
    2c9e:	1f 4f       	sbci	r17, 0xFF	; 255
search():
C:\Users\mathiasc\Documents\Arduino\libraries\OneWire/OneWire.cpp:474
         search_result = true;
      }
   }

   // if no device found then reset counters so next 'search' will be like a first
   if (!search_result || !ROM_NO[0]) {
    2ca0:	48 e0       	ldi	r20, 0x08	; 8
    2ca2:	e4 2e       	mov	r14, r20
    2ca4:	f1 2c       	mov	r15, r1
main():
C:\Users\mathiasc\Documents\Arduino\libraries\OneWire/OneWire.cpp:281
//
// Read a byte
//
uint8_t OneWire::read() {
    uint8_t bitMask;
    uint8_t r = 0;
    2ca6:	d1 2c       	mov	r13, r1
C:\Users\mathiasc\Documents\Arduino\libraries\OneWire/OneWire.cpp:283

    for (bitMask = 0x01; bitMask; bitMask <<= 1) {
    2ca8:	cc 24       	eor	r12, r12
    2caa:	c3 94       	inc	r12
read():
C:\Users\mathiasc\Documents\Arduino\libraries\OneWire/OneWire.cpp:284
	if ( OneWire::read_bit()) r |= bitMask;
    2cac:	0e 94 e6 05 	call	0xbcc	; 0xbcc <OneWire::read_bit() [clone .constprop.37]>
    2cb0:	81 11       	cpse	r24, r1
    2cb2:	dc 28       	or	r13, r12
C:\Users\mathiasc\Documents\Arduino\libraries\OneWire/OneWire.cpp:283
//
uint8_t OneWire::read() {
    uint8_t bitMask;
    uint8_t r = 0;

    for (bitMask = 0x01; bitMask; bitMask <<= 1) {
    2cb4:	cc 0c       	add	r12, r12
    2cb6:	21 e0       	ldi	r18, 0x01	; 1
    2cb8:	e2 1a       	sub	r14, r18
    2cba:	f1 08       	sbc	r15, r1
    2cbc:	b9 f7       	brne	.-18     	; 0x2cac <main+0xbd2>
GetWireTempKelvin():
C:\Users\mathiasc\AppData\Local\Temp\arduino_build_312787\sketch/TEMP_190409.cpp:356
      
        for ( i = 0; i < 9; i++) {           // we need 9 bytes
          data[i] = ds.read();
    2cbe:	f8 01       	movw	r30, r16
    2cc0:	d1 92       	st	Z+, r13
    2cc2:	8f 01       	movw	r16, r30
C:\Users\mathiasc\AppData\Local\Temp\arduino_build_312787\sketch/TEMP_190409.cpp:355

        present = ds.reset();
        ds.select(addr);    
        ds.write(0xBE);         // Read Scratchpad
      
        for ( i = 0; i < 9; i++) {           // we need 9 bytes
    2cc4:	2e 89       	ldd	r18, Y+22	; 0x16
    2cc6:	3f 89       	ldd	r19, Y+23	; 0x17
    2cc8:	2e 17       	cp	r18, r30
    2cca:	3f 07       	cpc	r19, r31
    2ccc:	49 f7       	brne	.-46     	; 0x2ca0 <main+0xbc6>
C:\Users\mathiasc\AppData\Local\Temp\arduino_build_312787\sketch/TEMP_190409.cpp:361
          data[i] = ds.read();
         
      
        }
       
       if(data[8] != OneWire::crc8(data, 8) ){
    2cce:	19 85       	ldd	r17, Y+9	; 0x09
    2cd0:	68 e0       	ldi	r22, 0x08	; 8
    2cd2:	ce 01       	movw	r24, r28
    2cd4:	01 96       	adiw	r24, 0x01	; 1
    2cd6:	0e 94 8a 06 	call	0xd14	; 0xd14 <OneWire::crc8(unsigned char const*, unsigned char)>
    2cda:	18 17       	cp	r17, r24
    2cdc:	21 f0       	breq	.+8      	; 0x2ce6 <main+0xc0c>
C:\Users\mathiasc\AppData\Local\Temp\arduino_build_312787\sketch/TEMP_190409.cpp:362
        Serial.println("OneWire CRC Error"); 
    2cde:	86 e1       	ldi	r24, 0x16	; 22
    2ce0:	9d e7       	ldi	r25, 0x7D	; 125
    2ce2:	0e 94 1c 0e 	call	0x1c38	; 0x1c38 <Print::println(char const*) [clone .constprop.19]>
C:\Users\mathiasc\AppData\Local\Temp\arduino_build_312787\sketch/TEMP_190409.cpp:369
       
        // Convert the data to actual temperature
        // because the result is a 16 bit signed integer, it should
        // be stored to an "int16_t" type, which is always 16 bits
        // even when compiled on a 32 bit processor.
        int16_t raw = (data[1] << 8) | data[0];
    2ce6:	69 81       	ldd	r22, Y+1	; 0x01
    2ce8:	7a 81       	ldd	r23, Y+2	; 0x02
C:\Users\mathiasc\AppData\Local\Temp\arduino_build_312787\sketch/TEMP_190409.cpp:370
        if (type_s) {
    2cea:	80 91 73 29 	lds	r24, 0x2973	; 0x802973 <Station+0x19>
    2cee:	88 23       	and	r24, r24
    2cf0:	09 f4       	brne	.+2      	; 0x2cf4 <main+0xc1a>
    2cf2:	df c0       	rjmp	.+446    	; 0x2eb2 <main+0xdd8>
C:\Users\mathiasc\AppData\Local\Temp\arduino_build_312787\sketch/TEMP_190409.cpp:371
          raw = raw << 3; // 9 bit resolution default
    2cf4:	33 e0       	ldi	r19, 0x03	; 3
    2cf6:	66 0f       	add	r22, r22
    2cf8:	77 1f       	adc	r23, r23
    2cfa:	3a 95       	dec	r19
    2cfc:	e1 f7       	brne	.-8      	; 0x2cf6 <main+0xc1c>
C:\Users\mathiasc\AppData\Local\Temp\arduino_build_312787\sketch/TEMP_190409.cpp:372
          if (data[7] == 0x10) {
    2cfe:	88 85       	ldd	r24, Y+8	; 0x08
    2d00:	80 31       	cpi	r24, 0x10	; 16
    2d02:	41 f4       	brne	.+16     	; 0x2d14 <main+0xc3a>
C:\Users\mathiasc\AppData\Local\Temp\arduino_build_312787\sketch/TEMP_190409.cpp:374
            // "count remain" gives full 12 bit resolution
            raw = (raw & 0xFFF0) + 12 - data[6];
    2d04:	2f 81       	ldd	r18, Y+7	; 0x07
    2d06:	8c e0       	ldi	r24, 0x0C	; 12
    2d08:	90 e0       	ldi	r25, 0x00	; 0
    2d0a:	82 1b       	sub	r24, r18
    2d0c:	91 09       	sbc	r25, r1
    2d0e:	60 7f       	andi	r22, 0xF0	; 240
    2d10:	68 0f       	add	r22, r24
    2d12:	79 1f       	adc	r23, r25
C:\Users\mathiasc\AppData\Local\Temp\arduino_build_312787\sketch/TEMP_190409.cpp:384
          if (cfg == 0x00) raw = raw & ~7;  // 9 bit resolution, 93.75 ms
          else if (cfg == 0x20) raw = raw & ~3; // 10 bit res, 187.5 ms
          else if (cfg == 0x40) raw = raw & ~1; // 11 bit res, 375 ms
          //// default is 12 bit resolution, 750 ms conversion time
        }
        celsius = (float)raw / 16.0;
    2d14:	07 2e       	mov	r0, r23
    2d16:	00 0c       	add	r0, r0
    2d18:	88 0b       	sbc	r24, r24
    2d1a:	99 0b       	sbc	r25, r25
    2d1c:	0e 94 bc 19 	call	0x3378	; 0x3378 <__floatsisf>
    2d20:	20 e0       	ldi	r18, 0x00	; 0
    2d22:	30 e0       	ldi	r19, 0x00	; 0
    2d24:	40 e8       	ldi	r20, 0x80	; 128
    2d26:	5d e3       	ldi	r21, 0x3D	; 61
    2d28:	0e 94 20 1a 	call	0x3440	; 0x3440 <__mulsf3>
C:\Users\mathiasc\AppData\Local\Temp\arduino_build_312787\sketch/TEMP_190409.cpp:386
        fahrenheit = celsius * 1.8 + 32.0;
        LastTempReadKelvin=(int16_t)celsius+273; 
    2d2c:	0e 94 84 19 	call	0x3308	; 0x3308 <__fixsfsi>
    2d30:	6f 5e       	subi	r22, 0xEF	; 239
    2d32:	7e 4f       	sbci	r23, 0xFE	; 254
    2d34:	60 93 69 29 	sts	0x2969, r22	; 0x802969 <Station+0xf>
    2d38:	70 93 6a 29 	sts	0x296A, r23	; 0x80296a <Station+0x10>
set_delay():
D:\Projects\190409-DIY_SOLDERING_IRON\Soldering-Station/Soldering-Station.ino:485
 Input:       None 
 Output:      None
 Description: Set the delaytimer to a given value 
 *************************************************************************************************************/    
void set_delay( uint16_t ms){
  while(delay_ms!=ms){
    2d3c:	80 91 a1 28 	lds	r24, 0x28A1	; 0x8028a1 <delay_ms>
    2d40:	90 91 a2 28 	lds	r25, 0x28A2	; 0x8028a2 <delay_ms+0x1>
    2d44:	80 3d       	cpi	r24, 0xD0	; 208
    2d46:	97 40       	sbci	r25, 0x07	; 7
    2d48:	09 f4       	brne	.+2      	; 0x2d4c <main+0xc72>
    2d4a:	c1 c0       	rjmp	.+386    	; 0x2ece <main+0xdf4>
D:\Projects\190409-DIY_SOLDERING_IRON\Soldering-Station/Soldering-Station.ino:486
    delay_ms=ms;
    2d4c:	40 92 a1 28 	sts	0x28A1, r4	; 0x8028a1 <delay_ms>
    2d50:	50 92 a2 28 	sts	0x28A2, r5	; 0x8028a2 <delay_ms+0x1>
    2d54:	f3 cf       	rjmp	.-26     	; 0x2d3c <main+0xc62>
search():
C:\Users\mathiasc\Documents\Arduino\libraries\OneWire/OneWire.cpp:398
         return false;
      }

      // issue the search command
      if (search_mode == true) {
        write(0xF0);   // NORMAL SEARCH
    2d56:	60 e0       	ldi	r22, 0x00	; 0
    2d58:	80 ef       	ldi	r24, 0xF0	; 240
    2d5a:	0e 94 48 05 	call	0xa90	; 0xa90 <OneWire::write(unsigned char, unsigned char) [clone .constprop.40]>
    2d5e:	01 e0       	ldi	r16, 0x01	; 1
    2d60:	e1 2c       	mov	r14, r1
    2d62:	c1 2c       	mov	r12, r1
    2d64:	11 e0       	ldi	r17, 0x01	; 1
C:\Users\mathiasc\Documents\Arduino\libraries\OneWire/OneWire.cpp:407

      // loop to do the search
      do
      {
         // read a bit and its complement
         id_bit = read_bit();
    2d66:	0e 94 e6 05 	call	0xbcc	; 0xbcc <OneWire::read_bit() [clone .constprop.37]>
    2d6a:	f8 2e       	mov	r15, r24
C:\Users\mathiasc\Documents\Arduino\libraries\OneWire/OneWire.cpp:408
         cmp_id_bit = read_bit();
    2d6c:	0e 94 e6 05 	call	0xbcc	; 0xbcc <OneWire::read_bit() [clone .constprop.37]>
C:\Users\mathiasc\Documents\Arduino\libraries\OneWire/OneWire.cpp:411

         // check for no devices on 1-wire
         if ((id_bit == 1) && (cmp_id_bit == 1)) {
    2d70:	91 e0       	ldi	r25, 0x01	; 1
    2d72:	f9 12       	cpse	r15, r25
    2d74:	47 c0       	rjmp	.+142    	; 0x2e04 <main+0xd2a>
    2d76:	81 30       	cpi	r24, 0x01	; 1
    2d78:	09 f0       	breq	.+2      	; 0x2d7c <main+0xca2>
    2d7a:	63 c0       	rjmp	.+198    	; 0x2e42 <main+0xd68>
C:\Users\mathiasc\Documents\Arduino\libraries\OneWire/OneWire.cpp:461
         }
      }
      while(rom_byte_number < 8);  // loop until through all ROM bytes 0-7

      // if the search was successful then
      if (!(id_bit_number < 65)) {
    2d7c:	11 34       	cpi	r17, 0x41	; 65
    2d7e:	08 f4       	brcc	.+2      	; 0x2d82 <main+0xca8>
    2d80:	61 cf       	rjmp	.-318    	; 0x2c44 <main+0xb6a>
C:\Users\mathiasc\Documents\Arduino\libraries\OneWire/OneWire.cpp:463
         // search successful so set LastDiscrepancy,LastDeviceFlag,search_result
         LastDiscrepancy = last_zero;
    2d82:	c0 92 57 29 	sts	0x2957, r12	; 0x802957 <ds+0xb>
C:\Users\mathiasc\Documents\Arduino\libraries\OneWire/OneWire.cpp:466

         // check for last device
         if (LastDiscrepancy == 0) {
    2d86:	c1 10       	cpse	r12, r1
    2d88:	02 c0       	rjmp	.+4      	; 0x2d8e <main+0xcb4>
C:\Users\mathiasc\Documents\Arduino\libraries\OneWire/OneWire.cpp:467
            LastDeviceFlag = true;
    2d8a:	d0 92 59 29 	sts	0x2959, r13	; 0x802959 <ds+0xd>
C:\Users\mathiasc\Documents\Arduino\libraries\OneWire/OneWire.cpp:474
         search_result = true;
      }
   }

   // if no device found then reset counters so next 'search' will be like a first
   if (!search_result || !ROM_NO[0]) {
    2d8e:	80 91 4f 29 	lds	r24, 0x294F	; 0x80294f <ds+0x3>
    2d92:	88 23       	and	r24, r24
    2d94:	09 f4       	brne	.+2      	; 0x2d98 <main+0xcbe>
    2d96:	56 cf       	rjmp	.-340    	; 0x2c44 <main+0xb6a>
    2d98:	ef e4       	ldi	r30, 0x4F	; 79
    2d9a:	f9 e2       	ldi	r31, 0x29	; 41
    2d9c:	0b e6       	ldi	r16, 0x6B	; 107
    2d9e:	19 e2       	ldi	r17, 0x29	; 41
    2da0:	d8 01       	movw	r26, r16
C:\Users\mathiasc\Documents\Arduino\libraries\OneWire/OneWire.cpp:480
      LastDiscrepancy = 0;
      LastDeviceFlag = false;
      LastFamilyDiscrepancy = 0;
      search_result = false;
   } else {
      for (int i = 0; i < 8; i++) newAddr[i] = ROM_NO[i];
    2da2:	81 91       	ld	r24, Z+
    2da4:	8d 93       	st	X+, r24
    2da6:	29 e2       	ldi	r18, 0x29	; 41
    2da8:	e7 35       	cpi	r30, 0x57	; 87
    2daa:	f2 07       	cpc	r31, r18
    2dac:	d1 f7       	brne	.-12     	; 0x2da2 <main+0xcc8>
SearchOneWireSensor():
C:\Users\mathiasc\AppData\Local\Temp\arduino_build_312787\sketch/TEMP_190409.cpp:296
bool TEMP_190409::SearchOneWireSensor( void ){

    if(false == OneWireSensorFound ){
          while( ds.search(addr)) {
        
              Serial.print("ROM =");
    2dae:	81 e9       	ldi	r24, 0x91	; 145
    2db0:	9c e7       	ldi	r25, 0x7C	; 124
    2db2:	0e 94 2a 0e 	call	0x1c54	; 0x1c54 <Print::print(char const*) [clone .constprop.12]>
write():
C:\Users\mathiasc\AppData\Local\Arduino15\packages\MegaCoreX\hardware\megaavr\1.0.4\cores\coreX-corefiles/UART.h:172
    virtual void flush(void);
    virtual size_t write(uint8_t);
    inline size_t write(unsigned long n) { return write((uint8_t)n); }
    inline size_t write(long n) { return write((uint8_t)n); }
    inline size_t write(unsigned int n) { return write((uint8_t)n); }
    inline size_t write(int n) { return write((uint8_t)n); }
    2db6:	60 e2       	ldi	r22, 0x20	; 32
    2db8:	87 ea       	ldi	r24, 0xA7	; 167
    2dba:	98 e2       	ldi	r25, 0x28	; 40
    2dbc:	0e 94 37 02 	call	0x46e	; 0x46e <UartClass::write(unsigned char)>
SearchOneWireSensor():
C:\Users\mathiasc\AppData\Local\Temp\arduino_build_312787\sketch/TEMP_190409.cpp:299
              for( uint8_t i = 0; i < 8; i++) {
                Serial.write(' ');
                Serial.print(addr[i], HEX);
    2dc0:	f8 01       	movw	r30, r16
    2dc2:	61 91       	ld	r22, Z+
    2dc4:	8f 01       	movw	r16, r30
print():
C:\Users\mathiasc\AppData\Local\Arduino15\packages\MegaCoreX\hardware\megaavr\1.0.4\cores\coreX-corefiles\api/Print.cpp:79
  return write(c);
}

size_t Print::print(unsigned char b, int base)
{
  return print((unsigned long)b, base);
    2dc6:	70 e0       	ldi	r23, 0x00	; 0
    2dc8:	90 e0       	ldi	r25, 0x00	; 0
    2dca:	80 e0       	ldi	r24, 0x00	; 0
C:\Users\mathiasc\AppData\Local\Arduino15\packages\MegaCoreX\hardware\megaavr\1.0.4\cores\coreX-corefiles\api/Print.cpp:119
size_t Print::print(unsigned long n, int base)
{
  if (base == 0)
    return write(n);
  else
    return printNumber(n, base);
    2dcc:	40 e1       	ldi	r20, 0x10	; 16
    2dce:	0e 94 ae 0d 	call	0x1b5c	; 0x1b5c <Print::printNumber(unsigned long, unsigned char) [clone .constprop.17]>
SearchOneWireSensor():
C:\Users\mathiasc\AppData\Local\Temp\arduino_build_312787\sketch/TEMP_190409.cpp:297

    if(false == OneWireSensorFound ){
          while( ds.search(addr)) {
        
              Serial.print("ROM =");
              for( uint8_t i = 0; i < 8; i++) {
    2dd2:	f9 e2       	ldi	r31, 0x29	; 41
    2dd4:	03 37       	cpi	r16, 0x73	; 115
    2dd6:	1f 07       	cpc	r17, r31
    2dd8:	71 f7       	brne	.-36     	; 0x2db6 <main+0xcdc>
C:\Users\mathiasc\AppData\Local\Temp\arduino_build_312787\sketch/TEMP_190409.cpp:302
                Serial.write(' ');
                Serial.print(addr[i], HEX);
              }
            
              if (OneWire::crc8(addr, 7) != addr[7]) {
    2dda:	67 e0       	ldi	r22, 0x07	; 7
    2ddc:	8b e6       	ldi	r24, 0x6B	; 107
    2dde:	99 e2       	ldi	r25, 0x29	; 41
    2de0:	0e 94 8a 06 	call	0xd14	; 0xd14 <OneWire::crc8(unsigned char const*, unsigned char)>
    2de4:	90 91 72 29 	lds	r25, 0x2972	; 0x802972 <Station+0x18>
    2de8:	89 17       	cp	r24, r25
    2dea:	09 f4       	brne	.+2      	; 0x2dee <main+0xd14>
    2dec:	40 c0       	rjmp	.+128    	; 0x2e6e <main+0xd94>
C:\Users\mathiasc\AppData\Local\Temp\arduino_build_312787\sketch/TEMP_190409.cpp:303
                  Serial.println("CRC is not valid!");
    2dee:	87 e9       	ldi	r24, 0x97	; 151
    2df0:	9c e7       	ldi	r25, 0x7C	; 124
C:\Users\mathiasc\AppData\Local\Temp\arduino_build_312787\sketch/TEMP_190409.cpp:324
                case 0x22:
                  Serial.println("  Chip = DS1822");
                  type_s = 0;
                  break;
                default:
                  Serial.println("Device is not a DS18x20 family device.");
    2df2:	0e 94 1c 0e 	call	0x1c38	; 0x1c38 <Print::println(char const*) [clone .constprop.19]>
C:\Users\mathiasc\AppData\Local\Temp\arduino_build_312787\sketch/TEMP_190409.cpp:325
                  OneWireSensorFound=false;
    2df6:	10 92 74 29 	sts	0x2974, r1	; 0x802974 <Station+0x1a>
loop():
D:\Projects\190409-DIY_SOLDERING_IRON\Soldering-Station/Soldering-Station.ino:126
           Station.Frontend.display_welcome_logo();
               if(true == Station.Temp.SearchOneWireSensor() ){
                Serial.println("Read Onewire Sensor");
                uint16_t Temp = Station.Temp.GetWireTempKelvin();
               }else{
                Serial.println("No Sensor found");
    2dfa:	88 e2       	ldi	r24, 0x28	; 40
    2dfc:	9d e7       	ldi	r25, 0x7D	; 125
    2dfe:	0e 94 1c 0e 	call	0x1c38	; 0x1c38 <Print::println(char const*) [clone .constprop.19]>
    2e02:	9c cf       	rjmp	.-200    	; 0x2d3c <main+0xc62>
    2e04:	ee 2d       	mov	r30, r14
    2e06:	f0 e0       	ldi	r31, 0x00	; 0
search():
C:\Users\mathiasc\Documents\Arduino\libraries\OneWire/OneWire.cpp:415
         // check for no devices on 1-wire
         if ((id_bit == 1) && (cmp_id_bit == 1)) {
            break;
         } else {
            // all devices coupled have 0 or 1
            if (id_bit != cmp_id_bit) {
    2e08:	f8 12       	cpse	r15, r24
    2e0a:	11 c0       	rjmp	.+34     	; 0x2e2e <main+0xd54>
C:\Users\mathiasc\Documents\Arduino\libraries\OneWire/OneWire.cpp:420
               search_direction = id_bit;  // bit write value for search
            } else {
               // if this discrepancy if before the Last Discrepancy
               // on a previous next then pick the same as last time
               if (id_bit_number < LastDiscrepancy) {
    2e0c:	80 91 57 29 	lds	r24, 0x2957	; 0x802957 <ds+0xb>
    2e10:	18 17       	cp	r17, r24
    2e12:	a8 f4       	brcc	.+42     	; 0x2e3e <main+0xd64>
C:\Users\mathiasc\Documents\Arduino\libraries\OneWire/OneWire.cpp:421
                  search_direction = ((ROM_NO[rom_byte_number] & rom_byte_mask) > 0);
    2e14:	df 01       	movw	r26, r30
    2e16:	a4 5b       	subi	r26, 0xB4	; 180
    2e18:	b6 4d       	sbci	r27, 0xD6	; 214
    2e1a:	13 96       	adiw	r26, 0x03	; 3
    2e1c:	8c 91       	ld	r24, X
    2e1e:	80 23       	and	r24, r16
    2e20:	81 f4       	brne	.+32     	; 0x2e42 <main+0xd68>
C:\Users\mathiasc\Documents\Arduino\libraries\OneWire/OneWire.cpp:424
               } else {
                  // if equal to last pick 1, if not then pick 0
                  search_direction = (id_bit_number == LastDiscrepancy);
    2e22:	f1 2c       	mov	r15, r1
C:\Users\mathiasc\Documents\Arduino\libraries\OneWire/OneWire.cpp:431
               // if 0 was picked then record its position in LastZero
               if (search_direction == 0) {
                  last_zero = id_bit_number;

                  // check for Last discrepancy in family
                  if (last_zero < 9)
    2e24:	19 30       	cpi	r17, 0x09	; 9
    2e26:	10 f4       	brcc	.+4      	; 0x2e2c <main+0xd52>
C:\Users\mathiasc\Documents\Arduino\libraries\OneWire/OneWire.cpp:432
                     LastFamilyDiscrepancy = last_zero;
    2e28:	10 93 58 29 	sts	0x2958, r17	; 0x802958 <ds+0xc>
C:\Users\mathiasc\Documents\Arduino\libraries\OneWire/OneWire.cpp:431
               // if 0 was picked then record its position in LastZero
               if (search_direction == 0) {
                  last_zero = id_bit_number;

                  // check for Last discrepancy in family
                  if (last_zero < 9)
    2e2c:	c1 2e       	mov	r12, r17
C:\Users\mathiasc\Documents\Arduino\libraries\OneWire/OneWire.cpp:441
            // set or clear the bit in the ROM byte rom_byte_number
            // with mask rom_byte_mask
            if (search_direction == 1)
              ROM_NO[rom_byte_number] |= rom_byte_mask;
            else
              ROM_NO[rom_byte_number] &= ~rom_byte_mask;
    2e2e:	e4 5b       	subi	r30, 0xB4	; 180
    2e30:	f6 4d       	sbci	r31, 0xD6	; 214
    2e32:	83 81       	ldd	r24, Z+3	; 0x03
    2e34:	90 2f       	mov	r25, r16
    2e36:	90 95       	com	r25
    2e38:	89 23       	and	r24, r25
    2e3a:	83 83       	std	Z+3, r24	; 0x03
    2e3c:	0b c0       	rjmp	.+22     	; 0x2e54 <main+0xd7a>
C:\Users\mathiasc\Documents\Arduino\libraries\OneWire/OneWire.cpp:424
               // on a previous next then pick the same as last time
               if (id_bit_number < LastDiscrepancy) {
                  search_direction = ((ROM_NO[rom_byte_number] & rom_byte_mask) > 0);
               } else {
                  // if equal to last pick 1, if not then pick 0
                  search_direction = (id_bit_number == LastDiscrepancy);
    2e3e:	81 13       	cpse	r24, r17
    2e40:	f0 cf       	rjmp	.-32     	; 0x2e22 <main+0xd48>
C:\Users\mathiasc\Documents\Arduino\libraries\OneWire/OneWire.cpp:439
            }

            // set or clear the bit in the ROM byte rom_byte_number
            // with mask rom_byte_mask
            if (search_direction == 1)
              ROM_NO[rom_byte_number] |= rom_byte_mask;
    2e42:	ee 2d       	mov	r30, r14
    2e44:	f0 e0       	ldi	r31, 0x00	; 0
    2e46:	e4 5b       	subi	r30, 0xB4	; 180
    2e48:	f6 4d       	sbci	r31, 0xD6	; 214
    2e4a:	83 81       	ldd	r24, Z+3	; 0x03
    2e4c:	80 2b       	or	r24, r16
    2e4e:	83 83       	std	Z+3, r24	; 0x03
    2e50:	ff 24       	eor	r15, r15
    2e52:	f3 94       	inc	r15
C:\Users\mathiasc\Documents\Arduino\libraries\OneWire/OneWire.cpp:444
            else
              ROM_NO[rom_byte_number] &= ~rom_byte_mask;

            // serial number search direction write bit
            write_bit(search_direction);
    2e54:	8f 2d       	mov	r24, r15
    2e56:	0e 94 0b 05 	call	0xa16	; 0xa16 <OneWire::write_bit(unsigned char) [clone .constprop.41]>
C:\Users\mathiasc\Documents\Arduino\libraries\OneWire/OneWire.cpp:448

            // increment the byte counter id_bit_number
            // and shift the mask rom_byte_mask
            id_bit_number++;
    2e5a:	1f 5f       	subi	r17, 0xFF	; 255
C:\Users\mathiasc\Documents\Arduino\libraries\OneWire/OneWire.cpp:449
            rom_byte_mask <<= 1;
    2e5c:	00 0f       	add	r16, r16
C:\Users\mathiasc\Documents\Arduino\libraries\OneWire/OneWire.cpp:452

            // if the mask is 0 then go to new SerialNum byte rom_byte_number and reset mask
            if (rom_byte_mask == 0) {
    2e5e:	11 f4       	brne	.+4      	; 0x2e64 <main+0xd8a>
C:\Users\mathiasc\Documents\Arduino\libraries\OneWire/OneWire.cpp:453
                rom_byte_number++;
    2e60:	e3 94       	inc	r14
main():
C:\Users\mathiasc\Documents\Arduino\libraries\OneWire/OneWire.cpp:454
                rom_byte_mask = 1;
    2e62:	01 e0       	ldi	r16, 0x01	; 1
search():
C:\Users\mathiasc\Documents\Arduino\libraries\OneWire/OneWire.cpp:458
            }
         }
      }
      while(rom_byte_number < 8);  // loop until through all ROM bytes 0-7
    2e64:	e7 e0       	ldi	r30, 0x07	; 7
    2e66:	ee 15       	cp	r30, r14
    2e68:	08 f0       	brcs	.+2      	; 0x2e6c <main+0xd92>
    2e6a:	7d cf       	rjmp	.-262    	; 0x2d66 <main+0xc8c>
    2e6c:	87 cf       	rjmp	.-242    	; 0x2d7c <main+0xca2>
write():
    2e6e:	86 eb       	ldi	r24, 0xB6	; 182
    2e70:	98 e7       	ldi	r25, 0x78	; 120
    2e72:	0e 94 a1 0d 	call	0x1b42	; 0x1b42 <Print::write(char const*) [clone .part.2] [clone .constprop.22]>
SearchOneWireSensor():
C:\Users\mathiasc\AppData\Local\Temp\arduino_build_312787\sketch/TEMP_190409.cpp:310
                  return false;
              }
              Serial.println();
         
              // the first ROM byte indicates which chip
              switch (addr[0]) {
    2e76:	80 91 6b 29 	lds	r24, 0x296B	; 0x80296b <Station+0x11>
    2e7a:	82 32       	cpi	r24, 0x22	; 34
    2e7c:	a1 f0       	breq	.+40     	; 0x2ea6 <main+0xdcc>
    2e7e:	88 32       	cpi	r24, 0x28	; 40
    2e80:	59 f0       	breq	.+22     	; 0x2e98 <main+0xdbe>
    2e82:	80 31       	cpi	r24, 0x10	; 16
    2e84:	99 f4       	brne	.+38     	; 0x2eac <main+0xdd2>
C:\Users\mathiasc\AppData\Local\Temp\arduino_build_312787\sketch/TEMP_190409.cpp:312
                case 0x10:
                  Serial.println("  Chip = DS18S20");  // or old DS1820
    2e86:	89 ea       	ldi	r24, 0xA9	; 169
    2e88:	9c e7       	ldi	r25, 0x7C	; 124
    2e8a:	0e 94 1c 0e 	call	0x1c38	; 0x1c38 <Print::println(char const*) [clone .constprop.19]>
C:\Users\mathiasc\AppData\Local\Temp\arduino_build_312787\sketch/TEMP_190409.cpp:313
                  type_s = 1;
    2e8e:	d0 92 73 29 	sts	0x2973, r13	; 0x802973 <Station+0x19>
C:\Users\mathiasc\AppData\Local\Temp\arduino_build_312787\sketch/TEMP_190409.cpp:329
                  Serial.println("Device is not a DS18x20 family device.");
                  OneWireSensorFound=false;
                  return false;
                  
              } 
              OneWireSensorFound=true;
    2e92:	d0 92 74 29 	sts	0x2974, r13	; 0x802974 <Station+0x1a>
    2e96:	ce ce       	rjmp	.-612    	; 0x2c34 <main+0xb5a>
C:\Users\mathiasc\AppData\Local\Temp\arduino_build_312787\sketch/TEMP_190409.cpp:316
                case 0x10:
                  Serial.println("  Chip = DS18S20");  // or old DS1820
                  type_s = 1;
                  break;
                case 0x28:
                  Serial.println("  Chip = DS18B20");
    2e98:	8a eb       	ldi	r24, 0xBA	; 186
    2e9a:	9c e7       	ldi	r25, 0x7C	; 124
C:\Users\mathiasc\AppData\Local\Temp\arduino_build_312787\sketch/TEMP_190409.cpp:320
                  type_s = 0;
                  break;
                case 0x22:
                  Serial.println("  Chip = DS1822");
    2e9c:	0e 94 1c 0e 	call	0x1c38	; 0x1c38 <Print::println(char const*) [clone .constprop.19]>
C:\Users\mathiasc\AppData\Local\Temp\arduino_build_312787\sketch/TEMP_190409.cpp:321
                  type_s = 0;
    2ea0:	10 92 73 29 	sts	0x2973, r1	; 0x802973 <Station+0x19>
    2ea4:	f6 cf       	rjmp	.-20     	; 0x2e92 <main+0xdb8>
C:\Users\mathiasc\AppData\Local\Temp\arduino_build_312787\sketch/TEMP_190409.cpp:320
                case 0x28:
                  Serial.println("  Chip = DS18B20");
                  type_s = 0;
                  break;
                case 0x22:
                  Serial.println("  Chip = DS1822");
    2ea6:	8b ec       	ldi	r24, 0xCB	; 203
    2ea8:	9c e7       	ldi	r25, 0x7C	; 124
    2eaa:	f8 cf       	rjmp	.-16     	; 0x2e9c <main+0xdc2>
C:\Users\mathiasc\AppData\Local\Temp\arduino_build_312787\sketch/TEMP_190409.cpp:324
                  type_s = 0;
                  break;
                default:
                  Serial.println("Device is not a DS18x20 family device.");
    2eac:	8b ed       	ldi	r24, 0xDB	; 219
    2eae:	9c e7       	ldi	r25, 0x7C	; 124
    2eb0:	a0 cf       	rjmp	.-192    	; 0x2df2 <main+0xd18>
GetWireTempKelvin():
C:\Users\mathiasc\AppData\Local\Temp\arduino_build_312787\sketch/TEMP_190409.cpp:377
          if (data[7] == 0x10) {
            // "count remain" gives full 12 bit resolution
            raw = (raw & 0xFFF0) + 12 - data[6];
          }
        } else {
          byte cfg = (data[4] & 0x60);
    2eb2:	8d 81       	ldd	r24, Y+5	; 0x05
    2eb4:	80 76       	andi	r24, 0x60	; 96
C:\Users\mathiasc\AppData\Local\Temp\arduino_build_312787\sketch/TEMP_190409.cpp:379
          // at lower res, the low bits are undefined, so let's zero them
          if (cfg == 0x00) raw = raw & ~7;  // 9 bit resolution, 93.75 ms
    2eb6:	11 f4       	brne	.+4      	; 0x2ebc <main+0xde2>
    2eb8:	68 7f       	andi	r22, 0xF8	; 248
    2eba:	2c cf       	rjmp	.-424    	; 0x2d14 <main+0xc3a>
C:\Users\mathiasc\AppData\Local\Temp\arduino_build_312787\sketch/TEMP_190409.cpp:380
          else if (cfg == 0x20) raw = raw & ~3; // 10 bit res, 187.5 ms
    2ebc:	80 32       	cpi	r24, 0x20	; 32
    2ebe:	11 f4       	brne	.+4      	; 0x2ec4 <main+0xdea>
    2ec0:	6c 7f       	andi	r22, 0xFC	; 252
    2ec2:	28 cf       	rjmp	.-432    	; 0x2d14 <main+0xc3a>
C:\Users\mathiasc\AppData\Local\Temp\arduino_build_312787\sketch/TEMP_190409.cpp:381
          else if (cfg == 0x40) raw = raw & ~1; // 11 bit res, 375 ms
    2ec4:	80 34       	cpi	r24, 0x40	; 64
    2ec6:	09 f0       	breq	.+2      	; 0x2eca <main+0xdf0>
    2ec8:	25 cf       	rjmp	.-438    	; 0x2d14 <main+0xc3a>
    2eca:	6e 7f       	andi	r22, 0xFE	; 254
    2ecc:	23 cf       	rjmp	.-442    	; 0x2d14 <main+0xc3a>
loop():
D:\Projects\190409-DIY_SOLDERING_IRON\Soldering-Station/Soldering-Station.ino:129
              }
           set_delay(2000);                        /* delay for the next state */
           state = WELCOME_LOGO_WAIT; 
    2ece:	8a e0       	ldi	r24, 0x0A	; 10
    2ed0:	90 e0       	ldi	r25, 0x00	; 0
D:\Projects\190409-DIY_SOLDERING_IRON\Soldering-Station/Soldering-Station.ino:321
          PWM_Off();
          Station.Frontend.display_dim(true);//display.dim(true); //Dim the display, if supported 
          display_Sleep();   //Show the sleep screen
          setpoint=0;           //We set the target to 0 degree, seem safe
          HeatPwr_Percent=0;
          state = SLEEP_WAIT; 
    2ed2:	80 93 22 28 	sts	0x2822, r24	; 0x802822 <state>
    2ed6:	90 93 23 28 	sts	0x2823, r25	; 0x802823 <state+0x1>
    2eda:	34 c0       	rjmp	.+104    	; 0x2f44 <main+0xe6a>
D:\Projects\190409-DIY_SOLDERING_IRON\Soldering-Station/Soldering-Station.ino:136

        /*************************************************************
                              STATE WELCOME_LOGO_WAIT       
        *************************************************************/
        case WELCOME_LOGO_WAIT:{
          if(0==delay_ms){      
    2edc:	80 91 a1 28 	lds	r24, 0x28A1	; 0x8028a1 <delay_ms>
    2ee0:	90 91 a2 28 	lds	r25, 0x28A2	; 0x8028a2 <delay_ms+0x1>
    2ee4:	89 2b       	or	r24, r25
    2ee6:	19 f4       	brne	.+6      	; 0x2eee <main+0xe14>
D:\Projects\190409-DIY_SOLDERING_IRON\Soldering-Station/Soldering-Station.ino:137
            state = WELCOME_TITLE;                  /* the next state the fsm will enter */
    2ee8:	8b e0       	ldi	r24, 0x0B	; 11
    2eea:	90 e0       	ldi	r25, 0x00	; 0
    2eec:	f2 cf       	rjmp	.-28     	; 0x2ed2 <main+0xdf8>
digitalRead():
    2eee:	84 e0       	ldi	r24, 0x04	; 4
    2ef0:	0e 94 36 04 	call	0x86c	; 0x86c <digitalRead.part.3>
loop():
D:\Projects\190409-DIY_SOLDERING_IRON\Soldering-Station/Soldering-Station.ino:138
          } else if( digitalRead( ROTARY_BTN ) == LOW ){         /* if the user pressed the button we will enter config mode */
    2ef4:	81 11       	cpse	r24, r1
    2ef6:	26 c0       	rjmp	.+76     	; 0x2f44 <main+0xe6a>
D:\Projects\190409-DIY_SOLDERING_IRON\Soldering-Station/Soldering-Station.ino:139
            state= CONIFG_MODE_WELCOME;
    2ef8:	8d e0       	ldi	r24, 0x0D	; 13
    2efa:	90 e0       	ldi	r25, 0x00	; 0
    2efc:	ea cf       	rjmp	.-44     	; 0x2ed2 <main+0xdf8>
D:\Projects\190409-DIY_SOLDERING_IRON\Soldering-Station/Soldering-Station.ino:148

        /*************************************************************
                              STATE WELCOME_TITLE       
        *************************************************************/
        case WELCOME_TITLE:{
           Station.Frontend.display_title();
    2efe:	8a e5       	ldi	r24, 0x5A	; 90
    2f00:	99 e2       	ldi	r25, 0x29	; 41
    2f02:	0e 94 99 0d 	call	0x1b32	; 0x1b32 <FE_190409::display_title()>
set_delay():
D:\Projects\190409-DIY_SOLDERING_IRON\Soldering-Station/Soldering-Station.ino:485
 Input:       None 
 Output:      None
 Description: Set the delaytimer to a given value 
 *************************************************************************************************************/    
void set_delay( uint16_t ms){
  while(delay_ms!=ms){
    2f06:	80 91 a1 28 	lds	r24, 0x28A1	; 0x8028a1 <delay_ms>
    2f0a:	90 91 a2 28 	lds	r25, 0x28A2	; 0x8028a2 <delay_ms+0x1>
    2f0e:	80 3d       	cpi	r24, 0xD0	; 208
    2f10:	97 40       	sbci	r25, 0x07	; 7
    2f12:	29 f0       	breq	.+10     	; 0x2f1e <main+0xe44>
D:\Projects\190409-DIY_SOLDERING_IRON\Soldering-Station/Soldering-Station.ino:486
    delay_ms=ms;
    2f14:	40 92 a1 28 	sts	0x28A1, r4	; 0x8028a1 <delay_ms>
    2f18:	50 92 a2 28 	sts	0x28A2, r5	; 0x8028a2 <delay_ms+0x1>
    2f1c:	f4 cf       	rjmp	.-24     	; 0x2f06 <main+0xe2c>
loop():
D:\Projects\190409-DIY_SOLDERING_IRON\Soldering-Station/Soldering-Station.ino:150
                              STATE WELCOME_TITLE       
        *************************************************************/
        case WELCOME_TITLE:{
           Station.Frontend.display_title();
           set_delay(2000);                        /* delay for the next state */
           state = WELCOME_TITLE_WAIT; 
    2f1e:	8c e0       	ldi	r24, 0x0C	; 12
    2f20:	90 e0       	ldi	r25, 0x00	; 0
    2f22:	d7 cf       	rjmp	.-82     	; 0x2ed2 <main+0xdf8>
D:\Projects\190409-DIY_SOLDERING_IRON\Soldering-Station/Soldering-Station.ino:157

        /*************************************************************
                              STATE WELCOME_TITLE_WAIT       
        *************************************************************/
        case WELCOME_TITLE_WAIT:{
          if( (0==delay_ms) || ( digitalRead( ROTARY_BTN ) == LOW ) ){ /* if the user pressed the button we skip the intro */
    2f24:	80 91 a1 28 	lds	r24, 0x28A1	; 0x8028a1 <delay_ms>
    2f28:	90 91 a2 28 	lds	r25, 0x28A2	; 0x8028a2 <delay_ms+0x1>
    2f2c:	89 2b       	or	r24, r25
    2f2e:	29 f4       	brne	.+10     	; 0x2f3a <main+0xe60>
D:\Projects\190409-DIY_SOLDERING_IRON\Soldering-Station/Soldering-Station.ino:304
          Station.CheckLimits();
          if( ( digitalRead( ROTARY_BTN ) == LOW ) && ( btn_press_time < 1000 ))
          {
            setpoint = LastActiveTemp;   /* we restore the temperatur */
            rotary_EncoderEnable();  /* we setup the encoder again */
            state= NOFAULT;           /* we switch to opperating state */
    2f30:	10 92 22 28 	sts	0x2822, r1	; 0x802822 <state>
    2f34:	10 92 23 28 	sts	0x2823, r1	; 0x802823 <state+0x1>
    2f38:	05 c0       	rjmp	.+10     	; 0x2f44 <main+0xe6a>
digitalRead():
    2f3a:	84 e0       	ldi	r24, 0x04	; 4
    2f3c:	0e 94 36 04 	call	0x86c	; 0x86c <digitalRead.part.3>
loop():
D:\Projects\190409-DIY_SOLDERING_IRON\Soldering-Station/Soldering-Station.ino:157

        /*************************************************************
                              STATE WELCOME_TITLE_WAIT       
        *************************************************************/
        case WELCOME_TITLE_WAIT:{
          if( (0==delay_ms) || ( digitalRead( ROTARY_BTN ) == LOW ) ){ /* if the user pressed the button we skip the intro */
    2f40:	88 23       	and	r24, r24
    2f42:	b1 f3       	breq	.-20     	; 0x2f30 <main+0xe56>
main():
C:\Users\mathiasc\AppData\Local\Arduino15\packages\MegaCoreX\hardware\megaavr\1.0.4\cores\coreX-corefiles/main.cpp:43
  setup();

  for (;;)
  {
    loop();
    if (serialEventRun) serialEventRun();
    2f44:	0e 94 aa 02 	call	0x554	; 0x554 <serialEventRun()>
    2f48:	f0 ca       	rjmp	.-2592   	; 0x252a <main+0x450>
set_delay():
D:\Projects\190409-DIY_SOLDERING_IRON\Soldering-Station/Soldering-Station.ino:485
 Input:       None 
 Output:      None
 Description: Set the delaytimer to a given value 
 *************************************************************************************************************/    
void set_delay( uint16_t ms){
  while(delay_ms!=ms){
    2f4a:	80 91 a1 28 	lds	r24, 0x28A1	; 0x8028a1 <delay_ms>
    2f4e:	90 91 a2 28 	lds	r25, 0x28A2	; 0x8028a2 <delay_ms+0x1>
    2f52:	80 3d       	cpi	r24, 0xD0	; 208
    2f54:	97 40       	sbci	r25, 0x07	; 7
    2f56:	29 f0       	breq	.+10     	; 0x2f62 <main+0xe88>
D:\Projects\190409-DIY_SOLDERING_IRON\Soldering-Station/Soldering-Station.ino:486
    delay_ms=ms;
    2f58:	40 92 a1 28 	sts	0x28A1, r4	; 0x8028a1 <delay_ms>
    2f5c:	50 92 a2 28 	sts	0x28A2, r5	; 0x8028a2 <delay_ms+0x1>
    2f60:	f4 cf       	rjmp	.-24     	; 0x2f4a <main+0xe70>
loop():
D:\Projects\190409-DIY_SOLDERING_IRON\Soldering-Station/Soldering-Station.ino:165
        } break;

        case CONIFG_MODE_WELCOME:{
          //We display that we entered config mode
          set_delay(2000);                        /* delay for the next state */
          state = CONIFG_MODE_WELCOME_WAIT; 
    2f62:	6e e0       	ldi	r22, 0x0E	; 14
    2f64:	70 e0       	ldi	r23, 0x00	; 0
    2f66:	60 93 22 28 	sts	0x2822, r22	; 0x802822 <state>
    2f6a:	70 93 23 28 	sts	0x2823, r23	; 0x802823 <state+0x1>
point():
C:\Users\mathiasc\Documents\Arduino\libraries\Grove_4-Digit_Display/TM1637.cpp:291
    2f6e:	10 92 47 29 	sts	0x2947, r1	; 0x802947 <tm1637+0x3>
display_show_config():
C:\Users\mathiasc\AppData\Local\Temp\arduino_build_312787\sketch/frontend_190408.cpp:84
 Output:      None
 Discription: Shows the ConF title
**********************************************************************************************************/
void FE_190409::display_show_config( void  ){
    tm1637.point(false);
    tm1637.displayStr("CONF");
    2f72:	88 e3       	ldi	r24, 0x38	; 56
    2f74:	9d e7       	ldi	r25, 0x7D	; 125
    2f76:	0e 94 04 0d 	call	0x1a08	; 0x1a08 <TM1637::displayStr(char*, unsigned int) [clone .constprop.27]>
rotary_EncoderDisable():
D:\Projects\190409-DIY_SOLDERING_IRON\Soldering-Station/Soldering-Station.ino:514
 Output:      None
 Description: Disable pin change interrupts for rotary encoder pin 
 *************************************************************************************************************/    
void rotary_EncoderDisable()
{   
    RotaryEncoderLocked=1;
    2f7a:	81 e0       	ldi	r24, 0x01	; 1
    2f7c:	80 93 a0 28 	sts	0x28A0, r24	; 0x8028a0 <RotaryEncoderLocked>
rotary_EncoderMenuEnable():
D:\Projects\190409-DIY_SOLDERING_IRON\Soldering-Station/Soldering-Station.ino:527
 Output:      None
 Description: Configure pin change interrupts for rotary encoder pin 
 *************************************************************************************************************/    
void rotary_EncoderMenuEnable()
{   
    RotaryEncoderMenuEna=1;
    2f80:	80 93 9f 28 	sts	0x289F, r24	; 0x80289f <RotaryEncoderMenuEna>
    2f84:	df cf       	rjmp	.-66     	; 0x2f44 <main+0xe6a>
loop():
D:\Projects\190409-DIY_SOLDERING_IRON\Soldering-Station/Soldering-Station.ino:173
          rotary_EncoderMenuEnable();
        }break;
        
        case CONIFG_MODE_WELCOME_WAIT:{
          //We wait a few seconds
          if( (0==delay_ms)  ){ /* if the user pressed the button we skip the intro */
    2f86:	80 91 a1 28 	lds	r24, 0x28A1	; 0x8028a1 <delay_ms>
    2f8a:	90 91 a2 28 	lds	r25, 0x28A2	; 0x8028a2 <delay_ms+0x1>
    2f8e:	89 2b       	or	r24, r25
    2f90:	c9 f6       	brne	.-78     	; 0x2f44 <main+0xe6a>
D:\Projects\190409-DIY_SOLDERING_IRON\Soldering-Station/Soldering-Station.ino:174
            state=CONIFG_MODE;
    2f92:	8f e0       	ldi	r24, 0x0F	; 15
    2f94:	90 e0       	ldi	r25, 0x00	; 0
    2f96:	9d cf       	rjmp	.-198    	; 0x2ed2 <main+0xdf8>
SetPWM():
C:\Users\mathiasc\AppData\Local\Temp\arduino_build_312787\sketch/HW_190409.cpp:258
void HW_190409::SetPWM( uint16_t PWM_Value){
 
    if(PWM_Value>=MAX_PWM_LIMIT){
      PWM_Value = MAX_PWM_LIMIT;
    }
    PWM.On(PWM_Value);
    2f98:	70 e0       	ldi	r23, 0x00	; 0
    2f9a:	60 e0       	ldi	r22, 0x00	; 0
    2f9c:	8e e5       	ldi	r24, 0x5E	; 94
    2f9e:	99 e2       	ldi	r25, 0x29	; 41
    2fa0:	0e 94 1d 01 	call	0x23a	; 0x23a <PWM_190409::On(unsigned int)>
GetSolderingIron():
C:\Users\mathiasc\AppData\Local\Temp\arduino_build_312787\sketch/HW_190409.cpp:323
 Input:       None
 Output:      SolderingIronType_t
 Discription: Get the currently configured iron form the station
**********************************************************************************************************/
SolderingIronType_t HW_190409::GetSolderingIron( void ){
  return read_StoreIronConfig();
    2fa4:	0e 94 41 0a 	call	0x1482	; 0x1482 <HW_190409::read_StoreIronConfig() [clone .constprop.61]>
point():
C:\Users\mathiasc\Documents\Arduino\libraries\Grove_4-Digit_Display/TM1637.cpp:291
    2fa8:	10 92 47 29 	sts	0x2947, r1	; 0x802947 <tm1637+0x3>
display_show_current_ironmode():
C:\Users\mathiasc\AppData\Local\Temp\arduino_build_312787\sketch/frontend_190408.cpp:98
 Output:      None
 Discription: Shows current configured IronMode
**********************************************************************************************************/
void FE_190409::display_show_current_ironmode( SolderingIronType_t Iron){
    tm1637.point(false);
    switch( Iron){
    2fac:	82 30       	cpi	r24, 0x02	; 2
    2fae:	91 05       	cpc	r25, r1
    2fb0:	51 f0       	breq	.+20     	; 0x2fc6 <main+0xeec>
    2fb2:	83 30       	cpi	r24, 0x03	; 3
    2fb4:	91 05       	cpc	r25, r1
    2fb6:	51 f0       	breq	.+20     	; 0x2fcc <main+0xef2>
    2fb8:	01 97       	sbiw	r24, 0x01	; 1
    2fba:	59 f4       	brne	.+22     	; 0x2fd2 <main+0xef8>
C:\Users\mathiasc\AppData\Local\Temp\arduino_build_312787\sketch/frontend_190408.cpp:100
        case IRON_HAKKO_FX8801:{
            tm1637.displayStr("0 C1"); //24V
    2fbc:	8d e3       	ldi	r24, 0x3D	; 61
    2fbe:	9d e7       	ldi	r25, 0x7D	; 125
C:\Users\mathiasc\AppData\Local\Temp\arduino_build_312787\sketch/frontend_190408.cpp:108
        case IRON_JBC_T245A:{
            tm1637.displayStr("0 C2"); //24V
        }break;

        case IRON_WELLER_RT:{
            tm1637.displayStr("0 C3"); //12V
    2fc0:	0e 94 04 0d 	call	0x1a08	; 0x1a08 <TM1637::displayStr(char*, unsigned int) [clone .constprop.27]>
    2fc4:	bf cf       	rjmp	.-130    	; 0x2f44 <main+0xe6a>
C:\Users\mathiasc\AppData\Local\Temp\arduino_build_312787\sketch/frontend_190408.cpp:104
        case IRON_HAKKO_FX8801:{
            tm1637.displayStr("0 C1"); //24V
        }break;

        case IRON_JBC_T245A:{
            tm1637.displayStr("0 C2"); //24V
    2fc6:	82 e4       	ldi	r24, 0x42	; 66
    2fc8:	9d e7       	ldi	r25, 0x7D	; 125
    2fca:	fa cf       	rjmp	.-12     	; 0x2fc0 <main+0xee6>
C:\Users\mathiasc\AppData\Local\Temp\arduino_build_312787\sketch/frontend_190408.cpp:108
        }break;

        case IRON_WELLER_RT:{
            tm1637.displayStr("0 C3"); //12V
    2fcc:	87 e4       	ldi	r24, 0x47	; 71
    2fce:	9d e7       	ldi	r25, 0x7D	; 125
    2fd0:	f7 cf       	rjmp	.-18     	; 0x2fc0 <main+0xee6>
C:\Users\mathiasc\AppData\Local\Temp\arduino_build_312787\sketch/frontend_190408.cpp:112
        }break;

        default:{
            tm1637.displayStr("0 C8"); //Default 12V
    2fd2:	8c e4       	ldi	r24, 0x4C	; 76
    2fd4:	9d e7       	ldi	r25, 0x7D	; 125
    2fd6:	f4 cf       	rjmp	.-24     	; 0x2fc0 <main+0xee6>
loop():
D:\Projects\190409-DIY_SOLDERING_IRON\Soldering-Station/Soldering-Station.ino:194

        /*************************************************************
                              STATE NOFAULT       
        *************************************************************/
        case NOFAULT: {
          clear_error=0;
    2fd8:	10 92 9e 28 	sts	0x289E, r1	; 0x80289e <clear_error>
D:\Projects\190409-DIY_SOLDERING_IRON\Soldering-Station/Soldering-Station.ino:195
          Station.Frontend.display_show_Temperatur(display_Temp,HeatPwr_Percent,setpoint,state,timestamp);
    2fdc:	e0 90 9c 28 	lds	r14, 0x289C	; 0x80289c <timestamp>
    2fe0:	f0 90 9d 28 	lds	r15, 0x289D	; 0x80289d <timestamp+0x1>
    2fe4:	00 91 22 28 	lds	r16, 0x2822	; 0x802822 <state>
    2fe8:	10 91 23 28 	lds	r17, 0x2823	; 0x802823 <state+0x1>
    2fec:	20 91 20 28 	lds	r18, 0x2820	; 0x802820 <setpoint>
    2ff0:	30 91 21 28 	lds	r19, 0x2821	; 0x802821 <setpoint+0x1>
    2ff4:	40 91 9b 28 	lds	r20, 0x289B	; 0x80289b <HeatPwr_Percent>
    2ff8:	60 91 99 28 	lds	r22, 0x2899	; 0x802899 <display_Temp>
    2ffc:	70 91 9a 28 	lds	r23, 0x289A	; 0x80289a <display_Temp+0x1>
    3000:	8a e5       	ldi	r24, 0x5A	; 90
    3002:	99 e2       	ldi	r25, 0x29	; 41
    3004:	0e 94 58 0e 	call	0x1cb0	; 0x1cb0 <FE_190409::display_show_Temperatur(unsigned int, unsigned char, unsigned int, fsmstate_t, unsigned int)>
D:\Projects\190409-DIY_SOLDERING_IRON\Soldering-Station/Soldering-Station.ino:196
          Station.write_StoreTemperature(setpoint);        //store "set temperature" in eeprom
    3008:	00 91 20 28 	lds	r16, 0x2820	; 0x802820 <setpoint>
    300c:	10 91 21 28 	lds	r17, 0x2821	; 0x802821 <setpoint+0x1>
_ZN5EERefC2Ei():
C:\Users\mathiasc\AppData\Local\Arduino15\packages\MegaCoreX\hardware\megaavr\1.0.4\libraries\EEPROM\src/EEPROM.h:50
}

struct EERef
{
  EERef(const int index)
      : index(index) {}
    3010:	82 e0       	ldi	r24, 0x02	; 2
    3012:	90 e0       	ldi	r25, 0x00	; 0
    3014:	89 83       	std	Y+1, r24	; 0x01
    3016:	9a 83       	std	Y+2, r25	; 0x02
_ZN11EEPROMClass6updateEih.isra.1():
C:\Users\mathiasc\AppData\Local\Arduino15\packages\MegaCoreX\hardware\megaavr\1.0.4\libraries\EEPROM\src/EEPROM.h:133
{
  //Basic user access methods.
  EERef operator[](const int idx) { return idx; }
  uint8_t read(int idx) { return EERef(idx); }
  void write(int idx, uint8_t val) { (EERef(idx)) = val; }
  void update(int idx, uint8_t val) { EERef(idx).update(val); }
    3018:	61 2f       	mov	r22, r17
    301a:	ce 01       	movw	r24, r28
    301c:	01 96       	adiw	r24, 0x01	; 1
    301e:	0e 94 19 0a 	call	0x1432	; 0x1432 <EERef::update(unsigned char)>
_ZN5EERefC2Ei():
C:\Users\mathiasc\AppData\Local\Arduino15\packages\MegaCoreX\hardware\megaavr\1.0.4\libraries\EEPROM\src/EEPROM.h:50
}

struct EERef
{
  EERef(const int index)
      : index(index) {}
    3022:	83 e0       	ldi	r24, 0x03	; 3
    3024:	90 e0       	ldi	r25, 0x00	; 0
    3026:	89 83       	std	Y+1, r24	; 0x01
    3028:	9a 83       	std	Y+2, r25	; 0x02
_ZN11EEPROMClass6updateEih.isra.1():
C:\Users\mathiasc\AppData\Local\Arduino15\packages\MegaCoreX\hardware\megaavr\1.0.4\libraries\EEPROM\src/EEPROM.h:133
{
  //Basic user access methods.
  EERef operator[](const int idx) { return idx; }
  uint8_t read(int idx) { return EERef(idx); }
  void write(int idx, uint8_t val) { (EERef(idx)) = val; }
  void update(int idx, uint8_t val) { EERef(idx).update(val); }
    302a:	60 2f       	mov	r22, r16
    302c:	ce 01       	movw	r24, r28
    302e:	01 96       	adiw	r24, 0x01	; 1
    3030:	0e 94 19 0a 	call	0x1432	; 0x1432 <EERef::update(unsigned char)>
loop():
D:\Projects\190409-DIY_SOLDERING_IRON\Soldering-Station/Soldering-Station.ino:197
          pwm_Adjust();
    3034:	0e 94 a0 08 	call	0x1140	; 0x1140 <pwm_Adjust()>
D:\Projects\190409-DIY_SOLDERING_IRON\Soldering-Station/Soldering-Station.ino:200
          Station.CheckLimits();   
          /* avg_pwr for powersave */
          avg_power= avg_power*15+HeatPwr_Percent;
    3038:	40 91 97 28 	lds	r20, 0x2897	; 0x802897 <avg_power>
    303c:	50 91 98 28 	lds	r21, 0x2898	; 0x802898 <avg_power+0x1>
    3040:	80 91 9b 28 	lds	r24, 0x289B	; 0x80289b <HeatPwr_Percent>
    3044:	9f e0       	ldi	r25, 0x0F	; 15
    3046:	94 9f       	mul	r25, r20
    3048:	90 01       	movw	r18, r0
    304a:	95 9f       	mul	r25, r21
    304c:	30 0d       	add	r19, r0
    304e:	11 24       	eor	r1, r1
    3050:	82 0f       	add	r24, r18
    3052:	93 2f       	mov	r25, r19
    3054:	91 1d       	adc	r25, r1
    3056:	80 93 97 28 	sts	0x2897, r24	; 0x802897 <avg_power>
    305a:	90 93 98 28 	sts	0x2898, r25	; 0x802898 <avg_power+0x1>
D:\Projects\190409-DIY_SOLDERING_IRON\Soldering-Station/Soldering-Station.ino:201
          avg_power = avg_power/16;
    305e:	80 91 97 28 	lds	r24, 0x2897	; 0x802897 <avg_power>
    3062:	90 91 98 28 	lds	r25, 0x2898	; 0x802898 <avg_power+0x1>
    3066:	24 e0       	ldi	r18, 0x04	; 4
    3068:	96 95       	lsr	r25
    306a:	87 95       	ror	r24
    306c:	2a 95       	dec	r18
    306e:	e1 f7       	brne	.-8      	; 0x3068 <main+0xf8e>
    3070:	80 93 97 28 	sts	0x2897, r24	; 0x802897 <avg_power>
    3074:	90 93 98 28 	sts	0x2898, r25	; 0x802898 <avg_power+0x1>
D:\Projects\190409-DIY_SOLDERING_IRON\Soldering-Station/Soldering-Station.ino:203
          /* due to rounding errors this is not accurate but serves the purpose */
          if( avg_power != (last_avg) ) { /* We are awake */
    3078:	20 91 97 28 	lds	r18, 0x2897	; 0x802897 <avg_power>
    307c:	30 91 98 28 	lds	r19, 0x2898	; 0x802898 <avg_power+0x1>
    3080:	80 91 95 28 	lds	r24, 0x2895	; 0x802895 <last_avg>
    3084:	90 91 96 28 	lds	r25, 0x2896	; 0x802896 <last_avg+0x1>
    3088:	28 17       	cp	r18, r24
    308a:	39 07       	cpc	r19, r25
    308c:	61 f1       	breq	.+88     	; 0x30e6 <main+0x100c>
D:\Projects\190409-DIY_SOLDERING_IRON\Soldering-Station/Soldering-Station.ino:204
            if(deltacount<255){
    308e:	80 91 94 28 	lds	r24, 0x2894	; 0x802894 <deltacount>
    3092:	8f 3f       	cpi	r24, 0xFF	; 255
    3094:	29 f0       	breq	.+10     	; 0x30a0 <main+0xfc6>
D:\Projects\190409-DIY_SOLDERING_IRON\Soldering-Station/Soldering-Station.ino:205
              deltacount++;
    3096:	80 91 94 28 	lds	r24, 0x2894	; 0x802894 <deltacount>
    309a:	8f 5f       	subi	r24, 0xFF	; 255
    309c:	80 93 94 28 	sts	0x2894, r24	; 0x802894 <deltacount>
D:\Projects\190409-DIY_SOLDERING_IRON\Soldering-Station/Soldering-Station.ino:211
            } 
          } else {
            deltacount=0;
          }

           if( (deltacount>7) || (100 == HeatPwr_Percent ) || ( ( btn_press_time>100 ) && ( btn_press_time < 2000 ) ) ) { /* if we are used we prevent sleeping */
    30a0:	80 91 94 28 	lds	r24, 0x2894	; 0x802894 <deltacount>
    30a4:	88 30       	cpi	r24, 0x08	; 8
    30a6:	10 f5       	brcc	.+68     	; 0x30ec <main+0x1012>
    30a8:	80 91 9b 28 	lds	r24, 0x289B	; 0x80289b <HeatPwr_Percent>
    30ac:	84 36       	cpi	r24, 0x64	; 100
    30ae:	f1 f0       	breq	.+60     	; 0x30ec <main+0x1012>
    30b0:	80 91 92 28 	lds	r24, 0x2892	; 0x802892 <btn_press_time>
    30b4:	90 91 93 28 	lds	r25, 0x2893	; 0x802893 <btn_press_time+0x1>
    30b8:	85 36       	cpi	r24, 0x65	; 101
    30ba:	91 05       	cpc	r25, r1
    30bc:	38 f0       	brcs	.+14     	; 0x30cc <main+0xff2>
    30be:	80 91 92 28 	lds	r24, 0x2892	; 0x802892 <btn_press_time>
    30c2:	90 91 93 28 	lds	r25, 0x2893	; 0x802893 <btn_press_time+0x1>
    30c6:	80 3d       	cpi	r24, 0xD0	; 208
    30c8:	97 40       	sbci	r25, 0x07	; 7
    30ca:	80 f0       	brcs	.+32     	; 0x30ec <main+0x1012>
D:\Projects\190409-DIY_SOLDERING_IRON\Soldering-Station/Soldering-Station.ino:213
              powerSave_TimerReset();
           } else if( powerSave_F == true){ /* we need to go in powersave */
    30cc:	80 91 91 28 	lds	r24, 0x2891	; 0x802891 <powerSave_F>
    30d0:	88 23       	and	r24, r24
    30d2:	71 f0       	breq	.+28     	; 0x30f0 <main+0x1016>
D:\Projects\190409-DIY_SOLDERING_IRON\Soldering-Station/Soldering-Station.ino:214
                powerSave_TimerReset();
    30d4:	0e 94 92 08 	call	0x1124	; 0x1124 <powerSave_TimerReset()>
D:\Projects\190409-DIY_SOLDERING_IRON\Soldering-Station/Soldering-Station.ino:215
                state = POWERSAVE;
    30d8:	85 e0       	ldi	r24, 0x05	; 5
    30da:	90 e0       	ldi	r25, 0x00	; 0
    30dc:	80 93 22 28 	sts	0x2822, r24	; 0x802822 <state>
    30e0:	90 93 23 28 	sts	0x2823, r25	; 0x802823 <state+0x1>
    30e4:	05 c0       	rjmp	.+10     	; 0x30f0 <main+0x1016>
D:\Projects\190409-DIY_SOLDERING_IRON\Soldering-Station/Soldering-Station.ino:208
          if( avg_power != (last_avg) ) { /* We are awake */
            if(deltacount<255){
              deltacount++;
            } 
          } else {
            deltacount=0;
    30e6:	10 92 94 28 	sts	0x2894, r1	; 0x802894 <deltacount>
    30ea:	da cf       	rjmp	.-76     	; 0x30a0 <main+0xfc6>
D:\Projects\190409-DIY_SOLDERING_IRON\Soldering-Station/Soldering-Station.ino:212
          }

           if( (deltacount>7) || (100 == HeatPwr_Percent ) || ( ( btn_press_time>100 ) && ( btn_press_time < 2000 ) ) ) { /* if we are used we prevent sleeping */
              powerSave_TimerReset();
    30ec:	0e 94 92 08 	call	0x1124	; 0x1124 <powerSave_TimerReset()>
D:\Projects\190409-DIY_SOLDERING_IRON\Soldering-Station/Soldering-Station.ino:218
           } else if( powerSave_F == true){ /* we need to go in powersave */
                powerSave_TimerReset();
                state = POWERSAVE;
           } 

          if(btn_press_time>5000){
    30f0:	80 91 92 28 	lds	r24, 0x2892	; 0x802892 <btn_press_time>
    30f4:	90 91 93 28 	lds	r25, 0x2893	; 0x802893 <btn_press_time+0x1>
    30f8:	89 38       	cpi	r24, 0x89	; 137
    30fa:	93 41       	sbci	r25, 0x13	; 19
    30fc:	c8 f0       	brcs	.+50     	; 0x3130 <main+0x1056>
D:\Projects\190409-DIY_SOLDERING_IRON\Soldering-Station/Soldering-Station.ino:219
                current_PWM=0;
    30fe:	10 92 8d 28 	sts	0x288D, r1	; 0x80288d <current_PWM>
    3102:	10 92 8e 28 	sts	0x288E, r1	; 0x80288e <current_PWM+0x1>
    3106:	10 92 8f 28 	sts	0x288F, r1	; 0x80288f <current_PWM+0x2>
    310a:	10 92 90 28 	sts	0x2890, r1	; 0x802890 <current_PWM+0x3>
D:\Projects\190409-DIY_SOLDERING_IRON\Soldering-Station/Soldering-Station.ino:220
                state = SLEEP;
    310e:	87 e0       	ldi	r24, 0x07	; 7
    3110:	90 e0       	ldi	r25, 0x00	; 0
    3112:	80 93 22 28 	sts	0x2822, r24	; 0x802822 <state>
    3116:	90 93 23 28 	sts	0x2823, r25	; 0x802823 <state+0x1>
rotary_EncoderDisable():
D:\Projects\190409-DIY_SOLDERING_IRON\Soldering-Station/Soldering-Station.ino:514
 Output:      None
 Description: Disable pin change interrupts for rotary encoder pin 
 *************************************************************************************************************/    
void rotary_EncoderDisable()
{   
    RotaryEncoderLocked=1;
    311a:	81 e0       	ldi	r24, 0x01	; 1
    311c:	80 93 a0 28 	sts	0x28A0, r24	; 0x8028a0 <RotaryEncoderLocked>
loop():
D:\Projects\190409-DIY_SOLDERING_IRON\Soldering-Station/Soldering-Station.ino:222

          if(btn_press_time>5000){
                current_PWM=0;
                state = SLEEP;
                rotary_EncoderDisable();              /* we disable rotary encoder  */
                LastActiveTemp=setpoint;
    3120:	80 91 20 28 	lds	r24, 0x2820	; 0x802820 <setpoint>
    3124:	90 91 21 28 	lds	r25, 0x2821	; 0x802821 <setpoint+0x1>
    3128:	80 93 8b 28 	sts	0x288B, r24	; 0x80288b <LastActiveTemp>
    312c:	90 93 8c 28 	sts	0x288C, r25	; 0x80288c <LastActiveTemp+0x1>
D:\Projects\190409-DIY_SOLDERING_IRON\Soldering-Station/Soldering-Station.ino:226
               
          }
           
          last_avg=avg_power;
    3130:	80 91 97 28 	lds	r24, 0x2897	; 0x802897 <avg_power>
    3134:	90 91 98 28 	lds	r25, 0x2898	; 0x802898 <avg_power+0x1>
    3138:	80 93 95 28 	sts	0x2895, r24	; 0x802895 <last_avg>
    313c:	90 93 96 28 	sts	0x2896, r25	; 0x802896 <last_avg+0x1>
    3140:	01 cf       	rjmp	.-510    	; 0x2f44 <main+0xe6a>
D:\Projects\190409-DIY_SOLDERING_IRON\Soldering-Station/Soldering-Station.ino:234

       /*************************************************************
                              STATE TEMPSENS_FAIL       
        *************************************************************/   
        case TEMPSENS_FAIL:{   /* this is given by the fault monitor    */
          PWM_Off();   /* we turn off the pwm                   */
    3142:	0e 94 ce 09 	call	0x139c	; 0x139c <PWM_Off()>
D:\Projects\190409-DIY_SOLDERING_IRON\Soldering-Station/Soldering-Station.ino:235
          Station.Frontend.display_show_TempError(ErrNo); 
    3146:	60 91 8a 28 	lds	r22, 0x288A	; 0x80288a <ErrNo>
    314a:	8a e5       	ldi	r24, 0x5A	; 90
    314c:	99 e2       	ldi	r25, 0x29	; 41
    314e:	0e 94 6c 0d 	call	0x1ad8	; 0x1ad8 <FE_190409::display_show_TempError(unsigned char)>
D:\Projects\190409-DIY_SOLDERING_IRON\Soldering-Station/Soldering-Station.ino:236
          state = WAIT;
    3152:	83 e0       	ldi	r24, 0x03	; 3
    3154:	90 e0       	ldi	r25, 0x00	; 0
    3156:	bd ce       	rjmp	.-646    	; 0x2ed2 <main+0xdf8>
D:\Projects\190409-DIY_SOLDERING_IRON\Soldering-Station/Soldering-Station.ino:243

        /*************************************************************
                              STATE TEMPSENS_FAIL       
        *************************************************************/   
        case UNDERVOLTAGE:{
            PWM_Off();
    3158:	0e 94 ce 09 	call	0x139c	; 0x139c <PWM_Off()>
    315c:	f3 ce       	rjmp	.-538    	; 0x2f44 <main+0xe6a>
D:\Projects\190409-DIY_SOLDERING_IRON\Soldering-Station/Soldering-Station.ino:251
        } break;        
        /*************************************************************
                              STATE WAIT       
        *************************************************************/   
        case WAIT:{
            if(timestamp&0x0001){ /* we invert the display once a second */
    315e:	80 91 9c 28 	lds	r24, 0x289C	; 0x80289c <timestamp>
    3162:	90 91 9d 28 	lds	r25, 0x289D	; 0x80289d <timestamp+0x1>
D:\Projects\190409-DIY_SOLDERING_IRON\Soldering-Station/Soldering-Station.ino:256
              Station.Frontend.display_invert(1);//display.invertDisplay(1);
            } else {
              Station.Frontend.display_invert(0);//display.invertDisplay(0);
            }
           if( (clear_error != 0) || ( digitalRead( ROTARY_BTN ) == LOW ) )  /* if the user pressed the button we try to recover */
    3166:	80 91 9e 28 	lds	r24, 0x289E	; 0x80289e <clear_error>
    316a:	88 23       	and	r24, r24
    316c:	39 f0       	breq	.+14     	; 0x317c <main+0x10a2>
D:\Projects\190409-DIY_SOLDERING_IRON\Soldering-Station/Soldering-Station.ino:259
           {
            Station.Frontend.display_invert(0); //display.invertDisplay(0);
            clear_error=0;
    316e:	10 92 9e 28 	sts	0x289E, r1	; 0x80289e <clear_error>
D:\Projects\190409-DIY_SOLDERING_IRON\Soldering-Station/Soldering-Station.ino:260
            state= RECOVER;
    3172:	20 92 22 28 	sts	0x2822, r2	; 0x802822 <state>
    3176:	30 92 23 28 	sts	0x2823, r3	; 0x802823 <state+0x1>
    317a:	e4 ce       	rjmp	.-568    	; 0x2f44 <main+0xe6a>
digitalRead():
    317c:	84 e0       	ldi	r24, 0x04	; 4
    317e:	0e 94 36 04 	call	0x86c	; 0x86c <digitalRead.part.3>
loop():
D:\Projects\190409-DIY_SOLDERING_IRON\Soldering-Station/Soldering-Station.ino:256
            if(timestamp&0x0001){ /* we invert the display once a second */
              Station.Frontend.display_invert(1);//display.invertDisplay(1);
            } else {
              Station.Frontend.display_invert(0);//display.invertDisplay(0);
            }
           if( (clear_error != 0) || ( digitalRead( ROTARY_BTN ) == LOW ) )  /* if the user pressed the button we try to recover */
    3182:	88 23       	and	r24, r24
    3184:	a1 f3       	breq	.-24     	; 0x316e <main+0x1094>
    3186:	de ce       	rjmp	.-580    	; 0x2f44 <main+0xe6a>
D:\Projects\190409-DIY_SOLDERING_IRON\Soldering-Station/Soldering-Station.ino:273
        *************************************************************/   
        case RECOVER:{
          /* Recovery time my be displayed
           *  
           */
           Station.Frontend.display_show_Temperatur(display_Temp,HeatPwr_Percent,setpoint,state,timestamp);    //display temperature on oled, let the PWR string blink
    3188:	e0 90 9c 28 	lds	r14, 0x289C	; 0x80289c <timestamp>
    318c:	f0 90 9d 28 	lds	r15, 0x289D	; 0x80289d <timestamp+0x1>
    3190:	00 91 22 28 	lds	r16, 0x2822	; 0x802822 <state>
    3194:	10 91 23 28 	lds	r17, 0x2823	; 0x802823 <state+0x1>
    3198:	20 91 20 28 	lds	r18, 0x2820	; 0x802820 <setpoint>
    319c:	30 91 21 28 	lds	r19, 0x2821	; 0x802821 <setpoint+0x1>
    31a0:	40 91 9b 28 	lds	r20, 0x289B	; 0x80289b <HeatPwr_Percent>
    31a4:	60 91 99 28 	lds	r22, 0x2899	; 0x802899 <display_Temp>
    31a8:	70 91 9a 28 	lds	r23, 0x289A	; 0x80289a <display_Temp+0x1>
    31ac:	8a e5       	ldi	r24, 0x5A	; 90
    31ae:	99 e2       	ldi	r25, 0x29	; 41
    31b0:	0e 94 58 0e 	call	0x1cb0	; 0x1cb0 <FE_190409::display_show_Temperatur(unsigned int, unsigned char, unsigned int, fsmstate_t, unsigned int)>
    31b4:	c7 ce       	rjmp	.-626    	; 0x2f44 <main+0xe6a>
rotary_EncoderDisable():
D:\Projects\190409-DIY_SOLDERING_IRON\Soldering-Station/Soldering-Station.ino:514
 Output:      None
 Description: Disable pin change interrupts for rotary encoder pin 
 *************************************************************************************************************/    
void rotary_EncoderDisable()
{   
    RotaryEncoderLocked=1;
    31b6:	81 e0       	ldi	r24, 0x01	; 1
    31b8:	80 93 a0 28 	sts	0x28A0, r24	; 0x8028a0 <RotaryEncoderLocked>
loop():
D:\Projects\190409-DIY_SOLDERING_IRON\Soldering-Station/Soldering-Station.ino:283
        /*************************************************************
                              STATE POWERSAVE       
        *************************************************************/           
        case POWERSAVE:{                        /* powersave state, will be entered after 15 minutes */
          rotary_EncoderDisable();              /* we disable rotary encoder  */
          Station.Frontend.display_show_Temperatur(display_Temp,HeatPwr_Percent,setpoint,state,timestamp);       
    31bc:	e0 90 9c 28 	lds	r14, 0x289C	; 0x80289c <timestamp>
    31c0:	f0 90 9d 28 	lds	r15, 0x289D	; 0x80289d <timestamp+0x1>
    31c4:	00 91 22 28 	lds	r16, 0x2822	; 0x802822 <state>
    31c8:	10 91 23 28 	lds	r17, 0x2823	; 0x802823 <state+0x1>
    31cc:	20 91 20 28 	lds	r18, 0x2820	; 0x802820 <setpoint>
    31d0:	30 91 21 28 	lds	r19, 0x2821	; 0x802821 <setpoint+0x1>
    31d4:	40 91 9b 28 	lds	r20, 0x289B	; 0x80289b <HeatPwr_Percent>
    31d8:	60 91 99 28 	lds	r22, 0x2899	; 0x802899 <display_Temp>
    31dc:	70 91 9a 28 	lds	r23, 0x289A	; 0x80289a <display_Temp+0x1>
    31e0:	8a e5       	ldi	r24, 0x5A	; 90
    31e2:	99 e2       	ldi	r25, 0x29	; 41
    31e4:	0e 94 58 0e 	call	0x1cb0	; 0x1cb0 <FE_190409::display_show_Temperatur(unsigned int, unsigned char, unsigned int, fsmstate_t, unsigned int)>
D:\Projects\190409-DIY_SOLDERING_IRON\Soldering-Station/Soldering-Station.ino:284
          LastActiveTemp=setpoint;                 /* we save the current setpoint */
    31e8:	80 91 20 28 	lds	r24, 0x2820	; 0x802820 <setpoint>
    31ec:	90 91 21 28 	lds	r25, 0x2821	; 0x802821 <setpoint+0x1>
    31f0:	80 93 8b 28 	sts	0x288B, r24	; 0x80288b <LastActiveTemp>
    31f4:	90 93 8c 28 	sts	0x288C, r25	; 0x80288c <LastActiveTemp+0x1>
D:\Projects\190409-DIY_SOLDERING_IRON\Soldering-Station/Soldering-Station.ino:285
          if(setpoint>100){                        /* we switch to 100 degree if the temp is currently higher */
    31f8:	80 91 20 28 	lds	r24, 0x2820	; 0x802820 <setpoint>
    31fc:	90 91 21 28 	lds	r25, 0x2821	; 0x802821 <setpoint+0x1>
    3200:	85 36       	cpi	r24, 0x65	; 101
    3202:	91 05       	cpc	r25, r1
    3204:	30 f0       	brcs	.+12     	; 0x3212 <main+0x1138>
D:\Projects\190409-DIY_SOLDERING_IRON\Soldering-Station/Soldering-Station.ino:286
            setpoint = 100;
    3206:	84 e6       	ldi	r24, 0x64	; 100
    3208:	90 e0       	ldi	r25, 0x00	; 0
    320a:	80 93 20 28 	sts	0x2820, r24	; 0x802820 <setpoint>
    320e:	90 93 21 28 	sts	0x2821, r25	; 0x802821 <setpoint+0x1>
D:\Projects\190409-DIY_SOLDERING_IRON\Soldering-Station/Soldering-Station.ino:288
          }
          state= POWERSAVE_WAIT;
    3212:	26 e0       	ldi	r18, 0x06	; 6
    3214:	30 e0       	ldi	r19, 0x00	; 0
    3216:	20 93 22 28 	sts	0x2822, r18	; 0x802822 <state>
    321a:	30 93 23 28 	sts	0x2823, r19	; 0x802823 <state+0x1>
    321e:	92 ce       	rjmp	.-732    	; 0x2f44 <main+0xe6a>
D:\Projects\190409-DIY_SOLDERING_IRON\Soldering-Station/Soldering-Station.ino:297
        /*************************************************************
                              STATE POWERSAVE_WAIT       
        *************************************************************/           
        case POWERSAVE_WAIT:{
          /* If we stay for more than 5 minutes here we will completly power down */
          Station.Frontend.display_show_Temperatur(display_Temp,HeatPwr_Percent,setpoint,state,timestamp);          // power save mode after 15 min
    3220:	e0 90 9c 28 	lds	r14, 0x289C	; 0x80289c <timestamp>
    3224:	f0 90 9d 28 	lds	r15, 0x289D	; 0x80289d <timestamp+0x1>
    3228:	00 91 22 28 	lds	r16, 0x2822	; 0x802822 <state>
    322c:	10 91 23 28 	lds	r17, 0x2823	; 0x802823 <state+0x1>
    3230:	20 91 20 28 	lds	r18, 0x2820	; 0x802820 <setpoint>
    3234:	30 91 21 28 	lds	r19, 0x2821	; 0x802821 <setpoint+0x1>
    3238:	40 91 9b 28 	lds	r20, 0x289B	; 0x80289b <HeatPwr_Percent>
    323c:	60 91 99 28 	lds	r22, 0x2899	; 0x802899 <display_Temp>
    3240:	70 91 9a 28 	lds	r23, 0x289A	; 0x80289a <display_Temp+0x1>
    3244:	8a e5       	ldi	r24, 0x5A	; 90
    3246:	99 e2       	ldi	r25, 0x29	; 41
    3248:	0e 94 58 0e 	call	0x1cb0	; 0x1cb0 <FE_190409::display_show_Temperatur(unsigned int, unsigned char, unsigned int, fsmstate_t, unsigned int)>
D:\Projects\190409-DIY_SOLDERING_IRON\Soldering-Station/Soldering-Station.ino:298
          pwm_Adjust();
    324c:	0e 94 a0 08 	call	0x1140	; 0x1140 <pwm_Adjust()>
digitalRead():
    3250:	84 e0       	ldi	r24, 0x04	; 4
    3252:	0e 94 36 04 	call	0x86c	; 0x86c <digitalRead.part.3>
loop():
D:\Projects\190409-DIY_SOLDERING_IRON\Soldering-Station/Soldering-Station.ino:300
          Station.CheckLimits();
          if( ( digitalRead( ROTARY_BTN ) == LOW ) && ( btn_press_time < 1000 ))
    3256:	81 11       	cpse	r24, r1
    3258:	07 c0       	rjmp	.+14     	; 0x3268 <main+0x118e>
    325a:	80 91 92 28 	lds	r24, 0x2892	; 0x802892 <btn_press_time>
    325e:	90 91 93 28 	lds	r25, 0x2893	; 0x802893 <btn_press_time+0x1>
    3262:	88 3e       	cpi	r24, 0xE8	; 232
    3264:	93 40       	sbci	r25, 0x03	; 3
    3266:	50 f0       	brcs	.+20     	; 0x327c <main+0x11a2>
D:\Projects\190409-DIY_SOLDERING_IRON\Soldering-Station/Soldering-Station.ino:305
          {
            setpoint = LastActiveTemp;   /* we restore the temperatur */
            rotary_EncoderEnable();  /* we setup the encoder again */
            state= NOFAULT;           /* we switch to opperating state */
          } else if( true == powerSave_F ){   
    3268:	80 91 91 28 	lds	r24, 0x2891	; 0x802891 <powerSave_F>
    326c:	88 23       	and	r24, r24
    326e:	09 f4       	brne	.+2      	; 0x3272 <main+0x1198>
    3270:	69 ce       	rjmp	.-814    	; 0x2f44 <main+0xe6a>
D:\Projects\190409-DIY_SOLDERING_IRON\Soldering-Station/Soldering-Station.ino:306
              powerSave_TimerReset();    /* we reset the timer */
    3272:	0e 94 92 08 	call	0x1124	; 0x1124 <powerSave_TimerReset()>
D:\Projects\190409-DIY_SOLDERING_IRON\Soldering-Station/Soldering-Station.ino:307
              state = SLEEP;          /* and we go to sleep */
    3276:	87 e0       	ldi	r24, 0x07	; 7
    3278:	90 e0       	ldi	r25, 0x00	; 0
    327a:	2b ce       	rjmp	.-938    	; 0x2ed2 <main+0xdf8>
D:\Projects\190409-DIY_SOLDERING_IRON\Soldering-Station/Soldering-Station.ino:302
          Station.Frontend.display_show_Temperatur(display_Temp,HeatPwr_Percent,setpoint,state,timestamp);          // power save mode after 15 min
          pwm_Adjust();
          Station.CheckLimits();
          if( ( digitalRead( ROTARY_BTN ) == LOW ) && ( btn_press_time < 1000 ))
          {
            setpoint = LastActiveTemp;   /* we restore the temperatur */
    327c:	80 91 8b 28 	lds	r24, 0x288B	; 0x80288b <LastActiveTemp>
    3280:	90 91 8c 28 	lds	r25, 0x288C	; 0x80288c <LastActiveTemp+0x1>
    3284:	80 93 20 28 	sts	0x2820, r24	; 0x802820 <setpoint>
    3288:	90 93 21 28 	sts	0x2821, r25	; 0x802821 <setpoint+0x1>
rotary_EncoderEnable():
D:\Projects\190409-DIY_SOLDERING_IRON\Soldering-Station/Soldering-Station.ino:501
 Output:      None
 Description: Configure pin change interrupts for rotary encoder pin 
 *************************************************************************************************************/    
void rotary_EncoderEnable()
{   
    RotaryEncoderLocked=0;
    328c:	10 92 a0 28 	sts	0x28A0, r1	; 0x8028a0 <RotaryEncoderLocked>
    3290:	4f ce       	rjmp	.-866    	; 0x2f30 <main+0xe56>
loop():
D:\Projects\190409-DIY_SOLDERING_IRON\Soldering-Station/Soldering-Station.ino:316

       /*************************************************************
                              STATE SLEEP       
        *************************************************************/           
        case SLEEP:{
          PWM_Off();
    3292:	0e 94 ce 09 	call	0x139c	; 0x139c <PWM_Off()>
D:\Projects\190409-DIY_SOLDERING_IRON\Soldering-Station/Soldering-Station.ino:318
          Station.Frontend.display_dim(true);//display.dim(true); //Dim the display, if supported 
          display_Sleep();   //Show the sleep screen
    3296:	0e 94 60 0d 	call	0x1ac0	; 0x1ac0 <display_Sleep()>
D:\Projects\190409-DIY_SOLDERING_IRON\Soldering-Station/Soldering-Station.ino:319
          setpoint=0;           //We set the target to 0 degree, seem safe
    329a:	10 92 20 28 	sts	0x2820, r1	; 0x802820 <setpoint>
    329e:	10 92 21 28 	sts	0x2821, r1	; 0x802821 <setpoint+0x1>
D:\Projects\190409-DIY_SOLDERING_IRON\Soldering-Station/Soldering-Station.ino:320
          HeatPwr_Percent=0;
    32a2:	10 92 9b 28 	sts	0x289B, r1	; 0x80289b <HeatPwr_Percent>
D:\Projects\190409-DIY_SOLDERING_IRON\Soldering-Station/Soldering-Station.ino:321
          state = SLEEP_WAIT; 
    32a6:	88 e0       	ldi	r24, 0x08	; 8
    32a8:	90 e0       	ldi	r25, 0x00	; 0
    32aa:	13 ce       	rjmp	.-986    	; 0x2ed2 <main+0xdf8>
D:\Projects\190409-DIY_SOLDERING_IRON\Soldering-Station/Soldering-Station.ino:330
 
     /*************************************************************
                              STATE SLEEP_WAIT       
     *************************************************************/                  
        case SLEEP_WAIT:{
          display_Sleep();
    32ac:	0e 94 60 0d 	call	0x1ac0	; 0x1ac0 <display_Sleep()>
digitalRead():
    32b0:	84 e0       	ldi	r24, 0x04	; 4
    32b2:	0e 94 36 04 	call	0x86c	; 0x86c <digitalRead.part.3>
loop():
D:\Projects\190409-DIY_SOLDERING_IRON\Soldering-Station/Soldering-Station.ino:331
          if( ( digitalRead( ROTARY_BTN ) == LOW ) && ( btn_press_time < 1000 ) ) 
    32b6:	81 11       	cpse	r24, r1
    32b8:	45 ce       	rjmp	.-886    	; 0x2f44 <main+0xe6a>
    32ba:	80 91 92 28 	lds	r24, 0x2892	; 0x802892 <btn_press_time>
    32be:	90 91 93 28 	lds	r25, 0x2893	; 0x802893 <btn_press_time+0x1>
    32c2:	88 3e       	cpi	r24, 0xE8	; 232
    32c4:	93 40       	sbci	r25, 0x03	; 3
    32c6:	08 f0       	brcs	.+2      	; 0x32ca <main+0x11f0>
    32c8:	3d ce       	rjmp	.-902    	; 0x2f44 <main+0xe6a>
D:\Projects\190409-DIY_SOLDERING_IRON\Soldering-Station/Soldering-Station.ino:333
           {
              state= NOFAULT;
    32ca:	10 92 22 28 	sts	0x2822, r1	; 0x802822 <state>
    32ce:	10 92 23 28 	sts	0x2823, r1	; 0x802823 <state+0x1>
D:\Projects\190409-DIY_SOLDERING_IRON\Soldering-Station/Soldering-Station.ino:334
              setpoint = LastActiveTemp;
    32d2:	80 91 8b 28 	lds	r24, 0x288B	; 0x80288b <LastActiveTemp>
    32d6:	90 91 8c 28 	lds	r25, 0x288C	; 0x80288c <LastActiveTemp+0x1>
    32da:	80 93 20 28 	sts	0x2820, r24	; 0x802820 <setpoint>
    32de:	90 93 21 28 	sts	0x2821, r25	; 0x802821 <setpoint+0x1>
D:\Projects\190409-DIY_SOLDERING_IRON\Soldering-Station/Soldering-Station.ino:336
             
              powerSave_TimerReset();    /* we reset the timer */
    32e2:	0e 94 92 08 	call	0x1124	; 0x1124 <powerSave_TimerReset()>
rotary_EncoderEnable():
D:\Projects\190409-DIY_SOLDERING_IRON\Soldering-Station/Soldering-Station.ino:501
 Output:      None
 Description: Configure pin change interrupts for rotary encoder pin 
 *************************************************************************************************************/    
void rotary_EncoderEnable()
{   
    RotaryEncoderLocked=0;
    32e6:	10 92 a0 28 	sts	0x28A0, r1	; 0x8028a0 <RotaryEncoderLocked>
    32ea:	2c ce       	rjmp	.-936    	; 0x2f44 <main+0xe6a>

000032ec <strncmp_P>:
strncmp_P():
    32ec:	fb 01       	movw	r30, r22
    32ee:	dc 01       	movw	r26, r24
    32f0:	41 50       	subi	r20, 0x01	; 1
    32f2:	50 40       	sbci	r21, 0x00	; 0
    32f4:	30 f0       	brcs	.+12     	; 0x3302 <strncmp_P+0x16>
    32f6:	8d 91       	ld	r24, X+
    32f8:	05 90       	lpm	r0, Z+
    32fa:	80 19       	sub	r24, r0
    32fc:	19 f4       	brne	.+6      	; 0x3304 <strncmp_P+0x18>
    32fe:	00 20       	and	r0, r0
    3300:	b9 f7       	brne	.-18     	; 0x32f0 <strncmp_P+0x4>
    3302:	88 1b       	sub	r24, r24
    3304:	99 0b       	sbc	r25, r25
    3306:	08 95       	ret

00003308 <__fixsfsi>:
__fixsfsi():
    3308:	0e 94 8b 19 	call	0x3316	; 0x3316 <__fixunssfsi>
    330c:	68 94       	set
    330e:	b1 11       	cpse	r27, r1
    3310:	0c 94 1a 1a 	jmp	0x3434	; 0x3434 <__fp_szero>
    3314:	08 95       	ret

00003316 <__fixunssfsi>:
__fixunssfsi():
    3316:	0e 94 ff 19 	call	0x33fe	; 0x33fe <__fp_splitA>
    331a:	88 f0       	brcs	.+34     	; 0x333e <__fixunssfsi+0x28>
    331c:	9f 57       	subi	r25, 0x7F	; 127
    331e:	98 f0       	brcs	.+38     	; 0x3346 <__fixunssfsi+0x30>
    3320:	b9 2f       	mov	r27, r25
    3322:	99 27       	eor	r25, r25
    3324:	b7 51       	subi	r27, 0x17	; 23
    3326:	b0 f0       	brcs	.+44     	; 0x3354 <__fixunssfsi+0x3e>
    3328:	e1 f0       	breq	.+56     	; 0x3362 <__fixunssfsi+0x4c>
    332a:	66 0f       	add	r22, r22
    332c:	77 1f       	adc	r23, r23
    332e:	88 1f       	adc	r24, r24
    3330:	99 1f       	adc	r25, r25
    3332:	1a f0       	brmi	.+6      	; 0x333a <__fixunssfsi+0x24>
    3334:	ba 95       	dec	r27
    3336:	c9 f7       	brne	.-14     	; 0x332a <__fixunssfsi+0x14>
    3338:	14 c0       	rjmp	.+40     	; 0x3362 <__fixunssfsi+0x4c>
    333a:	b1 30       	cpi	r27, 0x01	; 1
    333c:	91 f0       	breq	.+36     	; 0x3362 <__fixunssfsi+0x4c>
    333e:	0e 94 19 1a 	call	0x3432	; 0x3432 <__fp_zero>
    3342:	b1 e0       	ldi	r27, 0x01	; 1
    3344:	08 95       	ret
    3346:	0c 94 19 1a 	jmp	0x3432	; 0x3432 <__fp_zero>
    334a:	67 2f       	mov	r22, r23
    334c:	78 2f       	mov	r23, r24
    334e:	88 27       	eor	r24, r24
    3350:	b8 5f       	subi	r27, 0xF8	; 248
    3352:	39 f0       	breq	.+14     	; 0x3362 <__fixunssfsi+0x4c>
    3354:	b9 3f       	cpi	r27, 0xF9	; 249
    3356:	cc f3       	brlt	.-14     	; 0x334a <__fixunssfsi+0x34>
    3358:	86 95       	lsr	r24
    335a:	77 95       	ror	r23
    335c:	67 95       	ror	r22
    335e:	b3 95       	inc	r27
    3360:	d9 f7       	brne	.-10     	; 0x3358 <__fixunssfsi+0x42>
    3362:	3e f4       	brtc	.+14     	; 0x3372 <__fixunssfsi+0x5c>
    3364:	90 95       	com	r25
    3366:	80 95       	com	r24
    3368:	70 95       	com	r23
    336a:	61 95       	neg	r22
    336c:	7f 4f       	sbci	r23, 0xFF	; 255
    336e:	8f 4f       	sbci	r24, 0xFF	; 255
    3370:	9f 4f       	sbci	r25, 0xFF	; 255
    3372:	08 95       	ret

00003374 <__floatunsisf>:
__floatunsisf():
    3374:	e8 94       	clt
    3376:	09 c0       	rjmp	.+18     	; 0x338a <__floatsisf+0x12>

00003378 <__floatsisf>:
    3378:	97 fb       	bst	r25, 7
    337a:	3e f4       	brtc	.+14     	; 0x338a <__floatsisf+0x12>
    337c:	90 95       	com	r25
    337e:	80 95       	com	r24
    3380:	70 95       	com	r23
    3382:	61 95       	neg	r22
    3384:	7f 4f       	sbci	r23, 0xFF	; 255
    3386:	8f 4f       	sbci	r24, 0xFF	; 255
    3388:	9f 4f       	sbci	r25, 0xFF	; 255
    338a:	99 23       	and	r25, r25
    338c:	a9 f0       	breq	.+42     	; 0x33b8 <__floatsisf+0x40>
    338e:	f9 2f       	mov	r31, r25
    3390:	96 e9       	ldi	r25, 0x96	; 150
    3392:	bb 27       	eor	r27, r27
    3394:	93 95       	inc	r25
    3396:	f6 95       	lsr	r31
    3398:	87 95       	ror	r24
    339a:	77 95       	ror	r23
    339c:	67 95       	ror	r22
    339e:	b7 95       	ror	r27
    33a0:	f1 11       	cpse	r31, r1
    33a2:	f8 cf       	rjmp	.-16     	; 0x3394 <__floatsisf+0x1c>
    33a4:	fa f4       	brpl	.+62     	; 0x33e4 <__floatsisf+0x6c>
    33a6:	bb 0f       	add	r27, r27
    33a8:	11 f4       	brne	.+4      	; 0x33ae <__floatsisf+0x36>
    33aa:	60 ff       	sbrs	r22, 0
    33ac:	1b c0       	rjmp	.+54     	; 0x33e4 <__floatsisf+0x6c>
    33ae:	6f 5f       	subi	r22, 0xFF	; 255
    33b0:	7f 4f       	sbci	r23, 0xFF	; 255
    33b2:	8f 4f       	sbci	r24, 0xFF	; 255
    33b4:	9f 4f       	sbci	r25, 0xFF	; 255
    33b6:	16 c0       	rjmp	.+44     	; 0x33e4 <__floatsisf+0x6c>
    33b8:	88 23       	and	r24, r24
    33ba:	11 f0       	breq	.+4      	; 0x33c0 <__floatsisf+0x48>
    33bc:	96 e9       	ldi	r25, 0x96	; 150
    33be:	11 c0       	rjmp	.+34     	; 0x33e2 <__floatsisf+0x6a>
    33c0:	77 23       	and	r23, r23
    33c2:	21 f0       	breq	.+8      	; 0x33cc <__floatsisf+0x54>
    33c4:	9e e8       	ldi	r25, 0x8E	; 142
    33c6:	87 2f       	mov	r24, r23
    33c8:	76 2f       	mov	r23, r22
    33ca:	05 c0       	rjmp	.+10     	; 0x33d6 <__floatsisf+0x5e>
    33cc:	66 23       	and	r22, r22
    33ce:	71 f0       	breq	.+28     	; 0x33ec <__floatsisf+0x74>
    33d0:	96 e8       	ldi	r25, 0x86	; 134
    33d2:	86 2f       	mov	r24, r22
    33d4:	70 e0       	ldi	r23, 0x00	; 0
    33d6:	60 e0       	ldi	r22, 0x00	; 0
    33d8:	2a f0       	brmi	.+10     	; 0x33e4 <__floatsisf+0x6c>
    33da:	9a 95       	dec	r25
    33dc:	66 0f       	add	r22, r22
    33de:	77 1f       	adc	r23, r23
    33e0:	88 1f       	adc	r24, r24
    33e2:	da f7       	brpl	.-10     	; 0x33da <__floatsisf+0x62>
    33e4:	88 0f       	add	r24, r24
    33e6:	96 95       	lsr	r25
    33e8:	87 95       	ror	r24
    33ea:	97 f9       	bld	r25, 7
    33ec:	08 95       	ret

000033ee <__fp_split3>:
__fp_split3():
    33ee:	57 fd       	sbrc	r21, 7
    33f0:	90 58       	subi	r25, 0x80	; 128
    33f2:	44 0f       	add	r20, r20
    33f4:	55 1f       	adc	r21, r21
    33f6:	59 f0       	breq	.+22     	; 0x340e <__fp_splitA+0x10>
    33f8:	5f 3f       	cpi	r21, 0xFF	; 255
    33fa:	71 f0       	breq	.+28     	; 0x3418 <__fp_splitA+0x1a>
    33fc:	47 95       	ror	r20

000033fe <__fp_splitA>:
    33fe:	88 0f       	add	r24, r24
    3400:	97 fb       	bst	r25, 7
    3402:	99 1f       	adc	r25, r25
    3404:	61 f0       	breq	.+24     	; 0x341e <__fp_splitA+0x20>
    3406:	9f 3f       	cpi	r25, 0xFF	; 255
    3408:	79 f0       	breq	.+30     	; 0x3428 <__fp_splitA+0x2a>
    340a:	87 95       	ror	r24
    340c:	08 95       	ret
    340e:	12 16       	cp	r1, r18
    3410:	13 06       	cpc	r1, r19
    3412:	14 06       	cpc	r1, r20
    3414:	55 1f       	adc	r21, r21
    3416:	f2 cf       	rjmp	.-28     	; 0x33fc <__fp_split3+0xe>
    3418:	46 95       	lsr	r20
    341a:	f1 df       	rcall	.-30     	; 0x33fe <__fp_splitA>
    341c:	08 c0       	rjmp	.+16     	; 0x342e <__fp_splitA+0x30>
    341e:	16 16       	cp	r1, r22
    3420:	17 06       	cpc	r1, r23
    3422:	18 06       	cpc	r1, r24
    3424:	99 1f       	adc	r25, r25
    3426:	f1 cf       	rjmp	.-30     	; 0x340a <__fp_splitA+0xc>
    3428:	86 95       	lsr	r24
    342a:	71 05       	cpc	r23, r1
    342c:	61 05       	cpc	r22, r1
    342e:	08 94       	sec
    3430:	08 95       	ret

00003432 <__fp_zero>:
__fp_zero():
    3432:	e8 94       	clt

00003434 <__fp_szero>:
    3434:	bb 27       	eor	r27, r27
    3436:	66 27       	eor	r22, r22
    3438:	77 27       	eor	r23, r23
    343a:	cb 01       	movw	r24, r22
    343c:	97 f9       	bld	r25, 7
    343e:	08 95       	ret

00003440 <__mulsf3>:
__mulsf3():
    3440:	0e 94 33 1a 	call	0x3466	; 0x3466 <__mulsf3x>
    3444:	0c 94 f1 1a 	jmp	0x35e2	; 0x35e2 <__fp_round>
    3448:	0e 94 e3 1a 	call	0x35c6	; 0x35c6 <__fp_pscA>
    344c:	38 f0       	brcs	.+14     	; 0x345c <__mulsf3+0x1c>
    344e:	0e 94 ea 1a 	call	0x35d4	; 0x35d4 <__fp_pscB>
    3452:	20 f0       	brcs	.+8      	; 0x345c <__mulsf3+0x1c>
    3454:	95 23       	and	r25, r21
    3456:	11 f0       	breq	.+4      	; 0x345c <__mulsf3+0x1c>
    3458:	0c 94 b1 1a 	jmp	0x3562	; 0x3562 <__fp_inf>
    345c:	0c 94 e0 1a 	jmp	0x35c0	; 0x35c0 <__fp_nan>
    3460:	11 24       	eor	r1, r1
    3462:	0c 94 1a 1a 	jmp	0x3434	; 0x3434 <__fp_szero>

00003466 <__mulsf3x>:
__mulsf3x():
    3466:	0e 94 f7 19 	call	0x33ee	; 0x33ee <__fp_split3>
    346a:	70 f3       	brcs	.-36     	; 0x3448 <__mulsf3+0x8>

0000346c <__mulsf3_pse>:
    346c:	95 9f       	mul	r25, r21
    346e:	c1 f3       	breq	.-16     	; 0x3460 <__mulsf3+0x20>
    3470:	95 0f       	add	r25, r21
    3472:	50 e0       	ldi	r21, 0x00	; 0
    3474:	55 1f       	adc	r21, r21
    3476:	62 9f       	mul	r22, r18
    3478:	f0 01       	movw	r30, r0
    347a:	72 9f       	mul	r23, r18
    347c:	bb 27       	eor	r27, r27
    347e:	f0 0d       	add	r31, r0
    3480:	b1 1d       	adc	r27, r1
    3482:	63 9f       	mul	r22, r19
    3484:	aa 27       	eor	r26, r26
    3486:	f0 0d       	add	r31, r0
    3488:	b1 1d       	adc	r27, r1
    348a:	aa 1f       	adc	r26, r26
    348c:	64 9f       	mul	r22, r20
    348e:	66 27       	eor	r22, r22
    3490:	b0 0d       	add	r27, r0
    3492:	a1 1d       	adc	r26, r1
    3494:	66 1f       	adc	r22, r22
    3496:	82 9f       	mul	r24, r18
    3498:	22 27       	eor	r18, r18
    349a:	b0 0d       	add	r27, r0
    349c:	a1 1d       	adc	r26, r1
    349e:	62 1f       	adc	r22, r18
    34a0:	73 9f       	mul	r23, r19
    34a2:	b0 0d       	add	r27, r0
    34a4:	a1 1d       	adc	r26, r1
    34a6:	62 1f       	adc	r22, r18
    34a8:	83 9f       	mul	r24, r19
    34aa:	a0 0d       	add	r26, r0
    34ac:	61 1d       	adc	r22, r1
    34ae:	22 1f       	adc	r18, r18
    34b0:	74 9f       	mul	r23, r20
    34b2:	33 27       	eor	r19, r19
    34b4:	a0 0d       	add	r26, r0
    34b6:	61 1d       	adc	r22, r1
    34b8:	23 1f       	adc	r18, r19
    34ba:	84 9f       	mul	r24, r20
    34bc:	60 0d       	add	r22, r0
    34be:	21 1d       	adc	r18, r1
    34c0:	82 2f       	mov	r24, r18
    34c2:	76 2f       	mov	r23, r22
    34c4:	6a 2f       	mov	r22, r26
    34c6:	11 24       	eor	r1, r1
    34c8:	9f 57       	subi	r25, 0x7F	; 127
    34ca:	50 40       	sbci	r21, 0x00	; 0
    34cc:	9a f0       	brmi	.+38     	; 0x34f4 <__mulsf3_pse+0x88>
    34ce:	f1 f0       	breq	.+60     	; 0x350c <__mulsf3_pse+0xa0>
    34d0:	88 23       	and	r24, r24
    34d2:	4a f0       	brmi	.+18     	; 0x34e6 <__mulsf3_pse+0x7a>
    34d4:	ee 0f       	add	r30, r30
    34d6:	ff 1f       	adc	r31, r31
    34d8:	bb 1f       	adc	r27, r27
    34da:	66 1f       	adc	r22, r22
    34dc:	77 1f       	adc	r23, r23
    34de:	88 1f       	adc	r24, r24
    34e0:	91 50       	subi	r25, 0x01	; 1
    34e2:	50 40       	sbci	r21, 0x00	; 0
    34e4:	a9 f7       	brne	.-22     	; 0x34d0 <__mulsf3_pse+0x64>
    34e6:	9e 3f       	cpi	r25, 0xFE	; 254
    34e8:	51 05       	cpc	r21, r1
    34ea:	80 f0       	brcs	.+32     	; 0x350c <__mulsf3_pse+0xa0>
    34ec:	0c 94 b1 1a 	jmp	0x3562	; 0x3562 <__fp_inf>
    34f0:	0c 94 1a 1a 	jmp	0x3434	; 0x3434 <__fp_szero>
    34f4:	5f 3f       	cpi	r21, 0xFF	; 255
    34f6:	e4 f3       	brlt	.-8      	; 0x34f0 <__mulsf3_pse+0x84>
    34f8:	98 3e       	cpi	r25, 0xE8	; 232
    34fa:	d4 f3       	brlt	.-12     	; 0x34f0 <__mulsf3_pse+0x84>
    34fc:	86 95       	lsr	r24
    34fe:	77 95       	ror	r23
    3500:	67 95       	ror	r22
    3502:	b7 95       	ror	r27
    3504:	f7 95       	ror	r31
    3506:	e7 95       	ror	r30
    3508:	9f 5f       	subi	r25, 0xFF	; 255
    350a:	c1 f7       	brne	.-16     	; 0x34fc <__mulsf3_pse+0x90>
    350c:	fe 2b       	or	r31, r30
    350e:	88 0f       	add	r24, r24
    3510:	91 1d       	adc	r25, r1
    3512:	96 95       	lsr	r25
    3514:	87 95       	ror	r24
    3516:	97 f9       	bld	r25, 7
    3518:	08 95       	ret

0000351a <round>:
    351a:	0e 94 ff 19 	call	0x33fe	; 0x33fe <__fp_splitA>
    351e:	e8 f0       	brcs	.+58     	; 0x355a <round+0x40>
    3520:	9e 37       	cpi	r25, 0x7E	; 126
    3522:	e8 f0       	brcs	.+58     	; 0x355e <round+0x44>
    3524:	96 39       	cpi	r25, 0x96	; 150
    3526:	b8 f4       	brcc	.+46     	; 0x3556 <round+0x3c>
    3528:	9e 38       	cpi	r25, 0x8E	; 142
    352a:	48 f4       	brcc	.+18     	; 0x353e <round+0x24>
    352c:	67 2f       	mov	r22, r23
    352e:	78 2f       	mov	r23, r24
    3530:	88 27       	eor	r24, r24
    3532:	98 5f       	subi	r25, 0xF8	; 248
    3534:	f9 cf       	rjmp	.-14     	; 0x3528 <round+0xe>
    3536:	86 95       	lsr	r24
round():
    3538:	77 95       	ror	r23
    353a:	67 95       	ror	r22
    353c:	93 95       	inc	r25
    353e:	95 39       	cpi	r25, 0x95	; 149
    3540:	d0 f3       	brcs	.-12     	; 0x3536 <round+0x1c>
    3542:	b6 2f       	mov	r27, r22
    3544:	b1 70       	andi	r27, 0x01	; 1
    3546:	6b 0f       	add	r22, r27
    3548:	71 1d       	adc	r23, r1
    354a:	81 1d       	adc	r24, r1
    354c:	20 f4       	brcc	.+8      	; 0x3556 <round+0x3c>
    354e:	87 95       	ror	r24
    3550:	77 95       	ror	r23
    3552:	67 95       	ror	r22
    3554:	93 95       	inc	r25
    3556:	0c 94 b7 1a 	jmp	0x356e	; 0x356e <__fp_mintl>
    355a:	0c 94 d2 1a 	jmp	0x35a4	; 0x35a4 <__fp_mpack>
    355e:	0c 94 1a 1a 	jmp	0x3434	; 0x3434 <__fp_szero>

00003562 <__fp_inf>:
__fp_inf():
    3562:	97 f9       	bld	r25, 7
    3564:	9f 67       	ori	r25, 0x7F	; 127
    3566:	80 e8       	ldi	r24, 0x80	; 128
    3568:	70 e0       	ldi	r23, 0x00	; 0
    356a:	60 e0       	ldi	r22, 0x00	; 0
    356c:	08 95       	ret

0000356e <__fp_mintl>:
__fp_mintl():
    356e:	88 23       	and	r24, r24
    3570:	71 f4       	brne	.+28     	; 0x358e <__fp_mintl+0x20>
    3572:	77 23       	and	r23, r23
    3574:	21 f0       	breq	.+8      	; 0x357e <__fp_mintl+0x10>
    3576:	98 50       	subi	r25, 0x08	; 8
    3578:	87 2b       	or	r24, r23
    357a:	76 2f       	mov	r23, r22
    357c:	07 c0       	rjmp	.+14     	; 0x358c <__fp_mintl+0x1e>
    357e:	66 23       	and	r22, r22
    3580:	11 f4       	brne	.+4      	; 0x3586 <__fp_mintl+0x18>
    3582:	99 27       	eor	r25, r25
    3584:	0d c0       	rjmp	.+26     	; 0x35a0 <__fp_mintl+0x32>
    3586:	90 51       	subi	r25, 0x10	; 16
    3588:	86 2b       	or	r24, r22
    358a:	70 e0       	ldi	r23, 0x00	; 0
    358c:	60 e0       	ldi	r22, 0x00	; 0
    358e:	2a f0       	brmi	.+10     	; 0x359a <__fp_mintl+0x2c>
    3590:	9a 95       	dec	r25
    3592:	66 0f       	add	r22, r22
    3594:	77 1f       	adc	r23, r23
    3596:	88 1f       	adc	r24, r24
    3598:	da f7       	brpl	.-10     	; 0x3590 <__fp_mintl+0x22>
    359a:	88 0f       	add	r24, r24
    359c:	96 95       	lsr	r25
    359e:	87 95       	ror	r24
    35a0:	97 f9       	bld	r25, 7
    35a2:	08 95       	ret

000035a4 <__fp_mpack>:
__fp_mpack():
    35a4:	9f 3f       	cpi	r25, 0xFF	; 255
    35a6:	31 f0       	breq	.+12     	; 0x35b4 <__fp_mpack_finite+0xc>

000035a8 <__fp_mpack_finite>:
    35a8:	91 50       	subi	r25, 0x01	; 1
    35aa:	20 f4       	brcc	.+8      	; 0x35b4 <__fp_mpack_finite+0xc>
    35ac:	87 95       	ror	r24
    35ae:	77 95       	ror	r23
    35b0:	67 95       	ror	r22
    35b2:	b7 95       	ror	r27
    35b4:	88 0f       	add	r24, r24
    35b6:	91 1d       	adc	r25, r1
    35b8:	96 95       	lsr	r25
    35ba:	87 95       	ror	r24
    35bc:	97 f9       	bld	r25, 7
    35be:	08 95       	ret

000035c0 <__fp_nan>:
__fp_nan():
    35c0:	9f ef       	ldi	r25, 0xFF	; 255
    35c2:	80 ec       	ldi	r24, 0xC0	; 192
    35c4:	08 95       	ret

000035c6 <__fp_pscA>:
__fp_pscA():
    35c6:	00 24       	eor	r0, r0
    35c8:	0a 94       	dec	r0
    35ca:	16 16       	cp	r1, r22
    35cc:	17 06       	cpc	r1, r23
    35ce:	18 06       	cpc	r1, r24
    35d0:	09 06       	cpc	r0, r25
    35d2:	08 95       	ret

000035d4 <__fp_pscB>:
__fp_pscB():
    35d4:	00 24       	eor	r0, r0
    35d6:	0a 94       	dec	r0
    35d8:	12 16       	cp	r1, r18
    35da:	13 06       	cpc	r1, r19
    35dc:	14 06       	cpc	r1, r20
    35de:	05 06       	cpc	r0, r21
    35e0:	08 95       	ret

000035e2 <__fp_round>:
__fp_round():
    35e2:	09 2e       	mov	r0, r25
    35e4:	03 94       	inc	r0
    35e6:	00 0c       	add	r0, r0
    35e8:	11 f4       	brne	.+4      	; 0x35ee <__fp_round+0xc>
    35ea:	88 23       	and	r24, r24
    35ec:	52 f0       	brmi	.+20     	; 0x3602 <__fp_round+0x20>
    35ee:	bb 0f       	add	r27, r27
    35f0:	40 f4       	brcc	.+16     	; 0x3602 <__fp_round+0x20>
    35f2:	bf 2b       	or	r27, r31
    35f4:	11 f4       	brne	.+4      	; 0x35fa <__fp_round+0x18>
    35f6:	60 ff       	sbrs	r22, 0
    35f8:	04 c0       	rjmp	.+8      	; 0x3602 <__fp_round+0x20>
    35fa:	6f 5f       	subi	r22, 0xFF	; 255
    35fc:	7f 4f       	sbci	r23, 0xFF	; 255
    35fe:	8f 4f       	sbci	r24, 0xFF	; 255
    3600:	9f 4f       	sbci	r25, 0xFF	; 255
    3602:	08 95       	ret

00003604 <__udivmodqi4>:
__udivmodqi4():
/home/jenkins-mingw32/workspace/avr-gcc-staging/label/Ubuntu14.04x64-mingw32/gcc-build/avr/avrxmega3/libgcc/../../../../gcc/libgcc/config/avr/lib1funcs.S:1346
    3604:	99 1b       	sub	r25, r25
/home/jenkins-mingw32/workspace/avr-gcc-staging/label/Ubuntu14.04x64-mingw32/gcc-build/avr/avrxmega3/libgcc/../../../../gcc/libgcc/config/avr/lib1funcs.S:1347
    3606:	79 e0       	ldi	r23, 0x09	; 9
/home/jenkins-mingw32/workspace/avr-gcc-staging/label/Ubuntu14.04x64-mingw32/gcc-build/avr/avrxmega3/libgcc/../../../../gcc/libgcc/config/avr/lib1funcs.S:1348
    3608:	04 c0       	rjmp	.+8      	; 0x3612 <__udivmodqi4_ep>

0000360a <__udivmodqi4_loop>:
/home/jenkins-mingw32/workspace/avr-gcc-staging/label/Ubuntu14.04x64-mingw32/gcc-build/avr/avrxmega3/libgcc/../../../../gcc/libgcc/config/avr/lib1funcs.S:1350
    360a:	99 1f       	adc	r25, r25
/home/jenkins-mingw32/workspace/avr-gcc-staging/label/Ubuntu14.04x64-mingw32/gcc-build/avr/avrxmega3/libgcc/../../../../gcc/libgcc/config/avr/lib1funcs.S:1351
    360c:	96 17       	cp	r25, r22
/home/jenkins-mingw32/workspace/avr-gcc-staging/label/Ubuntu14.04x64-mingw32/gcc-build/avr/avrxmega3/libgcc/../../../../gcc/libgcc/config/avr/lib1funcs.S:1352
    360e:	08 f0       	brcs	.+2      	; 0x3612 <__udivmodqi4_ep>
/home/jenkins-mingw32/workspace/avr-gcc-staging/label/Ubuntu14.04x64-mingw32/gcc-build/avr/avrxmega3/libgcc/../../../../gcc/libgcc/config/avr/lib1funcs.S:1353
    3610:	96 1b       	sub	r25, r22

00003612 <__udivmodqi4_ep>:
/home/jenkins-mingw32/workspace/avr-gcc-staging/label/Ubuntu14.04x64-mingw32/gcc-build/avr/avrxmega3/libgcc/../../../../gcc/libgcc/config/avr/lib1funcs.S:1355
    3612:	88 1f       	adc	r24, r24
/home/jenkins-mingw32/workspace/avr-gcc-staging/label/Ubuntu14.04x64-mingw32/gcc-build/avr/avrxmega3/libgcc/../../../../gcc/libgcc/config/avr/lib1funcs.S:1356
    3614:	7a 95       	dec	r23
/home/jenkins-mingw32/workspace/avr-gcc-staging/label/Ubuntu14.04x64-mingw32/gcc-build/avr/avrxmega3/libgcc/../../../../gcc/libgcc/config/avr/lib1funcs.S:1357
    3616:	c9 f7       	brne	.-14     	; 0x360a <__udivmodqi4_loop>
/home/jenkins-mingw32/workspace/avr-gcc-staging/label/Ubuntu14.04x64-mingw32/gcc-build/avr/avrxmega3/libgcc/../../../../gcc/libgcc/config/avr/lib1funcs.S:1358
    3618:	80 95       	com	r24
/home/jenkins-mingw32/workspace/avr-gcc-staging/label/Ubuntu14.04x64-mingw32/gcc-build/avr/avrxmega3/libgcc/../../../../gcc/libgcc/config/avr/lib1funcs.S:1360
    361a:	08 95       	ret

0000361c <__divmodhi4>:
__divmodhi4():
/home/jenkins-mingw32/workspace/avr-gcc-staging/label/Ubuntu14.04x64-mingw32/gcc-build/avr/avrxmega3/libgcc/../../../../gcc/libgcc/config/avr/lib1funcs.S:1440
    361c:	97 fb       	bst	r25, 7
/home/jenkins-mingw32/workspace/avr-gcc-staging/label/Ubuntu14.04x64-mingw32/gcc-build/avr/avrxmega3/libgcc/../../../../gcc/libgcc/config/avr/lib1funcs.S:1441
    361e:	07 2e       	mov	r0, r23
/home/jenkins-mingw32/workspace/avr-gcc-staging/label/Ubuntu14.04x64-mingw32/gcc-build/avr/avrxmega3/libgcc/../../../../gcc/libgcc/config/avr/lib1funcs.S:1442
    3620:	16 f4       	brtc	.+4      	; 0x3626 <__divmodhi4+0xa>
/home/jenkins-mingw32/workspace/avr-gcc-staging/label/Ubuntu14.04x64-mingw32/gcc-build/avr/avrxmega3/libgcc/../../../../gcc/libgcc/config/avr/lib1funcs.S:1443
    3622:	00 94       	com	r0
/home/jenkins-mingw32/workspace/avr-gcc-staging/label/Ubuntu14.04x64-mingw32/gcc-build/avr/avrxmega3/libgcc/../../../../gcc/libgcc/config/avr/lib1funcs.S:1444
    3624:	07 d0       	rcall	.+14     	; 0x3634 <__divmodhi4_neg1>
/home/jenkins-mingw32/workspace/avr-gcc-staging/label/Ubuntu14.04x64-mingw32/gcc-build/avr/avrxmega3/libgcc/../../../../gcc/libgcc/config/avr/lib1funcs.S:1446
    3626:	77 fd       	sbrc	r23, 7
/home/jenkins-mingw32/workspace/avr-gcc-staging/label/Ubuntu14.04x64-mingw32/gcc-build/avr/avrxmega3/libgcc/../../../../gcc/libgcc/config/avr/lib1funcs.S:1447
    3628:	09 d0       	rcall	.+18     	; 0x363c <__divmodhi4_neg2>
/home/jenkins-mingw32/workspace/avr-gcc-staging/label/Ubuntu14.04x64-mingw32/gcc-build/avr/avrxmega3/libgcc/../../../../gcc/libgcc/config/avr/lib1funcs.S:1448
    362a:	0e 94 92 1b 	call	0x3724	; 0x3724 <__udivmodhi4>
/home/jenkins-mingw32/workspace/avr-gcc-staging/label/Ubuntu14.04x64-mingw32/gcc-build/avr/avrxmega3/libgcc/../../../../gcc/libgcc/config/avr/lib1funcs.S:1449
    362e:	07 fc       	sbrc	r0, 7
/home/jenkins-mingw32/workspace/avr-gcc-staging/label/Ubuntu14.04x64-mingw32/gcc-build/avr/avrxmega3/libgcc/../../../../gcc/libgcc/config/avr/lib1funcs.S:1450
    3630:	05 d0       	rcall	.+10     	; 0x363c <__divmodhi4_neg2>
/home/jenkins-mingw32/workspace/avr-gcc-staging/label/Ubuntu14.04x64-mingw32/gcc-build/avr/avrxmega3/libgcc/../../../../gcc/libgcc/config/avr/lib1funcs.S:1451
    3632:	3e f4       	brtc	.+14     	; 0x3642 <__divmodhi4_exit>

00003634 <__divmodhi4_neg1>:
/home/jenkins-mingw32/workspace/avr-gcc-staging/label/Ubuntu14.04x64-mingw32/gcc-build/avr/avrxmega3/libgcc/../../../../gcc/libgcc/config/avr/lib1funcs.S:1454
    3634:	90 95       	com	r25
/home/jenkins-mingw32/workspace/avr-gcc-staging/label/Ubuntu14.04x64-mingw32/gcc-build/avr/avrxmega3/libgcc/../../../../gcc/libgcc/config/avr/lib1funcs.S:1455
    3636:	81 95       	neg	r24
/home/jenkins-mingw32/workspace/avr-gcc-staging/label/Ubuntu14.04x64-mingw32/gcc-build/avr/avrxmega3/libgcc/../../../../gcc/libgcc/config/avr/lib1funcs.S:1456
    3638:	9f 4f       	sbci	r25, 0xFF	; 255
/home/jenkins-mingw32/workspace/avr-gcc-staging/label/Ubuntu14.04x64-mingw32/gcc-build/avr/avrxmega3/libgcc/../../../../gcc/libgcc/config/avr/lib1funcs.S:1457
    363a:	08 95       	ret

0000363c <__divmodhi4_neg2>:
/home/jenkins-mingw32/workspace/avr-gcc-staging/label/Ubuntu14.04x64-mingw32/gcc-build/avr/avrxmega3/libgcc/../../../../gcc/libgcc/config/avr/lib1funcs.S:1460
    363c:	70 95       	com	r23
/home/jenkins-mingw32/workspace/avr-gcc-staging/label/Ubuntu14.04x64-mingw32/gcc-build/avr/avrxmega3/libgcc/../../../../gcc/libgcc/config/avr/lib1funcs.S:1461
    363e:	61 95       	neg	r22
/home/jenkins-mingw32/workspace/avr-gcc-staging/label/Ubuntu14.04x64-mingw32/gcc-build/avr/avrxmega3/libgcc/../../../../gcc/libgcc/config/avr/lib1funcs.S:1462
    3640:	7f 4f       	sbci	r23, 0xFF	; 255

00003642 <__divmodhi4_exit>:
/home/jenkins-mingw32/workspace/avr-gcc-staging/label/Ubuntu14.04x64-mingw32/gcc-build/avr/avrxmega3/libgcc/../../../../gcc/libgcc/config/avr/lib1funcs.S:1464
    3642:	08 95       	ret

00003644 <__udivmodsi4>:
__udivmodsi4():
/home/jenkins-mingw32/workspace/avr-gcc-staging/label/Ubuntu14.04x64-mingw32/gcc-build/avr/avrxmega3/libgcc/../../../../gcc/libgcc/config/avr/lib1funcs.S:1638
    3644:	a1 e2       	ldi	r26, 0x21	; 33
/home/jenkins-mingw32/workspace/avr-gcc-staging/label/Ubuntu14.04x64-mingw32/gcc-build/avr/avrxmega3/libgcc/../../../../gcc/libgcc/config/avr/lib1funcs.S:1639
    3646:	1a 2e       	mov	r1, r26
/home/jenkins-mingw32/workspace/avr-gcc-staging/label/Ubuntu14.04x64-mingw32/gcc-build/avr/avrxmega3/libgcc/../../../../gcc/libgcc/config/avr/lib1funcs.S:1640
    3648:	aa 1b       	sub	r26, r26
/home/jenkins-mingw32/workspace/avr-gcc-staging/label/Ubuntu14.04x64-mingw32/gcc-build/avr/avrxmega3/libgcc/../../../../gcc/libgcc/config/avr/lib1funcs.S:1641
    364a:	bb 1b       	sub	r27, r27
/home/jenkins-mingw32/workspace/avr-gcc-staging/label/Ubuntu14.04x64-mingw32/gcc-build/avr/avrxmega3/libgcc/../../../../gcc/libgcc/config/avr/lib1funcs.S:1642
    364c:	fd 01       	movw	r30, r26
/home/jenkins-mingw32/workspace/avr-gcc-staging/label/Ubuntu14.04x64-mingw32/gcc-build/avr/avrxmega3/libgcc/../../../../gcc/libgcc/config/avr/lib1funcs.S:1644
    364e:	0d c0       	rjmp	.+26     	; 0x366a <__udivmodsi4_ep>

00003650 <__udivmodsi4_loop>:
/home/jenkins-mingw32/workspace/avr-gcc-staging/label/Ubuntu14.04x64-mingw32/gcc-build/avr/avrxmega3/libgcc/../../../../gcc/libgcc/config/avr/lib1funcs.S:1646
    3650:	aa 1f       	adc	r26, r26
/home/jenkins-mingw32/workspace/avr-gcc-staging/label/Ubuntu14.04x64-mingw32/gcc-build/avr/avrxmega3/libgcc/../../../../gcc/libgcc/config/avr/lib1funcs.S:1647
    3652:	bb 1f       	adc	r27, r27
/home/jenkins-mingw32/workspace/avr-gcc-staging/label/Ubuntu14.04x64-mingw32/gcc-build/avr/avrxmega3/libgcc/../../../../gcc/libgcc/config/avr/lib1funcs.S:1648
    3654:	ee 1f       	adc	r30, r30
/home/jenkins-mingw32/workspace/avr-gcc-staging/label/Ubuntu14.04x64-mingw32/gcc-build/avr/avrxmega3/libgcc/../../../../gcc/libgcc/config/avr/lib1funcs.S:1649
    3656:	ff 1f       	adc	r31, r31
/home/jenkins-mingw32/workspace/avr-gcc-staging/label/Ubuntu14.04x64-mingw32/gcc-build/avr/avrxmega3/libgcc/../../../../gcc/libgcc/config/avr/lib1funcs.S:1650
    3658:	a2 17       	cp	r26, r18
/home/jenkins-mingw32/workspace/avr-gcc-staging/label/Ubuntu14.04x64-mingw32/gcc-build/avr/avrxmega3/libgcc/../../../../gcc/libgcc/config/avr/lib1funcs.S:1651
    365a:	b3 07       	cpc	r27, r19
/home/jenkins-mingw32/workspace/avr-gcc-staging/label/Ubuntu14.04x64-mingw32/gcc-build/avr/avrxmega3/libgcc/../../../../gcc/libgcc/config/avr/lib1funcs.S:1652
    365c:	e4 07       	cpc	r30, r20
/home/jenkins-mingw32/workspace/avr-gcc-staging/label/Ubuntu14.04x64-mingw32/gcc-build/avr/avrxmega3/libgcc/../../../../gcc/libgcc/config/avr/lib1funcs.S:1653
    365e:	f5 07       	cpc	r31, r21
/home/jenkins-mingw32/workspace/avr-gcc-staging/label/Ubuntu14.04x64-mingw32/gcc-build/avr/avrxmega3/libgcc/../../../../gcc/libgcc/config/avr/lib1funcs.S:1654
    3660:	20 f0       	brcs	.+8      	; 0x366a <__udivmodsi4_ep>
/home/jenkins-mingw32/workspace/avr-gcc-staging/label/Ubuntu14.04x64-mingw32/gcc-build/avr/avrxmega3/libgcc/../../../../gcc/libgcc/config/avr/lib1funcs.S:1655
    3662:	a2 1b       	sub	r26, r18
/home/jenkins-mingw32/workspace/avr-gcc-staging/label/Ubuntu14.04x64-mingw32/gcc-build/avr/avrxmega3/libgcc/../../../../gcc/libgcc/config/avr/lib1funcs.S:1656
    3664:	b3 0b       	sbc	r27, r19
/home/jenkins-mingw32/workspace/avr-gcc-staging/label/Ubuntu14.04x64-mingw32/gcc-build/avr/avrxmega3/libgcc/../../../../gcc/libgcc/config/avr/lib1funcs.S:1657
    3666:	e4 0b       	sbc	r30, r20
/home/jenkins-mingw32/workspace/avr-gcc-staging/label/Ubuntu14.04x64-mingw32/gcc-build/avr/avrxmega3/libgcc/../../../../gcc/libgcc/config/avr/lib1funcs.S:1658
    3668:	f5 0b       	sbc	r31, r21

0000366a <__udivmodsi4_ep>:
/home/jenkins-mingw32/workspace/avr-gcc-staging/label/Ubuntu14.04x64-mingw32/gcc-build/avr/avrxmega3/libgcc/../../../../gcc/libgcc/config/avr/lib1funcs.S:1660
    366a:	66 1f       	adc	r22, r22
/home/jenkins-mingw32/workspace/avr-gcc-staging/label/Ubuntu14.04x64-mingw32/gcc-build/avr/avrxmega3/libgcc/../../../../gcc/libgcc/config/avr/lib1funcs.S:1661
    366c:	77 1f       	adc	r23, r23
/home/jenkins-mingw32/workspace/avr-gcc-staging/label/Ubuntu14.04x64-mingw32/gcc-build/avr/avrxmega3/libgcc/../../../../gcc/libgcc/config/avr/lib1funcs.S:1662
    366e:	88 1f       	adc	r24, r24
/home/jenkins-mingw32/workspace/avr-gcc-staging/label/Ubuntu14.04x64-mingw32/gcc-build/avr/avrxmega3/libgcc/../../../../gcc/libgcc/config/avr/lib1funcs.S:1663
    3670:	99 1f       	adc	r25, r25
/home/jenkins-mingw32/workspace/avr-gcc-staging/label/Ubuntu14.04x64-mingw32/gcc-build/avr/avrxmega3/libgcc/../../../../gcc/libgcc/config/avr/lib1funcs.S:1664
    3672:	1a 94       	dec	r1
/home/jenkins-mingw32/workspace/avr-gcc-staging/label/Ubuntu14.04x64-mingw32/gcc-build/avr/avrxmega3/libgcc/../../../../gcc/libgcc/config/avr/lib1funcs.S:1665
    3674:	69 f7       	brne	.-38     	; 0x3650 <__udivmodsi4_loop>
/home/jenkins-mingw32/workspace/avr-gcc-staging/label/Ubuntu14.04x64-mingw32/gcc-build/avr/avrxmega3/libgcc/../../../../gcc/libgcc/config/avr/lib1funcs.S:1667
    3676:	60 95       	com	r22
/home/jenkins-mingw32/workspace/avr-gcc-staging/label/Ubuntu14.04x64-mingw32/gcc-build/avr/avrxmega3/libgcc/../../../../gcc/libgcc/config/avr/lib1funcs.S:1668
    3678:	70 95       	com	r23
/home/jenkins-mingw32/workspace/avr-gcc-staging/label/Ubuntu14.04x64-mingw32/gcc-build/avr/avrxmega3/libgcc/../../../../gcc/libgcc/config/avr/lib1funcs.S:1669
    367a:	80 95       	com	r24
/home/jenkins-mingw32/workspace/avr-gcc-staging/label/Ubuntu14.04x64-mingw32/gcc-build/avr/avrxmega3/libgcc/../../../../gcc/libgcc/config/avr/lib1funcs.S:1670
    367c:	90 95       	com	r25
/home/jenkins-mingw32/workspace/avr-gcc-staging/label/Ubuntu14.04x64-mingw32/gcc-build/avr/avrxmega3/libgcc/../../../../gcc/libgcc/config/avr/lib1funcs.S:1672
    367e:	9b 01       	movw	r18, r22
/home/jenkins-mingw32/workspace/avr-gcc-staging/label/Ubuntu14.04x64-mingw32/gcc-build/avr/avrxmega3/libgcc/../../../../gcc/libgcc/config/avr/lib1funcs.S:1674
    3680:	ac 01       	movw	r20, r24
/home/jenkins-mingw32/workspace/avr-gcc-staging/label/Ubuntu14.04x64-mingw32/gcc-build/avr/avrxmega3/libgcc/../../../../gcc/libgcc/config/avr/lib1funcs.S:1676
    3682:	bd 01       	movw	r22, r26
/home/jenkins-mingw32/workspace/avr-gcc-staging/label/Ubuntu14.04x64-mingw32/gcc-build/avr/avrxmega3/libgcc/../../../../gcc/libgcc/config/avr/lib1funcs.S:1678
    3684:	cf 01       	movw	r24, r30
/home/jenkins-mingw32/workspace/avr-gcc-staging/label/Ubuntu14.04x64-mingw32/gcc-build/avr/avrxmega3/libgcc/../../../../gcc/libgcc/config/avr/lib1funcs.S:1680
    3686:	08 95       	ret

00003688 <__divmodsi4>:
__divmodsi4():
/home/jenkins-mingw32/workspace/avr-gcc-staging/label/Ubuntu14.04x64-mingw32/gcc-build/avr/avrxmega3/libgcc/../../../../gcc/libgcc/config/avr/lib1funcs.S:1686
    3688:	05 2e       	mov	r0, r21
/home/jenkins-mingw32/workspace/avr-gcc-staging/label/Ubuntu14.04x64-mingw32/gcc-build/avr/avrxmega3/libgcc/../../../../gcc/libgcc/config/avr/lib1funcs.S:1687
    368a:	97 fb       	bst	r25, 7
/home/jenkins-mingw32/workspace/avr-gcc-staging/label/Ubuntu14.04x64-mingw32/gcc-build/avr/avrxmega3/libgcc/../../../../gcc/libgcc/config/avr/lib1funcs.S:1688
    368c:	1e f4       	brtc	.+6      	; 0x3694 <__divmodsi4+0xc>
/home/jenkins-mingw32/workspace/avr-gcc-staging/label/Ubuntu14.04x64-mingw32/gcc-build/avr/avrxmega3/libgcc/../../../../gcc/libgcc/config/avr/lib1funcs.S:1689
    368e:	00 94       	com	r0
/home/jenkins-mingw32/workspace/avr-gcc-staging/label/Ubuntu14.04x64-mingw32/gcc-build/avr/avrxmega3/libgcc/../../../../gcc/libgcc/config/avr/lib1funcs.S:1690
    3690:	0e 94 5b 1b 	call	0x36b6	; 0x36b6 <__negsi2>
/home/jenkins-mingw32/workspace/avr-gcc-staging/label/Ubuntu14.04x64-mingw32/gcc-build/avr/avrxmega3/libgcc/../../../../gcc/libgcc/config/avr/lib1funcs.S:1692
    3694:	57 fd       	sbrc	r21, 7
/home/jenkins-mingw32/workspace/avr-gcc-staging/label/Ubuntu14.04x64-mingw32/gcc-build/avr/avrxmega3/libgcc/../../../../gcc/libgcc/config/avr/lib1funcs.S:1693
    3696:	07 d0       	rcall	.+14     	; 0x36a6 <__divmodsi4_neg2>
/home/jenkins-mingw32/workspace/avr-gcc-staging/label/Ubuntu14.04x64-mingw32/gcc-build/avr/avrxmega3/libgcc/../../../../gcc/libgcc/config/avr/lib1funcs.S:1694
    3698:	0e 94 22 1b 	call	0x3644	; 0x3644 <__udivmodsi4>
/home/jenkins-mingw32/workspace/avr-gcc-staging/label/Ubuntu14.04x64-mingw32/gcc-build/avr/avrxmega3/libgcc/../../../../gcc/libgcc/config/avr/lib1funcs.S:1695
    369c:	07 fc       	sbrc	r0, 7
/home/jenkins-mingw32/workspace/avr-gcc-staging/label/Ubuntu14.04x64-mingw32/gcc-build/avr/avrxmega3/libgcc/../../../../gcc/libgcc/config/avr/lib1funcs.S:1696
    369e:	03 d0       	rcall	.+6      	; 0x36a6 <__divmodsi4_neg2>
/home/jenkins-mingw32/workspace/avr-gcc-staging/label/Ubuntu14.04x64-mingw32/gcc-build/avr/avrxmega3/libgcc/../../../../gcc/libgcc/config/avr/lib1funcs.S:1697
    36a0:	4e f4       	brtc	.+18     	; 0x36b4 <__divmodsi4_exit>
/home/jenkins-mingw32/workspace/avr-gcc-staging/label/Ubuntu14.04x64-mingw32/gcc-build/avr/avrxmega3/libgcc/../../../../gcc/libgcc/config/avr/lib1funcs.S:1698
    36a2:	0c 94 5b 1b 	jmp	0x36b6	; 0x36b6 <__negsi2>

000036a6 <__divmodsi4_neg2>:
/home/jenkins-mingw32/workspace/avr-gcc-staging/label/Ubuntu14.04x64-mingw32/gcc-build/avr/avrxmega3/libgcc/../../../../gcc/libgcc/config/avr/lib1funcs.S:1701
    36a6:	50 95       	com	r21
/home/jenkins-mingw32/workspace/avr-gcc-staging/label/Ubuntu14.04x64-mingw32/gcc-build/avr/avrxmega3/libgcc/../../../../gcc/libgcc/config/avr/lib1funcs.S:1702
    36a8:	40 95       	com	r20
/home/jenkins-mingw32/workspace/avr-gcc-staging/label/Ubuntu14.04x64-mingw32/gcc-build/avr/avrxmega3/libgcc/../../../../gcc/libgcc/config/avr/lib1funcs.S:1703
    36aa:	30 95       	com	r19
/home/jenkins-mingw32/workspace/avr-gcc-staging/label/Ubuntu14.04x64-mingw32/gcc-build/avr/avrxmega3/libgcc/../../../../gcc/libgcc/config/avr/lib1funcs.S:1704
    36ac:	21 95       	neg	r18
/home/jenkins-mingw32/workspace/avr-gcc-staging/label/Ubuntu14.04x64-mingw32/gcc-build/avr/avrxmega3/libgcc/../../../../gcc/libgcc/config/avr/lib1funcs.S:1705
    36ae:	3f 4f       	sbci	r19, 0xFF	; 255
/home/jenkins-mingw32/workspace/avr-gcc-staging/label/Ubuntu14.04x64-mingw32/gcc-build/avr/avrxmega3/libgcc/../../../../gcc/libgcc/config/avr/lib1funcs.S:1706
    36b0:	4f 4f       	sbci	r20, 0xFF	; 255
/home/jenkins-mingw32/workspace/avr-gcc-staging/label/Ubuntu14.04x64-mingw32/gcc-build/avr/avrxmega3/libgcc/../../../../gcc/libgcc/config/avr/lib1funcs.S:1707
    36b2:	5f 4f       	sbci	r21, 0xFF	; 255

000036b4 <__divmodsi4_exit>:
/home/jenkins-mingw32/workspace/avr-gcc-staging/label/Ubuntu14.04x64-mingw32/gcc-build/avr/avrxmega3/libgcc/../../../../gcc/libgcc/config/avr/lib1funcs.S:1709
    36b4:	08 95       	ret

000036b6 <__negsi2>:
__negsi2():
/home/jenkins-mingw32/workspace/avr-gcc-staging/label/Ubuntu14.04x64-mingw32/gcc-build/avr/avrxmega3/libgcc/../../../../gcc/libgcc/config/avr/lib1funcs.S:1718
    36b6:	90 95       	com	r25
    36b8:	80 95       	com	r24
    36ba:	70 95       	com	r23
    36bc:	61 95       	neg	r22
    36be:	7f 4f       	sbci	r23, 0xFF	; 255
    36c0:	8f 4f       	sbci	r24, 0xFF	; 255
    36c2:	9f 4f       	sbci	r25, 0xFF	; 255
/home/jenkins-mingw32/workspace/avr-gcc-staging/label/Ubuntu14.04x64-mingw32/gcc-build/avr/avrxmega3/libgcc/../../../../gcc/libgcc/config/avr/lib1funcs.S:1719
    36c4:	08 95       	ret

000036c6 <__tablejump2__>:
__tablejump2__():
/home/jenkins-mingw32/workspace/avr-gcc-staging/label/Ubuntu14.04x64-mingw32/gcc-build/avr/avrxmega3/libgcc/../../../../gcc/libgcc/config/avr/lib1funcs.S:2296
    36c6:	ee 0f       	add	r30, r30
/home/jenkins-mingw32/workspace/avr-gcc-staging/label/Ubuntu14.04x64-mingw32/gcc-build/avr/avrxmega3/libgcc/../../../../gcc/libgcc/config/avr/lib1funcs.S:2297
    36c8:	ff 1f       	adc	r31, r31
/home/jenkins-mingw32/workspace/avr-gcc-staging/label/Ubuntu14.04x64-mingw32/gcc-build/avr/avrxmega3/libgcc/../../../../gcc/libgcc/config/avr/lib1funcs.S:2328
    36ca:	05 90       	lpm	r0, Z+
/home/jenkins-mingw32/workspace/avr-gcc-staging/label/Ubuntu14.04x64-mingw32/gcc-build/avr/avrxmega3/libgcc/../../../../gcc/libgcc/config/avr/lib1funcs.S:2329
    36cc:	f4 91       	lpm	r31, Z
/home/jenkins-mingw32/workspace/avr-gcc-staging/label/Ubuntu14.04x64-mingw32/gcc-build/avr/avrxmega3/libgcc/../../../../gcc/libgcc/config/avr/lib1funcs.S:2330
    36ce:	e0 2d       	mov	r30, r0
/home/jenkins-mingw32/workspace/avr-gcc-staging/label/Ubuntu14.04x64-mingw32/gcc-build/avr/avrxmega3/libgcc/../../../../gcc/libgcc/config/avr/lib1funcs.S:2331
    36d0:	09 94       	ijmp

000036d2 <__umulhisi3>:
__umulhisi3():
/home/jenkins-mingw32/workspace/avr-gcc-staging/label/Ubuntu14.04x64-mingw32/gcc-build/avr/avrxmega3/libgcc/../../../../gcc/libgcc/config/avr/lib1funcs.S:564
    36d2:	a2 9f       	mul	r26, r18
/home/jenkins-mingw32/workspace/avr-gcc-staging/label/Ubuntu14.04x64-mingw32/gcc-build/avr/avrxmega3/libgcc/../../../../gcc/libgcc/config/avr/lib1funcs.S:565
    36d4:	b0 01       	movw	r22, r0
/home/jenkins-mingw32/workspace/avr-gcc-staging/label/Ubuntu14.04x64-mingw32/gcc-build/avr/avrxmega3/libgcc/../../../../gcc/libgcc/config/avr/lib1funcs.S:566
    36d6:	b3 9f       	mul	r27, r19
/home/jenkins-mingw32/workspace/avr-gcc-staging/label/Ubuntu14.04x64-mingw32/gcc-build/avr/avrxmega3/libgcc/../../../../gcc/libgcc/config/avr/lib1funcs.S:567
    36d8:	c0 01       	movw	r24, r0
/home/jenkins-mingw32/workspace/avr-gcc-staging/label/Ubuntu14.04x64-mingw32/gcc-build/avr/avrxmega3/libgcc/../../../../gcc/libgcc/config/avr/lib1funcs.S:568
    36da:	a3 9f       	mul	r26, r19
/home/jenkins-mingw32/workspace/avr-gcc-staging/label/Ubuntu14.04x64-mingw32/gcc-build/avr/avrxmega3/libgcc/../../../../gcc/libgcc/config/avr/lib1funcs.S:573
    36dc:	70 0d       	add	r23, r0
/home/jenkins-mingw32/workspace/avr-gcc-staging/label/Ubuntu14.04x64-mingw32/gcc-build/avr/avrxmega3/libgcc/../../../../gcc/libgcc/config/avr/lib1funcs.S:574
    36de:	81 1d       	adc	r24, r1
/home/jenkins-mingw32/workspace/avr-gcc-staging/label/Ubuntu14.04x64-mingw32/gcc-build/avr/avrxmega3/libgcc/../../../../gcc/libgcc/config/avr/lib1funcs.S:575
    36e0:	11 24       	eor	r1, r1
/home/jenkins-mingw32/workspace/avr-gcc-staging/label/Ubuntu14.04x64-mingw32/gcc-build/avr/avrxmega3/libgcc/../../../../gcc/libgcc/config/avr/lib1funcs.S:576
    36e2:	91 1d       	adc	r25, r1
/home/jenkins-mingw32/workspace/avr-gcc-staging/label/Ubuntu14.04x64-mingw32/gcc-build/avr/avrxmega3/libgcc/../../../../gcc/libgcc/config/avr/lib1funcs.S:580
    36e4:	b2 9f       	mul	r27, r18
/home/jenkins-mingw32/workspace/avr-gcc-staging/label/Ubuntu14.04x64-mingw32/gcc-build/avr/avrxmega3/libgcc/../../../../gcc/libgcc/config/avr/lib1funcs.S:581
    36e6:	70 0d       	add	r23, r0
/home/jenkins-mingw32/workspace/avr-gcc-staging/label/Ubuntu14.04x64-mingw32/gcc-build/avr/avrxmega3/libgcc/../../../../gcc/libgcc/config/avr/lib1funcs.S:582
    36e8:	81 1d       	adc	r24, r1
/home/jenkins-mingw32/workspace/avr-gcc-staging/label/Ubuntu14.04x64-mingw32/gcc-build/avr/avrxmega3/libgcc/../../../../gcc/libgcc/config/avr/lib1funcs.S:583
    36ea:	11 24       	eor	r1, r1
/home/jenkins-mingw32/workspace/avr-gcc-staging/label/Ubuntu14.04x64-mingw32/gcc-build/avr/avrxmega3/libgcc/../../../../gcc/libgcc/config/avr/lib1funcs.S:584
    36ec:	91 1d       	adc	r25, r1
/home/jenkins-mingw32/workspace/avr-gcc-staging/label/Ubuntu14.04x64-mingw32/gcc-build/avr/avrxmega3/libgcc/../../../../gcc/libgcc/config/avr/lib1funcs.S:585
    36ee:	08 95       	ret

000036f0 <__usmulhisi3>:
__usmulhisi3():
/home/jenkins-mingw32/workspace/avr-gcc-staging/label/Ubuntu14.04x64-mingw32/gcc-build/avr/avrxmega3/libgcc/../../../../gcc/libgcc/config/avr/lib1funcs.S:545
    36f0:	0e 94 69 1b 	call	0x36d2	; 0x36d2 <__umulhisi3>

000036f4 <__usmulhisi3_tail>:
__usmulhisi3_tail():
/home/jenkins-mingw32/workspace/avr-gcc-staging/label/Ubuntu14.04x64-mingw32/gcc-build/avr/avrxmega3/libgcc/../../../../gcc/libgcc/config/avr/lib1funcs.S:551
    36f4:	b7 ff       	sbrs	r27, 7
/home/jenkins-mingw32/workspace/avr-gcc-staging/label/Ubuntu14.04x64-mingw32/gcc-build/avr/avrxmega3/libgcc/../../../../gcc/libgcc/config/avr/lib1funcs.S:552
    36f6:	08 95       	ret
/home/jenkins-mingw32/workspace/avr-gcc-staging/label/Ubuntu14.04x64-mingw32/gcc-build/avr/avrxmega3/libgcc/../../../../gcc/libgcc/config/avr/lib1funcs.S:553
    36f8:	82 1b       	sub	r24, r18
/home/jenkins-mingw32/workspace/avr-gcc-staging/label/Ubuntu14.04x64-mingw32/gcc-build/avr/avrxmega3/libgcc/../../../../gcc/libgcc/config/avr/lib1funcs.S:554
    36fa:	93 0b       	sbc	r25, r19
/home/jenkins-mingw32/workspace/avr-gcc-staging/label/Ubuntu14.04x64-mingw32/gcc-build/avr/avrxmega3/libgcc/../../../../gcc/libgcc/config/avr/lib1funcs.S:555
    36fc:	08 95       	ret

000036fe <__muluhisi3>:
__muluhisi3():
/home/jenkins-mingw32/workspace/avr-gcc-staging/label/Ubuntu14.04x64-mingw32/gcc-build/avr/avrxmega3/libgcc/../../../../gcc/libgcc/config/avr/lib1funcs.S:626
    36fe:	0e 94 69 1b 	call	0x36d2	; 0x36d2 <__umulhisi3>
/home/jenkins-mingw32/workspace/avr-gcc-staging/label/Ubuntu14.04x64-mingw32/gcc-build/avr/avrxmega3/libgcc/../../../../gcc/libgcc/config/avr/lib1funcs.S:627
    3702:	a5 9f       	mul	r26, r21
/home/jenkins-mingw32/workspace/avr-gcc-staging/label/Ubuntu14.04x64-mingw32/gcc-build/avr/avrxmega3/libgcc/../../../../gcc/libgcc/config/avr/lib1funcs.S:628
    3704:	90 0d       	add	r25, r0
/home/jenkins-mingw32/workspace/avr-gcc-staging/label/Ubuntu14.04x64-mingw32/gcc-build/avr/avrxmega3/libgcc/../../../../gcc/libgcc/config/avr/lib1funcs.S:629
    3706:	b4 9f       	mul	r27, r20
/home/jenkins-mingw32/workspace/avr-gcc-staging/label/Ubuntu14.04x64-mingw32/gcc-build/avr/avrxmega3/libgcc/../../../../gcc/libgcc/config/avr/lib1funcs.S:630
    3708:	90 0d       	add	r25, r0
/home/jenkins-mingw32/workspace/avr-gcc-staging/label/Ubuntu14.04x64-mingw32/gcc-build/avr/avrxmega3/libgcc/../../../../gcc/libgcc/config/avr/lib1funcs.S:631
    370a:	a4 9f       	mul	r26, r20
/home/jenkins-mingw32/workspace/avr-gcc-staging/label/Ubuntu14.04x64-mingw32/gcc-build/avr/avrxmega3/libgcc/../../../../gcc/libgcc/config/avr/lib1funcs.S:632
    370c:	80 0d       	add	r24, r0
/home/jenkins-mingw32/workspace/avr-gcc-staging/label/Ubuntu14.04x64-mingw32/gcc-build/avr/avrxmega3/libgcc/../../../../gcc/libgcc/config/avr/lib1funcs.S:633
    370e:	91 1d       	adc	r25, r1
/home/jenkins-mingw32/workspace/avr-gcc-staging/label/Ubuntu14.04x64-mingw32/gcc-build/avr/avrxmega3/libgcc/../../../../gcc/libgcc/config/avr/lib1funcs.S:634
    3710:	11 24       	eor	r1, r1
/home/jenkins-mingw32/workspace/avr-gcc-staging/label/Ubuntu14.04x64-mingw32/gcc-build/avr/avrxmega3/libgcc/../../../../gcc/libgcc/config/avr/lib1funcs.S:635
    3712:	08 95       	ret

00003714 <__mulshisi3>:
__mulshisi3():
/home/jenkins-mingw32/workspace/avr-gcc-staging/label/Ubuntu14.04x64-mingw32/gcc-build/avr/avrxmega3/libgcc/../../../../gcc/libgcc/config/avr/lib1funcs.S:603
    3714:	b7 ff       	sbrs	r27, 7
/home/jenkins-mingw32/workspace/avr-gcc-staging/label/Ubuntu14.04x64-mingw32/gcc-build/avr/avrxmega3/libgcc/../../../../gcc/libgcc/config/avr/lib1funcs.S:605
    3716:	0c 94 7f 1b 	jmp	0x36fe	; 0x36fe <__muluhisi3>

0000371a <__mulohisi3>:
__mulohisi3():
/home/jenkins-mingw32/workspace/avr-gcc-staging/label/Ubuntu14.04x64-mingw32/gcc-build/avr/avrxmega3/libgcc/../../../../gcc/libgcc/config/avr/lib1funcs.S:613
    371a:	0e 94 7f 1b 	call	0x36fe	; 0x36fe <__muluhisi3>
/home/jenkins-mingw32/workspace/avr-gcc-staging/label/Ubuntu14.04x64-mingw32/gcc-build/avr/avrxmega3/libgcc/../../../../gcc/libgcc/config/avr/lib1funcs.S:615
    371e:	82 1b       	sub	r24, r18
/home/jenkins-mingw32/workspace/avr-gcc-staging/label/Ubuntu14.04x64-mingw32/gcc-build/avr/avrxmega3/libgcc/../../../../gcc/libgcc/config/avr/lib1funcs.S:616
    3720:	93 0b       	sbc	r25, r19
/home/jenkins-mingw32/workspace/avr-gcc-staging/label/Ubuntu14.04x64-mingw32/gcc-build/avr/avrxmega3/libgcc/../../../../gcc/libgcc/config/avr/lib1funcs.S:617
    3722:	08 95       	ret

00003724 <__udivmodhi4>:
__udivmodhi4():
/home/jenkins-mingw32/workspace/avr-gcc-staging/label/Ubuntu14.04x64-mingw32/gcc-build/avr/avrxmega3/libgcc/../../../../gcc/libgcc/config/avr/lib1funcs.S:1408
    3724:	aa 1b       	sub	r26, r26
/home/jenkins-mingw32/workspace/avr-gcc-staging/label/Ubuntu14.04x64-mingw32/gcc-build/avr/avrxmega3/libgcc/../../../../gcc/libgcc/config/avr/lib1funcs.S:1409
    3726:	bb 1b       	sub	r27, r27
/home/jenkins-mingw32/workspace/avr-gcc-staging/label/Ubuntu14.04x64-mingw32/gcc-build/avr/avrxmega3/libgcc/../../../../gcc/libgcc/config/avr/lib1funcs.S:1410
    3728:	51 e1       	ldi	r21, 0x11	; 17
/home/jenkins-mingw32/workspace/avr-gcc-staging/label/Ubuntu14.04x64-mingw32/gcc-build/avr/avrxmega3/libgcc/../../../../gcc/libgcc/config/avr/lib1funcs.S:1411
    372a:	07 c0       	rjmp	.+14     	; 0x373a <__udivmodhi4_ep>

0000372c <__udivmodhi4_loop>:
/home/jenkins-mingw32/workspace/avr-gcc-staging/label/Ubuntu14.04x64-mingw32/gcc-build/avr/avrxmega3/libgcc/../../../../gcc/libgcc/config/avr/lib1funcs.S:1413
    372c:	aa 1f       	adc	r26, r26
/home/jenkins-mingw32/workspace/avr-gcc-staging/label/Ubuntu14.04x64-mingw32/gcc-build/avr/avrxmega3/libgcc/../../../../gcc/libgcc/config/avr/lib1funcs.S:1414
    372e:	bb 1f       	adc	r27, r27
/home/jenkins-mingw32/workspace/avr-gcc-staging/label/Ubuntu14.04x64-mingw32/gcc-build/avr/avrxmega3/libgcc/../../../../gcc/libgcc/config/avr/lib1funcs.S:1415
    3730:	a6 17       	cp	r26, r22
/home/jenkins-mingw32/workspace/avr-gcc-staging/label/Ubuntu14.04x64-mingw32/gcc-build/avr/avrxmega3/libgcc/../../../../gcc/libgcc/config/avr/lib1funcs.S:1416
    3732:	b7 07       	cpc	r27, r23
/home/jenkins-mingw32/workspace/avr-gcc-staging/label/Ubuntu14.04x64-mingw32/gcc-build/avr/avrxmega3/libgcc/../../../../gcc/libgcc/config/avr/lib1funcs.S:1417
    3734:	10 f0       	brcs	.+4      	; 0x373a <__udivmodhi4_ep>
/home/jenkins-mingw32/workspace/avr-gcc-staging/label/Ubuntu14.04x64-mingw32/gcc-build/avr/avrxmega3/libgcc/../../../../gcc/libgcc/config/avr/lib1funcs.S:1418
    3736:	a6 1b       	sub	r26, r22
/home/jenkins-mingw32/workspace/avr-gcc-staging/label/Ubuntu14.04x64-mingw32/gcc-build/avr/avrxmega3/libgcc/../../../../gcc/libgcc/config/avr/lib1funcs.S:1419
    3738:	b7 0b       	sbc	r27, r23

0000373a <__udivmodhi4_ep>:
/home/jenkins-mingw32/workspace/avr-gcc-staging/label/Ubuntu14.04x64-mingw32/gcc-build/avr/avrxmega3/libgcc/../../../../gcc/libgcc/config/avr/lib1funcs.S:1421
    373a:	88 1f       	adc	r24, r24
/home/jenkins-mingw32/workspace/avr-gcc-staging/label/Ubuntu14.04x64-mingw32/gcc-build/avr/avrxmega3/libgcc/../../../../gcc/libgcc/config/avr/lib1funcs.S:1422
    373c:	99 1f       	adc	r25, r25
/home/jenkins-mingw32/workspace/avr-gcc-staging/label/Ubuntu14.04x64-mingw32/gcc-build/avr/avrxmega3/libgcc/../../../../gcc/libgcc/config/avr/lib1funcs.S:1423
    373e:	5a 95       	dec	r21
/home/jenkins-mingw32/workspace/avr-gcc-staging/label/Ubuntu14.04x64-mingw32/gcc-build/avr/avrxmega3/libgcc/../../../../gcc/libgcc/config/avr/lib1funcs.S:1424
    3740:	a9 f7       	brne	.-22     	; 0x372c <__udivmodhi4_loop>
/home/jenkins-mingw32/workspace/avr-gcc-staging/label/Ubuntu14.04x64-mingw32/gcc-build/avr/avrxmega3/libgcc/../../../../gcc/libgcc/config/avr/lib1funcs.S:1425
    3742:	80 95       	com	r24
/home/jenkins-mingw32/workspace/avr-gcc-staging/label/Ubuntu14.04x64-mingw32/gcc-build/avr/avrxmega3/libgcc/../../../../gcc/libgcc/config/avr/lib1funcs.S:1426
    3744:	90 95       	com	r25
/home/jenkins-mingw32/workspace/avr-gcc-staging/label/Ubuntu14.04x64-mingw32/gcc-build/avr/avrxmega3/libgcc/../../../../gcc/libgcc/config/avr/lib1funcs.S:1428
    3746:	bc 01       	movw	r22, r24
/home/jenkins-mingw32/workspace/avr-gcc-staging/label/Ubuntu14.04x64-mingw32/gcc-build/avr/avrxmega3/libgcc/../../../../gcc/libgcc/config/avr/lib1funcs.S:1430
    3748:	cd 01       	movw	r24, r26
/home/jenkins-mingw32/workspace/avr-gcc-staging/label/Ubuntu14.04x64-mingw32/gcc-build/avr/avrxmega3/libgcc/../../../../gcc/libgcc/config/avr/lib1funcs.S:1432
    374a:	08 95       	ret

0000374c <_exit>:
exit():
/home/jenkins-mingw32/workspace/avr-gcc-staging/label/Ubuntu14.04x64-mingw32/gcc-build/avr/avrxmega3/libgcc/../../../../gcc/libgcc/config/avr/lib1funcs.S:2278
    374c:	f8 94       	cli

0000374e <__stop_program>:
__stop_program():
/home/jenkins-mingw32/workspace/avr-gcc-staging/label/Ubuntu14.04x64-mingw32/gcc-build/avr/avrxmega3/libgcc/../../../../gcc/libgcc/config/avr/lib1funcs.S:2280
    374e:	ff cf       	rjmp	.-2      	; 0x374e <__stop_program>
